GAS LISTING C:\Users\bayra\AppData\Local\Temp\ccQzjoBV.s 			page 1


   1              		.file	"cache.c"
   2              		.section	".text","axv"
   3              	.Ltext0:
   4              		.cfi_sections	.debug_frame
   5              		.section	.text.idc_invalidate,"axv",@progbits
   6              		.align 1
   7              		.p2align 4,,15
   8              		.type	idc_invalidate, @function
   9              	idc_invalidate:
  10              	.LFB0:
  11              		.file 1 "./components/spc58ecxx_platform_component_rla/lib/src/cache.c"
  12              		.loc 1 108 0
  13              		.cfi_startproc
  14 0000 182106D0 		e_stwu %r1,-48(%r1)
  15              	.LCFI0:
  16              		.cfi_def_cfa_offset 48
  17 0004 DA31     		se_stw %r3,40(%r1)
  18 0006 0147     		se_mr %r7,%r4
  19 0008 34E1002C 		e_stb %r7,44(%r1)
  20              		.loc 1 111 0
  21 000c 4807     		se_li %r7,0
  22 000e D571     		se_stw %r7,20(%r1)
  23 0010 4807     		se_li %r7,0
  24 0012 D671     		se_stw %r7,24(%r1)
  25              		.loc 1 112 0
  26 0014 4807     		se_li %r7,0
  27 0016 D771     		se_stw %r7,28(%r1)
  28              		.loc 1 115 0
  29 0018 CA71     		se_lwz %r7,40(%r1)
  30 001a 2A17     		se_cmpi %r7,1
  31 001c 7F800020 		e_mcrf %cr7,%cr0
  32 0020 7CE00026 		mfcr %r7
  33 0024 74E7E007 		e_rlwinm %r7,%r7,28,0xf0000000
  34 0028 7CE80120 		mtcrf 128,%r7
  35 002c 7A020014 		e_bne %cr0,.L2
  36              		.loc 1 116 0
  37 0030 4927     		se_li %r7,18
  38 0032 D371     		se_stw %r7,12(%r1)
  39              		.loc 1 117 0
  40 0034 4847     		se_li %r7,4
  41 0036 D471     		se_stw %r7,16(%r1)
  42              		.loc 1 118 0
  43 0038 2C07     		se_bmaski %r7,0
  44 003a 9871     		se_stb %r7,8(%r1)
  45 003c 78000010 		e_b .L3
  46              	.L2:
  47              		.loc 1 120 0
  48 0040 4927     		se_li %r7,18
  49 0042 D371     		se_stw %r7,12(%r1)
  50              		.loc 1 121 0
  51 0044 4847     		se_li %r7,4
  52 0046 D471     		se_stw %r7,16(%r1)
  53              		.loc 1 122 0
  54 0048 4FF7     		se_li %r7,127
  55 004a 9871     		se_stb %r7,8(%r1)
  56              	.L3:
  57              		.loc 1 126 0
GAS LISTING C:\Users\bayra\AppData\Local\Temp\ccQzjoBV.s 			page 2


  58 004c 30E1002C 		e_lbz %r7,44(%r1)
  59 0050 00C7     		se_extzb %r7
  60 0052 2A17     		se_cmpi %r7,1
  61 0054 7F800020 		e_mcrf %cr7,%cr0
  62 0058 7CE00026 		mfcr %r7
  63 005c 74E7E007 		e_rlwinm %r7,%r7,28,0xf0000000
  64 0060 7CE80120 		mtcrf 128,%r7
  65 0064 7A02002C 		e_bne %cr0,.L4
  66              		.loc 1 127 0
  67 0068 CA71     		se_lwz %r7,40(%r1)
  68 006a 2A17     		se_cmpi %r7,1
  69 006c 7F800020 		e_mcrf %cr7,%cr0
  70 0070 7CE00026 		mfcr %r7
  71 0074 74E7E007 		e_rlwinm %r7,%r7,28,0xf0000000
  72 0078 7CE80120 		mtcrf 128,%r7
  73 007c 7A02000E 		e_bne %cr0,.L5
  74              		.loc 1 127 0 is_stmt 0 discriminator 1
  75              	 # 127 "./components/spc58ecxx_platform_component_rla/lib/src/cache.c" 1
  76 0080 7CF3FAA6 		mfspr %r7, 1011
  77              	 # 0 "" 2
  78 0084 D671     		se_stw %r7,24(%r1)
  79 0086 7800000A 		e_b .L4
  80              	.L5:
  81              		.loc 1 127 0 discriminator 2
  82              	 # 127 "./components/spc58ecxx_platform_component_rla/lib/src/cache.c" 1
  83 008a 7CF2FAA6 		mfspr %r7, 1010
  84              	 # 0 "" 2
  85 008e D671     		se_stw %r7,24(%r1)
  86              	.L4:
  87              		.loc 1 131 0 is_stmt 1
  88 0090 CA71     		se_lwz %r7,40(%r1)
  89 0092 2A17     		se_cmpi %r7,1
  90 0094 7F800020 		e_mcrf %cr7,%cr0
  91 0098 7CE00026 		mfcr %r7
  92 009c 74E7E007 		e_rlwinm %r7,%r7,28,0xf0000000
  93 00a0 7CE80120 		mtcrf 128,%r7
  94 00a4 7A02000E 		e_bne %cr0,.L6
  95              		.loc 1 131 0 is_stmt 0 discriminator 1
  96 00a8 C371     		se_lwz %r7,12(%r1)
  97              	 # 131 "./components/spc58ecxx_platform_component_rla/lib/src/cache.c" 1
  98 00aa 7CF3FBA6 		mtspr 1011, %r7
  99              	 # 0 "" 2
 100 00ae 7800000A 		e_b .L7
 101              	.L6:
 102              		.loc 1 131 0 discriminator 2
 103 00b2 C371     		se_lwz %r7,12(%r1)
 104              	 # 131 "./components/spc58ecxx_platform_component_rla/lib/src/cache.c" 1
 105 00b4 7CF2FBA6 		mtspr 1010, %r7
 106              	 # 0 "" 2
 107              	.L7:
 108              		.loc 1 132 0 is_stmt 1
 109 00b8 CA71     		se_lwz %r7,40(%r1)
 110 00ba 2A17     		se_cmpi %r7,1
 111 00bc 7F800020 		e_mcrf %cr7,%cr0
 112 00c0 7CE00026 		mfcr %r7
 113 00c4 74E7E007 		e_rlwinm %r7,%r7,28,0xf0000000
 114 00c8 7CE80120 		mtcrf 128,%r7
GAS LISTING C:\Users\bayra\AppData\Local\Temp\ccQzjoBV.s 			page 3


 115 00cc 7A02000E 		e_bne %cr0,.L8
 116              		.loc 1 132 0 is_stmt 0 discriminator 1
 117              	 # 132 "./components/spc58ecxx_platform_component_rla/lib/src/cache.c" 1
 118 00d0 7CF3FAA6 		mfspr %r7, 1011
 119              	 # 0 "" 2
 120 00d4 D571     		se_stw %r7,20(%r1)
 121 00d6 7800000A 		e_b .L9
 122              	.L8:
 123              		.loc 1 132 0 discriminator 2
 124              	 # 132 "./components/spc58ecxx_platform_component_rla/lib/src/cache.c" 1
 125 00da 7CF2FAA6 		mfspr %r7, 1010
 126              	 # 0 "" 2
 127 00de D571     		se_stw %r7,20(%r1)
 128              	.L9:
 129              		.loc 1 136 0 is_stmt 1
 130 00e0 7800002C 		e_b .L10
 131              	.L12:
 132              		.loc 1 137 0
 133 00e4 CA71     		se_lwz %r7,40(%r1)
 134 00e6 2A17     		se_cmpi %r7,1
 135 00e8 7F800020 		e_mcrf %cr7,%cr0
 136 00ec 7CE00026 		mfcr %r7
 137 00f0 74E7E007 		e_rlwinm %r7,%r7,28,0xf0000000
 138 00f4 7CE80120 		mtcrf 128,%r7
 139 00f8 7A02000E 		e_bne %cr0,.L11
 140              		.loc 1 137 0 is_stmt 0 discriminator 1
 141              	 # 137 "./components/spc58ecxx_platform_component_rla/lib/src/cache.c" 1
 142 00fc 7CF3FAA6 		mfspr %r7, 1011
 143              	 # 0 "" 2
 144 0100 D571     		se_stw %r7,20(%r1)
 145 0102 7800000A 		e_b .L10
 146              	.L11:
 147              		.loc 1 137 0 discriminator 2
 148              	 # 137 "./components/spc58ecxx_platform_component_rla/lib/src/cache.c" 1
 149 0106 7CF2FAA6 		mfspr %r7, 1010
 150              	 # 0 "" 2
 151 010a D571     		se_stw %r7,20(%r1)
 152              	.L10:
 153              		.loc 1 136 0 is_stmt 1
 154 010c C561     		se_lwz %r6,20(%r1)
 155 010e C371     		se_lwz %r7,12(%r1)
 156 0110 4676     		se_and %r6,%r7
 157 0112 C371     		se_lwz %r7,12(%r1)
 158 0114 7F863800 		cmp %cr7,%r6,%r7
 159 0118 7CE00026 		mfcr %r7
 160 011c 74E7E007 		e_rlwinm %r7,%r7,28,0xf0000000
 161 0120 7CE80120 		mtcrf 128,%r7
 162 0124 7A12FFC0 		e_beq %cr0,.L12
 163              		.loc 1 141 0
 164 0128 CA71     		se_lwz %r7,40(%r1)
 165 012a 2A17     		se_cmpi %r7,1
 166 012c 7F800020 		e_mcrf %cr7,%cr0
 167 0130 7CE00026 		mfcr %r7
 168 0134 74E7E007 		e_rlwinm %r7,%r7,28,0xf0000000
 169 0138 7CE80120 		mtcrf 128,%r7
 170 013c 7A02000E 		e_bne %cr0,.L13
 171              		.loc 1 141 0 is_stmt 0 discriminator 1
GAS LISTING C:\Users\bayra\AppData\Local\Temp\ccQzjoBV.s 			page 4


 172              	 # 141 "./components/spc58ecxx_platform_component_rla/lib/src/cache.c" 1
 173 0140 7CF3FAA6 		mfspr %r7, 1011
 174              	 # 0 "" 2
 175 0144 D571     		se_stw %r7,20(%r1)
 176 0146 7800000A 		e_b .L14
 177              	.L13:
 178              		.loc 1 141 0 discriminator 2
 179              	 # 141 "./components/spc58ecxx_platform_component_rla/lib/src/cache.c" 1
 180 014a 7CF2FAA6 		mfspr %r7, 1010
 181              	 # 0 "" 2
 182 014e D571     		se_stw %r7,20(%r1)
 183              	.L14:
 184              		.loc 1 142 0 is_stmt 1
 185 0150 C561     		se_lwz %r6,20(%r1)
 186 0152 C471     		se_lwz %r7,16(%r1)
 187 0154 4676     		se_and %r6,%r7
 188 0156 C471     		se_lwz %r7,16(%r1)
 189 0158 7F863800 		cmp %cr7,%r6,%r7
 190 015c 7CE00026 		mfcr %r7
 191 0160 74E7E007 		e_rlwinm %r7,%r7,28,0xf0000000
 192 0164 7CE80120 		mtcrf 128,%r7
 193 0168 7A02003A 		e_bne %cr0,.L15
 194              		.loc 1 143 0
 195 016c C471     		se_lwz %r7,16(%r1)
 196 016e 0027     		se_not %r7
 197 0170 C561     		se_lwz %r6,20(%r1)
 198 0172 4667     		se_and %r7,%r6
 199 0174 D571     		se_stw %r7,20(%r1)
 200              		.loc 1 144 0
 201 0176 CA71     		se_lwz %r7,40(%r1)
 202 0178 2A17     		se_cmpi %r7,1
 203 017a 7F800020 		e_mcrf %cr7,%cr0
 204 017e 7CE00026 		mfcr %r7
 205 0182 74E7E007 		e_rlwinm %r7,%r7,28,0xf0000000
 206 0186 7CE80120 		mtcrf 128,%r7
 207 018a 7A02000E 		e_bne %cr0,.L16
 208              		.loc 1 144 0 is_stmt 0 discriminator 1
 209 018e C571     		se_lwz %r7,20(%r1)
 210              	 # 144 "./components/spc58ecxx_platform_component_rla/lib/src/cache.c" 1
 211 0190 7CF3FBA6 		mtspr 1011, %r7
 212              	 # 0 "" 2
 213 0194 7800000A 		e_b .L17
 214              	.L16:
 215              		.loc 1 144 0 discriminator 2
 216 0198 C571     		se_lwz %r7,20(%r1)
 217              	 # 144 "./components/spc58ecxx_platform_component_rla/lib/src/cache.c" 1
 218 019a 7CF2FBA6 		mtspr 1010, %r7
 219              	 # 0 "" 2
 220              	.L17:
 221              		.loc 1 145 0 is_stmt 1
 222 019e 4827     		se_li %r7,2
 223 01a0 D771     		se_stw %r7,28(%r1)
 224              	.L15:
 225              		.loc 1 152 0
 226 01a2 C771     		se_lwz %r7,28(%r1)
 227 01a4 2A07     		se_cmpi %r7,0
 228 01a6 7F800020 		e_mcrf %cr7,%cr0
GAS LISTING C:\Users\bayra\AppData\Local\Temp\ccQzjoBV.s 			page 5


 229 01aa 7CE00026 		mfcr %r7
 230 01ae 74E7E007 		e_rlwinm %r7,%r7,28,0xf0000000
 231 01b2 7CE80120 		mtcrf 128,%r7
 232 01b6 7A120096 		e_beq %cr0,.L18
 233              		.loc 1 153 0
 234 01ba 4807     		se_li %r7,0
 235 01bc 9A71     		se_stb %r7,10(%r1)
 236 01be 78000074 		e_b .L19
 237              	.L24:
 238              		.loc 1 154 0
 239 01c2 4807     		se_li %r7,0
 240 01c4 9971     		se_stb %r7,9(%r1)
 241 01c6 78000046 		e_b .L20
 242              	.L23:
 243              		.loc 1 155 0
 244 01ca 8A71     		se_lbz %r7,10(%r1)
 245 01cc 00C7     		se_extzb %r7
 246 01ce 7CE6C070 		e_slwi %r6,%r7,24
 247 01d2 8971     		se_lbz %r7,9(%r1)
 248 01d4 00C7     		se_extzb %r7
 249 01d6 6C57     		se_slwi %r7, 5
 250 01d8 4467     		se_or %r7,%r6
 251 01da D571     		se_stw %r7,20(%r1)
 252              		.loc 1 156 0
 253 01dc CA71     		se_lwz %r7,40(%r1)
 254 01de 2A17     		se_cmpi %r7,1
 255 01e0 7F800020 		e_mcrf %cr7,%cr0
 256 01e4 7CE00026 		mfcr %r7
 257 01e8 74E7E007 		e_rlwinm %r7,%r7,28,0xf0000000
 258 01ec 7CE80120 		mtcrf 128,%r7
 259 01f0 7A02000E 		e_bne %cr0,.L21
 260              		.loc 1 157 0
 261 01f4 C571     		se_lwz %r7,20(%r1)
 262              	 # 157 "./components/spc58ecxx_platform_component_rla/lib/src/cache.c" 1
 263 01f6 7CFFEBA6 		mtspr 959, %r7
 264              	 # 0 "" 2
 265 01fa 7800000A 		e_b .L22
 266              	.L21:
 267              		.loc 1 159 0
 268 01fe C571     		se_lwz %r7,20(%r1)
 269              	 # 159 "./components/spc58ecxx_platform_component_rla/lib/src/cache.c" 1
 270 0200 7CF8FBA6 		mtspr 1016, %r7
 271              	 # 0 "" 2
 272              	.L22:
 273              		.loc 1 154 0 discriminator 2
 274 0204 8971     		se_lbz %r7,9(%r1)
 275 0206 00C7     		se_extzb %r7
 276 0208 2007     		se_addi %r7,1
 277 020a 9971     		se_stb %r7,9(%r1)
 278              	.L20:
 279              		.loc 1 154 0 is_stmt 0 discriminator 1
 280 020c 8971     		se_lbz %r7,9(%r1)
 281 020e 74E6063F 		e_rlwinm %r6,%r7,0,0xff
 282 0212 8871     		se_lbz %r7,8(%r1)
 283 0214 00C7     		se_extzb %r7
 284 0216 7F863840 		cmpl %cr7,%r6,%r7
 285 021a 7CE00026 		mfcr %r7
GAS LISTING C:\Users\bayra\AppData\Local\Temp\ccQzjoBV.s 			page 6


 286 021e 74E7E007 		e_rlwinm %r7,%r7,28,0xf0000000
 287 0222 7CE80120 		mtcrf 128,%r7
 288 0226 7A01FFA4 		e_ble %cr0,.L23
 289              		.loc 1 153 0 is_stmt 1 discriminator 2
 290 022a 8A71     		se_lbz %r7,10(%r1)
 291 022c 00C7     		se_extzb %r7
 292 022e 2007     		se_addi %r7,1
 293 0230 9A71     		se_stb %r7,10(%r1)
 294              	.L19:
 295              		.loc 1 153 0 is_stmt 0 discriminator 1
 296 0232 8A71     		se_lbz %r7,10(%r1)
 297 0234 00C7     		se_extzb %r7
 298 0236 2207     		se_cmpli %r7,1
 299 0238 7F800020 		e_mcrf %cr7,%cr0
 300 023c 7CE00026 		mfcr %r7
 301 0240 74E7E007 		e_rlwinm %r7,%r7,28,0xf0000000
 302 0244 7CE80120 		mtcrf 128,%r7
 303 0248 7A01FF7A 		e_ble %cr0,.L24
 304              	.L18:
 305              		.loc 1 164 0 is_stmt 1
 306 024c 30E1002C 		e_lbz %r7,44(%r1)
 307 0250 00C7     		se_extzb %r7
 308 0252 2A17     		se_cmpi %r7,1
 309 0254 7F800020 		e_mcrf %cr7,%cr0
 310 0258 7CE00026 		mfcr %r7
 311 025c 74E7E007 		e_rlwinm %r7,%r7,28,0xf0000000
 312 0260 7CE80120 		mtcrf 128,%r7
 313 0264 7A02002C 		e_bne %cr0,.L25
 314              		.loc 1 165 0
 315 0268 CA71     		se_lwz %r7,40(%r1)
 316 026a 2A17     		se_cmpi %r7,1
 317 026c 7F800020 		e_mcrf %cr7,%cr0
 318 0270 7CE00026 		mfcr %r7
 319 0274 74E7E007 		e_rlwinm %r7,%r7,28,0xf0000000
 320 0278 7CE80120 		mtcrf 128,%r7
 321 027c 7A02000E 		e_bne %cr0,.L26
 322              		.loc 1 165 0 is_stmt 0 discriminator 1
 323 0280 C671     		se_lwz %r7,24(%r1)
 324              	 # 165 "./components/spc58ecxx_platform_component_rla/lib/src/cache.c" 1
 325 0282 7CF3FBA6 		mtspr 1011, %r7
 326              	 # 0 "" 2
 327 0286 7800000A 		e_b .L25
 328              	.L26:
 329              		.loc 1 165 0 discriminator 2
 330 028a C671     		se_lwz %r7,24(%r1)
 331              	 # 165 "./components/spc58ecxx_platform_component_rla/lib/src/cache.c" 1
 332 028c 7CF2FBA6 		mtspr 1010, %r7
 333              	 # 0 "" 2
 334              	.L25:
 335              		.loc 1 168 0 is_stmt 1
 336 0290 C771     		se_lwz %r7,28(%r1)
 337              		.loc 1 169 0
 338 0292 0173     		se_mr %r3,%r7
 339 0294 18218030 		e_addi %r1,%r1,48
 340              	.LCFI1:
 341              		.cfi_def_cfa_offset 0
 342 0298 0004     		se_blr
GAS LISTING C:\Users\bayra\AppData\Local\Temp\ccQzjoBV.s 			page 7


 343              		.cfi_endproc
 344              	.LFE0:
 345              		.size	idc_invalidate, .-idc_invalidate
 346              		.section	.text.idc_enable,"axv",@progbits
 347              		.align 1
 348              		.p2align 4,,15
 349              		.type	idc_enable, @function
 350              	idc_enable:
 351              	.LFB1:
 352              		.loc 1 171 0
 353              		.cfi_startproc
 354 0000 182106E0 		e_stwu %r1,-32(%r1)
 355              	.LCFI2:
 356              		.cfi_def_cfa_offset 32
 357 0004 D631     		se_stw %r3,24(%r1)
 358 0006 D741     		se_stw %r4,28(%r1)
 359              		.loc 1 172 0
 360 0008 4807     		se_li %r7,0
 361 000a D271     		se_stw %r7,8(%r1)
 362              		.loc 1 175 0
 363 000c C671     		se_lwz %r7,24(%r1)
 364 000e 2A17     		se_cmpi %r7,1
 365 0010 7F800020 		e_mcrf %cr7,%cr0
 366 0014 7CE00026 		mfcr %r7
 367 0018 74E7E007 		e_rlwinm %r7,%r7,28,0xf0000000
 368 001c 7CE80120 		mtcrf 128,%r7
 369 0020 7A02000E 		e_bne %cr0,.L29
 370              		.loc 1 175 0 is_stmt 0 discriminator 1
 371              	 # 175 "./components/spc58ecxx_platform_component_rla/lib/src/cache.c" 1
 372 0024 7CF3FAA6 		mfspr %r7, 1011
 373              	 # 0 "" 2
 374 0028 D271     		se_stw %r7,8(%r1)
 375 002a 7800000A 		e_b .L30
 376              	.L29:
 377              		.loc 1 175 0 discriminator 2
 378              	 # 175 "./components/spc58ecxx_platform_component_rla/lib/src/cache.c" 1
 379 002e 7CF2FAA6 		mfspr %r7, 1010
 380              	 # 0 "" 2
 381 0032 D271     		se_stw %r7,8(%r1)
 382              	.L30:
 383              		.loc 1 176 0 is_stmt 1
 384 0034 C261     		se_lwz %r6,8(%r1)
 385 0036 C771     		se_lwz %r7,28(%r1)
 386 0038 4467     		se_or %r7,%r6
 387 003a D271     		se_stw %r7,8(%r1)
 388              		.loc 1 177 0
 389 003c C671     		se_lwz %r7,24(%r1)
 390 003e 2A17     		se_cmpi %r7,1
 391 0040 7F800020 		e_mcrf %cr7,%cr0
 392 0044 7CE00026 		mfcr %r7
 393 0048 74E7E007 		e_rlwinm %r7,%r7,28,0xf0000000
 394 004c 7CE80120 		mtcrf 128,%r7
 395 0050 7A02000E 		e_bne %cr0,.L31
 396              		.loc 1 177 0 is_stmt 0 discriminator 1
 397 0054 C271     		se_lwz %r7,8(%r1)
 398              	 # 177 "./components/spc58ecxx_platform_component_rla/lib/src/cache.c" 1
 399 0056 7CF3FBA6 		mtspr 1011, %r7
GAS LISTING C:\Users\bayra\AppData\Local\Temp\ccQzjoBV.s 			page 8


 400              	 # 0 "" 2
 401 005a 7800000A 		e_b .L28
 402              	.L31:
 403              		.loc 1 177 0 discriminator 2
 404 005e C271     		se_lwz %r7,8(%r1)
 405              	 # 177 "./components/spc58ecxx_platform_component_rla/lib/src/cache.c" 1
 406 0060 7CF2FBA6 		mtspr 1010, %r7
 407              	 # 0 "" 2
 408              	.L28:
 409              		.loc 1 178 0 is_stmt 1
 410 0064 21F1     		se_addi %r1,32
 411              	.LCFI3:
 412              		.cfi_def_cfa_offset 0
 413 0066 0004     		se_blr
 414              		.cfi_endproc
 415              	.LFE1:
 416              		.size	idc_enable, .-idc_enable
 417              		.section	.text.idc_disable,"axv",@progbits
 418              		.align 1
 419              		.p2align 4,,15
 420              		.type	idc_disable, @function
 421              	idc_disable:
 422              	.LFB2:
 423              		.loc 1 180 0
 424              		.cfi_startproc
 425 0000 182106E0 		e_stwu %r1,-32(%r1)
 426              	.LCFI4:
 427              		.cfi_def_cfa_offset 32
 428 0004 D631     		se_stw %r3,24(%r1)
 429              		.loc 1 181 0
 430 0006 4807     		se_li %r7,0
 431 0008 D271     		se_stw %r7,8(%r1)
 432              		.loc 1 186 0
 433 000a C671     		se_lwz %r7,24(%r1)
 434 000c 2A17     		se_cmpi %r7,1
 435 000e 7F800020 		e_mcrf %cr7,%cr0
 436 0012 7CE00026 		mfcr %r7
 437 0016 74E7E007 		e_rlwinm %r7,%r7,28,0xf0000000
 438 001a 7CE80120 		mtcrf 128,%r7
 439 001e 7A02000E 		e_bne %cr0,.L34
 440              		.loc 1 186 0 is_stmt 0 discriminator 1
 441              	 # 186 "./components/spc58ecxx_platform_component_rla/lib/src/cache.c" 1
 442 0022 7CF3FAA6 		mfspr %r7, 1011
 443              	 # 0 "" 2
 444 0026 D271     		se_stw %r7,8(%r1)
 445 0028 7800000A 		e_b .L35
 446              	.L34:
 447              		.loc 1 186 0 discriminator 2
 448              	 # 186 "./components/spc58ecxx_platform_component_rla/lib/src/cache.c" 1
 449 002c 7CF2FAA6 		mfspr %r7, 1010
 450              	 # 0 "" 2
 451 0030 D271     		se_stw %r7,8(%r1)
 452              	.L35:
 453              		.loc 1 187 0 is_stmt 1
 454 0032 C271     		se_lwz %r7,8(%r1)
 455 0034 61F7     		se_bclri %r7,31
 456 0036 D271     		se_stw %r7,8(%r1)
GAS LISTING C:\Users\bayra\AppData\Local\Temp\ccQzjoBV.s 			page 9


 457              		.loc 1 188 0
 458 0038 C671     		se_lwz %r7,24(%r1)
 459 003a 2A17     		se_cmpi %r7,1
 460 003c 7F800020 		e_mcrf %cr7,%cr0
 461 0040 7CE00026 		mfcr %r7
 462 0044 74E7E007 		e_rlwinm %r7,%r7,28,0xf0000000
 463 0048 7CE80120 		mtcrf 128,%r7
 464 004c 7A02000E 		e_bne %cr0,.L36
 465              		.loc 1 188 0 is_stmt 0 discriminator 1
 466 0050 C271     		se_lwz %r7,8(%r1)
 467              	 # 188 "./components/spc58ecxx_platform_component_rla/lib/src/cache.c" 1
 468 0052 7CF3FBA6 		mtspr 1011, %r7
 469              	 # 0 "" 2
 470 0056 7800000A 		e_b .L33
 471              	.L36:
 472              		.loc 1 188 0 discriminator 2
 473 005a C271     		se_lwz %r7,8(%r1)
 474              	 # 188 "./components/spc58ecxx_platform_component_rla/lib/src/cache.c" 1
 475 005c 7CF2FBA6 		mtspr 1010, %r7
 476              	 # 0 "" 2
 477              	.L33:
 478              		.loc 1 189 0 is_stmt 1
 479 0060 21F1     		se_addi %r1,32
 480              	.LCFI5:
 481              		.cfi_def_cfa_offset 0
 482 0062 0004     		se_blr
 483              		.cfi_endproc
 484              	.LFE2:
 485              		.size	idc_disable, .-idc_disable
 486              		.section	.text.idc_exist,"axv",@progbits
 487              		.align 1
 488              		.p2align 4,,15
 489              		.type	idc_exist, @function
 490              	idc_exist:
 491              	.LFB3:
 492              		.loc 1 191 0
 493              		.cfi_startproc
 494 0000 182106F0 		e_stwu %r1,-16(%r1)
 495              	.LCFI6:
 496              		.cfi_def_cfa_offset 16
 497 0004 0080     		se_mflr %r0
 498 0006 D501     		se_stw %r0,20(%r1)
 499              		.cfi_offset 65, 4
 500 0008 D231     		se_stw %r3,8(%r1)
 501              		.loc 1 192 0
 502 000a C271     		se_lwz %r7,8(%r1)
 503 000c 2A17     		se_cmpi %r7,1
 504 000e 7F800020 		e_mcrf %cr7,%cr0
 505 0012 7CE00026 		mfcr %r7
 506 0016 74E7E007 		e_rlwinm %r7,%r7,28,0xf0000000
 507 001a 7CE80120 		mtcrf 128,%r7
 508 001e 7A020028 		e_bne %cr0,.L39
 509              		.loc 1 193 0
 510 0022 4803     		se_li %r3,0
 511 0024 78000001 		e_bl cache_get_cfg
 512 0028 0137     		se_mr %r7,%r3
 513 002a 2A07     		se_cmpi %r7,0
GAS LISTING C:\Users\bayra\AppData\Local\Temp\ccQzjoBV.s 			page 10


 514 002c 7F800020 		e_mcrf %cr7,%cr0
 515 0030 7CE00026 		mfcr %r7
 516 0034 74E7E007 		e_rlwinm %r7,%r7,28,0xf0000000
 517 0038 7CE80120 		mtcrf 128,%r7
 518 003c 7A02002E 		e_bne %cr0,.L40
 519              		.loc 1 194 0
 520 0040 4817     		se_li %r7,1
 521 0042 7800002A 		e_b .L41
 522              	.L39:
 523              		.loc 1 196 0
 524 0046 4813     		se_li %r3,1
 525 0048 78000001 		e_bl cache_get_cfg
 526 004c 0137     		se_mr %r7,%r3
 527 004e 2A07     		se_cmpi %r7,0
 528 0050 7F800020 		e_mcrf %cr7,%cr0
 529 0054 7CE00026 		mfcr %r7
 530 0058 74E7E007 		e_rlwinm %r7,%r7,28,0xf0000000
 531 005c 7CE80120 		mtcrf 128,%r7
 532 0060 7A02000A 		e_bne %cr0,.L40
 533              		.loc 1 197 0
 534 0064 4817     		se_li %r7,1
 535 0066 78000006 		e_b .L41
 536              	.L40:
 537              		.loc 1 199 0
 538 006a 4807     		se_li %r7,0
 539              	.L41:
 540              		.loc 1 200 0
 541 006c 0173     		se_mr %r3,%r7
 542 006e C501     		se_lwz %r0,20(%r1)
 543 0070 0090     		se_mtlr %r0
 544 0072 20F1     		se_addi %r1,16
 545              	.LCFI7:
 546              		.cfi_def_cfa_offset 0
 547 0074 0004     		se_blr
 548              		.cfi_endproc
 549              	.LFE3:
 550              		.size	idc_exist, .-idc_exist
 551              		.section	.text.cache_get_status,"axv",@progbits
 552              		.align 1
 553              		.p2align 4,,15
 554              		.globl cache_get_status
 555              		.type	cache_get_status, @function
 556              	cache_get_status:
 557              	.LFB4:
 558              		.loc 1 214 0
 559              		.cfi_startproc
 560 0000 182106E0 		e_stwu %r1,-32(%r1)
 561              	.LCFI8:
 562              		.cfi_def_cfa_offset 32
 563 0004 0080     		se_mflr %r0
 564 0006 D901     		se_stw %r0,36(%r1)
 565              		.cfi_offset 65, 4
 566 0008 D631     		se_stw %r3,24(%r1)
 567              		.loc 1 215 0
 568 000a 4807     		se_li %r7,0
 569 000c D271     		se_stw %r7,8(%r1)
 570              		.loc 1 217 0
GAS LISTING C:\Users\bayra\AppData\Local\Temp\ccQzjoBV.s 			page 11


 571 000e C631     		se_lwz %r3,24(%r1)
 572 0010 78000001 		e_bl idc_exist
 573 0014 0137     		se_mr %r7,%r3
 574 0016 2A07     		se_cmpi %r7,0
 575 0018 7F800020 		e_mcrf %cr7,%cr0
 576 001c 7CE00026 		mfcr %r7
 577 0020 74E7E007 		e_rlwinm %r7,%r7,28,0xf0000000
 578 0024 7CE80120 		mtcrf 128,%r7
 579 0028 7A12000A 		e_beq %cr0,.L43
 580              		.loc 1 218 0
 581 002c C271     		se_lwz %r7,8(%r1)
 582 002e 78000034 		e_b .L44
 583              	.L43:
 584              		.loc 1 220 0
 585 0032 C671     		se_lwz %r7,24(%r1)
 586 0034 2A17     		se_cmpi %r7,1
 587 0036 7F800020 		e_mcrf %cr7,%cr0
 588 003a 7CE00026 		mfcr %r7
 589 003e 74E7E007 		e_rlwinm %r7,%r7,28,0xf0000000
 590 0042 7CE80120 		mtcrf 128,%r7
 591 0046 7A020012 		e_bne %cr0,.L45
 592              		.loc 1 221 0
 593              	 # 221 "./components/spc58ecxx_platform_component_rla/lib/src/cache.c" 1
 594 004a 7CF3FAA6 		mfspr %r7, 1011
 595              	 # 0 "" 2
 596 004e D271     		se_stw %r7,8(%r1)
 597              		.loc 1 222 0
 598 0050 C271     		se_lwz %r7,8(%r1)
 599 0052 2E17     		se_andi %r7,1
 600 0054 7800000E 		e_b .L44
 601              	.L45:
 602              		.loc 1 224 0
 603              	 # 224 "./components/spc58ecxx_platform_component_rla/lib/src/cache.c" 1
 604 0058 7CF2FAA6 		mfspr %r7, 1010
 605              	 # 0 "" 2
 606 005c D271     		se_stw %r7,8(%r1)
 607              		.loc 1 225 0
 608 005e C271     		se_lwz %r7,8(%r1)
 609 0060 2E17     		se_andi %r7,1
 610              	.L44:
 611              		.loc 1 226 0
 612 0062 0173     		se_mr %r3,%r7
 613 0064 C901     		se_lwz %r0,36(%r1)
 614 0066 0090     		se_mtlr %r0
 615 0068 21F1     		se_addi %r1,32
 616              	.LCFI9:
 617              		.cfi_def_cfa_offset 0
 618 006a 0004     		se_blr
 619              		.cfi_endproc
 620              	.LFE4:
 621              		.size	cache_get_status, .-cache_get_status
 622              		.section	.text.cache_enable,"axv",@progbits
 623              		.align 1
 624              		.p2align 4,,15
 625              		.globl cache_enable
 626              		.type	cache_enable, @function
 627              	cache_enable:
GAS LISTING C:\Users\bayra\AppData\Local\Temp\ccQzjoBV.s 			page 12


 628              	.LFB5:
 629              		.loc 1 237 0
 630              		.cfi_startproc
 631 0000 182106E0 		e_stwu %r1,-32(%r1)
 632              	.LCFI10:
 633              		.cfi_def_cfa_offset 32
 634 0004 0080     		se_mflr %r0
 635 0006 D901     		se_stw %r0,36(%r1)
 636              		.cfi_offset 65, 4
 637 0008 D631     		se_stw %r3,24(%r1)
 638              		.loc 1 238 0
 639 000a 4807     		se_li %r7,0
 640 000c D271     		se_stw %r7,8(%r1)
 641              		.loc 1 240 0
 642 000e C631     		se_lwz %r3,24(%r1)
 643 0010 78000001 		e_bl idc_exist
 644 0014 D231     		se_stw %r3,8(%r1)
 645 0016 C271     		se_lwz %r7,8(%r1)
 646 0018 2A07     		se_cmpi %r7,0
 647 001a 7F800020 		e_mcrf %cr7,%cr0
 648 001e 7CE00026 		mfcr %r7
 649 0022 74E7E007 		e_rlwinm %r7,%r7,28,0xf0000000
 650 0026 7CE80120 		mtcrf 128,%r7
 651 002a 7A12000A 		e_beq %cr0,.L47
 652              		.loc 1 241 0
 653 002e C271     		se_lwz %r7,8(%r1)
 654 0030 7800004A 		e_b .L48
 655              	.L47:
 656              		.loc 1 243 0
 657 0034 70E00201 		e_li %r7,513
 658              	 # 243 "./components/spc58ecxx_platform_component_rla/lib/src/cache.c" 1
 659 0038 7CF5FBA6 		mtspr 1013, %r7
 660              	 # 0 "" 2
 661              		.loc 1 247 0
 662              	 # 247 "./components/spc58ecxx_platform_component_rla/lib/src/cache.c" 1
 663 003c 4C00012C 		isync
 664              	 # 0 "" 2
 665              	 # 247 "./components/spc58ecxx_platform_component_rla/lib/src/cache.c" 1
 666 0040 7C0004AC 		msync
 667              	 # 0 "" 2
 668              		.loc 1 250 0
 669 0044 C631     		se_lwz %r3,24(%r1)
 670 0046 4814     		se_li %r4,1
 671 0048 78000001 		e_bl idc_invalidate
 672              		.loc 1 251 0
 673 004c C671     		se_lwz %r7,24(%r1)
 674 004e 2A17     		se_cmpi %r7,1
 675 0050 7F800020 		e_mcrf %cr7,%cr0
 676 0054 7CE00026 		mfcr %r7
 677 0058 74E7E007 		e_rlwinm %r7,%r7,28,0xf0000000
 678 005c 7CE80120 		mtcrf 128,%r7
 679 0060 7A020010 		e_bne %cr0,.L49
 680              		.loc 1 252 0
 681 0064 C631     		se_lwz %r3,24(%r1)
 682 0066 4814     		se_li %r4,1
 683 0068 78000001 		e_bl idc_enable
 684 006c 7800000C 		e_b .L50
GAS LISTING C:\Users\bayra\AppData\Local\Temp\ccQzjoBV.s 			page 13


 685              	.L49:
 686              		.loc 1 254 0
 687 0070 C631     		se_lwz %r3,24(%r1)
 688 0072 4814     		se_li %r4,1
 689 0074 78000001 		e_bl idc_enable
 690              	.L50:
 691              		.loc 1 257 0
 692 0078 C271     		se_lwz %r7,8(%r1)
 693              	.L48:
 694              		.loc 1 258 0
 695 007a 0173     		se_mr %r3,%r7
 696 007c C901     		se_lwz %r0,36(%r1)
 697 007e 0090     		se_mtlr %r0
 698 0080 21F1     		se_addi %r1,32
 699              	.LCFI11:
 700              		.cfi_def_cfa_offset 0
 701 0082 0004     		se_blr
 702              		.cfi_endproc
 703              	.LFE5:
 704              		.size	cache_enable, .-cache_enable
 705              		.section	.text.cache_set_control,"axv",@progbits
 706              		.align 1
 707              		.p2align 4,,15
 708              		.globl cache_set_control
 709              		.type	cache_set_control, @function
 710              	cache_set_control:
 711              	.LFB6:
 712              		.loc 1 270 0
 713              		.cfi_startproc
 714 0000 182106E0 		e_stwu %r1,-32(%r1)
 715              	.LCFI12:
 716              		.cfi_def_cfa_offset 32
 717 0004 0080     		se_mflr %r0
 718 0006 D901     		se_stw %r0,36(%r1)
 719              		.cfi_offset 65, 4
 720 0008 D631     		se_stw %r3,24(%r1)
 721 000a D741     		se_stw %r4,28(%r1)
 722              		.loc 1 271 0
 723 000c 4807     		se_li %r7,0
 724 000e D271     		se_stw %r7,8(%r1)
 725              		.loc 1 273 0
 726 0010 C631     		se_lwz %r3,24(%r1)
 727 0012 78000001 		e_bl idc_exist
 728 0016 D231     		se_stw %r3,8(%r1)
 729 0018 C271     		se_lwz %r7,8(%r1)
 730 001a 2A07     		se_cmpi %r7,0
 731 001c 7F800020 		e_mcrf %cr7,%cr0
 732 0020 7CE00026 		mfcr %r7
 733 0024 74E7E007 		e_rlwinm %r7,%r7,28,0xf0000000
 734 0028 7CE80120 		mtcrf 128,%r7
 735 002c 7A12000A 		e_beq %cr0,.L52
 736              		.loc 1 274 0
 737 0030 C271     		se_lwz %r7,8(%r1)
 738 0032 78000048 		e_b .L53
 739              	.L52:
 740              		.loc 1 276 0
 741 0036 70E00201 		e_li %r7,513
GAS LISTING C:\Users\bayra\AppData\Local\Temp\ccQzjoBV.s 			page 14


 742              	 # 276 "./components/spc58ecxx_platform_component_rla/lib/src/cache.c" 1
 743 003a 7CF5FBA6 		mtspr 1013, %r7
 744              	 # 0 "" 2
 745              		.loc 1 280 0
 746              	 # 280 "./components/spc58ecxx_platform_component_rla/lib/src/cache.c" 1
 747 003e 4C00012C 		isync
 748              	 # 0 "" 2
 749              	 # 280 "./components/spc58ecxx_platform_component_rla/lib/src/cache.c" 1
 750 0042 7C0004AC 		msync
 751              	 # 0 "" 2
 752              		.loc 1 282 0
 753 0046 C631     		se_lwz %r3,24(%r1)
 754 0048 4814     		se_li %r4,1
 755 004a 78000001 		e_bl idc_invalidate
 756 004e D231     		se_stw %r3,8(%r1)
 757              		.loc 1 283 0
 758 0050 C671     		se_lwz %r7,24(%r1)
 759 0052 2A17     		se_cmpi %r7,1
 760 0054 7F800020 		e_mcrf %cr7,%cr0
 761 0058 7CE00026 		mfcr %r7
 762 005c 74E7E007 		e_rlwinm %r7,%r7,28,0xf0000000
 763 0060 7CE80120 		mtcrf 128,%r7
 764 0064 7A02000E 		e_bne %cr0,.L54
 765              		.loc 1 283 0 is_stmt 0 discriminator 1
 766 0068 C771     		se_lwz %r7,28(%r1)
 767              	 # 283 "./components/spc58ecxx_platform_component_rla/lib/src/cache.c" 1
 768 006a 7CF3FBA6 		mtspr 1011, %r7
 769              	 # 0 "" 2
 770 006e 7800000A 		e_b .L55
 771              	.L54:
 772              		.loc 1 283 0 discriminator 2
 773 0072 C771     		se_lwz %r7,28(%r1)
 774              	 # 283 "./components/spc58ecxx_platform_component_rla/lib/src/cache.c" 1
 775 0074 7CF2FBA6 		mtspr 1010, %r7
 776              	 # 0 "" 2
 777              	.L55:
 778              		.loc 1 285 0 is_stmt 1
 779 0078 C271     		se_lwz %r7,8(%r1)
 780              	.L53:
 781              		.loc 1 286 0
 782 007a 0173     		se_mr %r3,%r7
 783 007c C901     		se_lwz %r0,36(%r1)
 784 007e 0090     		se_mtlr %r0
 785 0080 21F1     		se_addi %r1,32
 786              	.LCFI13:
 787              		.cfi_def_cfa_offset 0
 788 0082 0004     		se_blr
 789              		.cfi_endproc
 790              	.LFE6:
 791              		.size	cache_set_control, .-cache_set_control
 792              		.section	.text.cache_disable,"axv",@progbits
 793              		.align 1
 794              		.p2align 4,,15
 795              		.globl cache_disable
 796              		.type	cache_disable, @function
 797              	cache_disable:
 798              	.LFB7:
GAS LISTING C:\Users\bayra\AppData\Local\Temp\ccQzjoBV.s 			page 15


 799              		.loc 1 297 0
 800              		.cfi_startproc
 801 0000 182106E0 		e_stwu %r1,-32(%r1)
 802              	.LCFI14:
 803              		.cfi_def_cfa_offset 32
 804 0004 0080     		se_mflr %r0
 805 0006 D901     		se_stw %r0,36(%r1)
 806              		.cfi_offset 65, 4
 807 0008 D631     		se_stw %r3,24(%r1)
 808              		.loc 1 298 0
 809 000a 4807     		se_li %r7,0
 810 000c D271     		se_stw %r7,8(%r1)
 811              		.loc 1 300 0
 812 000e C631     		se_lwz %r3,24(%r1)
 813 0010 78000001 		e_bl idc_exist
 814 0014 D231     		se_stw %r3,8(%r1)
 815 0016 C271     		se_lwz %r7,8(%r1)
 816 0018 2A07     		se_cmpi %r7,0
 817 001a 7F800020 		e_mcrf %cr7,%cr0
 818 001e 7CE00026 		mfcr %r7
 819 0022 74E7E007 		e_rlwinm %r7,%r7,28,0xf0000000
 820 0026 7CE80120 		mtcrf 128,%r7
 821 002a 7A12000A 		e_beq %cr0,.L57
 822              		.loc 1 301 0
 823 002e C271     		se_lwz %r7,8(%r1)
 824 0030 78000026 		e_b .L58
 825              	.L57:
 826              		.loc 1 303 0
 827 0034 70E00201 		e_li %r7,513
 828              	 # 303 "./components/spc58ecxx_platform_component_rla/lib/src/cache.c" 1
 829 0038 7CF5FBA6 		mtspr 1013, %r7
 830              	 # 0 "" 2
 831              		.loc 1 307 0
 832              	 # 307 "./components/spc58ecxx_platform_component_rla/lib/src/cache.c" 1
 833 003c 4C00012C 		isync
 834              	 # 0 "" 2
 835              	 # 307 "./components/spc58ecxx_platform_component_rla/lib/src/cache.c" 1
 836 0040 7C0004AC 		msync
 837              	 # 0 "" 2
 838              		.loc 1 309 0
 839 0044 C631     		se_lwz %r3,24(%r1)
 840 0046 4814     		se_li %r4,1
 841 0048 78000001 		e_bl idc_invalidate
 842 004c D231     		se_stw %r3,8(%r1)
 843              		.loc 1 310 0
 844 004e C631     		se_lwz %r3,24(%r1)
 845 0050 78000001 		e_bl idc_disable
 846              		.loc 1 312 0
 847 0054 C271     		se_lwz %r7,8(%r1)
 848              	.L58:
 849              		.loc 1 313 0
 850 0056 0173     		se_mr %r3,%r7
 851 0058 C901     		se_lwz %r0,36(%r1)
 852 005a 0090     		se_mtlr %r0
 853 005c 21F1     		se_addi %r1,32
 854              	.LCFI15:
 855              		.cfi_def_cfa_offset 0
GAS LISTING C:\Users\bayra\AppData\Local\Temp\ccQzjoBV.s 			page 16


 856 005e 0004     		se_blr
 857              		.cfi_endproc
 858              	.LFE7:
 859              		.size	cache_disable, .-cache_disable
 860              		.section	.text.cache_get_cfg,"axv",@progbits
 861              		.align 1
 862              		.p2align 4,,15
 863              		.globl cache_get_cfg
 864              		.type	cache_get_cfg, @function
 865              	cache_get_cfg:
 866              	.LFB8:
 867              		.loc 1 324 0
 868              		.cfi_startproc
 869 0000 182106E0 		e_stwu %r1,-32(%r1)
 870              	.LCFI16:
 871              		.cfi_def_cfa_offset 32
 872 0004 D631     		se_stw %r3,24(%r1)
 873              		.loc 1 325 0
 874 0006 4807     		se_li %r7,0
 875 0008 D271     		se_stw %r7,8(%r1)
 876              		.loc 1 327 0
 877 000a 70E00201 		e_li %r7,513
 878              	 # 327 "./components/spc58ecxx_platform_component_rla/lib/src/cache.c" 1
 879 000e 7CF5FBA6 		mtspr 1013, %r7
 880              	 # 0 "" 2
 881              		.loc 1 328 0
 882 0012 C671     		se_lwz %r7,24(%r1)
 883 0014 2A07     		se_cmpi %r7,0
 884 0016 7F800020 		e_mcrf %cr7,%cr0
 885 001a 7CE00026 		mfcr %r7
 886 001e 74E7E007 		e_rlwinm %r7,%r7,28,0xf0000000
 887 0022 7CE80120 		mtcrf 128,%r7
 888 0026 7A02000E 		e_bne %cr0,.L60
 889              		.loc 1 329 0
 890              	 # 329 "./components/spc58ecxx_platform_component_rla/lib/src/cache.c" 1
 891 002a 7CE482A6 		mfspr %r7, 516
 892              	 # 0 "" 2
 893 002e D271     		se_stw %r7,8(%r1)
 894 0030 7800000A 		e_b .L61
 895              	.L60:
 896              		.loc 1 331 0
 897              	 # 331 "./components/spc58ecxx_platform_component_rla/lib/src/cache.c" 1
 898 0034 7CE382A6 		mfspr %r7, 515
 899              	 # 0 "" 2
 900 0038 D271     		se_stw %r7,8(%r1)
 901              	.L61:
 902              		.loc 1 334 0
 903 003a C671     		se_lwz %r7,24(%r1)
 904 003c 2207     		se_cmpli %r7,1
 905 003e 7F800020 		e_mcrf %cr7,%cr0
 906 0042 7CE00026 		mfcr %r7
 907 0046 74E7E007 		e_rlwinm %r7,%r7,28,0xf0000000
 908 004a 7CE80120 		mtcrf 128,%r7
 909 004e 7A110010 		e_bgt %cr0,.L62
 910              		.loc 1 337 0
 911 0052 C271     		se_lwz %r7,8(%r1)
 912 0054 74E7057F 		e_rlwinm %r7,%r7,0,21,31
GAS LISTING C:\Users\bayra\AppData\Local\Temp\ccQzjoBV.s 			page 17


 913 0058 D271     		se_stw %r7,8(%r1)
 914              		.loc 1 338 0
 915 005a 78000008 		e_b .L64
 916              	.L62:
 917              		.loc 1 340 0
 918 005e 4807     		se_li %r7,0
 919 0060 D271     		se_stw %r7,8(%r1)
 920              	.L64:
 921              		.loc 1 342 0
 922 0062 C271     		se_lwz %r7,8(%r1)
 923              		.loc 1 343 0
 924 0064 0173     		se_mr %r3,%r7
 925 0066 21F1     		se_addi %r1,32
 926              	.LCFI17:
 927              		.cfi_def_cfa_offset 0
 928 0068 0004     		se_blr
 929              		.cfi_endproc
 930              	.LFE8:
 931              		.size	cache_get_cfg, .-cache_get_cfg
 932              		.section	.text.cache_invalidate,"axv",@progbits
 933              		.align 1
 934              		.p2align 4,,15
 935              		.globl cache_invalidate
 936              		.type	cache_invalidate, @function
 937              	cache_invalidate:
 938              	.LFB9:
 939              		.loc 1 354 0
 940              		.cfi_startproc
 941 0000 182106E0 		e_stwu %r1,-32(%r1)
 942              	.LCFI18:
 943              		.cfi_def_cfa_offset 32
 944 0004 0080     		se_mflr %r0
 945 0006 D901     		se_stw %r0,36(%r1)
 946              		.cfi_offset 65, 4
 947 0008 D631     		se_stw %r3,24(%r1)
 948              		.loc 1 355 0
 949 000a 4807     		se_li %r7,0
 950 000c D271     		se_stw %r7,8(%r1)
 951              		.loc 1 357 0
 952 000e C631     		se_lwz %r3,24(%r1)
 953 0010 78000001 		e_bl idc_exist
 954 0014 D231     		se_stw %r3,8(%r1)
 955 0016 C271     		se_lwz %r7,8(%r1)
 956 0018 2A07     		se_cmpi %r7,0
 957 001a 7F800020 		e_mcrf %cr7,%cr0
 958 001e 7CE00026 		mfcr %r7
 959 0022 74E7E007 		e_rlwinm %r7,%r7,28,0xf0000000
 960 0026 7CE80120 		mtcrf 128,%r7
 961 002a 7A12000A 		e_beq %cr0,.L67
 962              		.loc 1 358 0
 963 002e C271     		se_lwz %r7,8(%r1)
 964 0030 78000020 		e_b .L68
 965              	.L67:
 966              		.loc 1 360 0
 967 0034 70E00201 		e_li %r7,513
 968              	 # 360 "./components/spc58ecxx_platform_component_rla/lib/src/cache.c" 1
 969 0038 7CF5FBA6 		mtspr 1013, %r7
GAS LISTING C:\Users\bayra\AppData\Local\Temp\ccQzjoBV.s 			page 18


 970              	 # 0 "" 2
 971              		.loc 1 363 0
 972              	 # 363 "./components/spc58ecxx_platform_component_rla/lib/src/cache.c" 1
 973 003c 4C00012C 		isync
 974              	 # 0 "" 2
 975              	 # 363 "./components/spc58ecxx_platform_component_rla/lib/src/cache.c" 1
 976 0040 7C0004AC 		msync
 977              	 # 0 "" 2
 978              		.loc 1 366 0
 979 0044 C631     		se_lwz %r3,24(%r1)
 980 0046 4814     		se_li %r4,1
 981 0048 78000001 		e_bl idc_invalidate
 982 004c D231     		se_stw %r3,8(%r1)
 983              		.loc 1 368 0
 984 004e C271     		se_lwz %r7,8(%r1)
 985              	.L68:
 986              		.loc 1 369 0
 987 0050 0173     		se_mr %r3,%r7
 988 0052 C901     		se_lwz %r0,36(%r1)
 989 0054 0090     		se_mtlr %r0
 990 0056 21F1     		se_addi %r1,32
 991              	.LCFI19:
 992              		.cfi_def_cfa_offset 0
 993 0058 0004     		se_blr
 994              		.cfi_endproc
 995              	.LFE9:
 996              		.size	cache_invalidate, .-cache_invalidate
 997              		.section	.text.cache_flush_range,"axv",@progbits
 998              		.align 1
 999              		.p2align 4,,15
 1000              		.globl cache_flush_range
 1001              		.type	cache_flush_range, @function
 1002              	cache_flush_range:
 1003              	.LFB10:
 1004              		.loc 1 381 0
 1005              		.cfi_startproc
 1006 0000 182106E0 		e_stwu %r1,-32(%r1)
 1007              	.LCFI20:
 1008              		.cfi_def_cfa_offset 32
 1009 0004 D631     		se_stw %r3,24(%r1)
 1010 0006 0147     		se_mr %r7,%r4
 1011 0008 BE71     		se_sth %r7,28(%r1)
 1012              		.loc 1 383 0
 1013 000a 4807     		se_li %r7,0
 1014 000c D371     		se_stw %r7,12(%r1)
 1015              		.loc 1 385 0
 1016              	 # 385 "./components/spc58ecxx_platform_component_rla/lib/src/cache.c" 1
 1017 000e 7CF2FAA6 		mfspr %r7, 1010
 1018              	 # 0 "" 2
 1019 0012 D371     		se_stw %r7,12(%r1)
 1020              		.loc 1 386 0
 1021 0014 C371     		se_lwz %r7,12(%r1)
 1022 0016 2E17     		se_andi %r7,1
 1023 0018 2A07     		se_cmpi %r7,0
 1024 001a 7F800020 		e_mcrf %cr7,%cr0
 1025 001e 7CE00026 		mfcr %r7
 1026 0022 74E7E007 		e_rlwinm %r7,%r7,28,0xf0000000
GAS LISTING C:\Users\bayra\AppData\Local\Temp\ccQzjoBV.s 			page 19


 1027 0026 7CE80120 		mtcrf 128,%r7
 1028 002a 7A02000A 		e_bne %cr0,.L70
 1029              		.loc 1 387 0
 1030 002e 4817     		se_li %r7,1
 1031 0030 7800003A 		e_b .L71
 1032              	.L70:
 1033              		.loc 1 389 0
 1034 0034 C671     		se_lwz %r7,24(%r1)
 1035 0036 D271     		se_stw %r7,8(%r1)
 1036 0038 78000010 		e_b .L72
 1037              	.L73:
 1038              		.loc 1 390 0 discriminator 3
 1039 003c C271     		se_lwz %r7,8(%r1)
 1040              	 # 390 "./components/spc58ecxx_platform_component_rla/lib/src/cache.c" 1
 1041 003e 7C0038AC 		dcbf 0, %r7
 1042              	 # 0 "" 2
 1043              		.loc 1 389 0 discriminator 3
 1044 0042 C271     		se_lwz %r7,8(%r1)
 1045 0044 2037     		se_addi %r7,4
 1046 0046 D271     		se_stw %r7,8(%r1)
 1047              	.L72:
 1048              		.loc 1 389 0 is_stmt 0 discriminator 1
 1049 0048 AE71     		se_lhz %r7,28(%r1)
 1050 004a 74E6043F 		e_rlwinm %r6,%r7,0,0xffff
 1051 004e C671     		se_lwz %r7,24(%r1)
 1052 0050 0476     		se_add %r6,%r7
 1053 0052 C271     		se_lwz %r7,8(%r1)
 1054 0054 7F863840 		cmpl %cr7,%r6,%r7
 1055 0058 7CE00026 		mfcr %r7
 1056 005c 74E7E007 		e_rlwinm %r7,%r7,28,0xf0000000
 1057 0060 7CE80120 		mtcrf 128,%r7
 1058 0064 7A11FFD8 		e_bgt %cr0,.L73
 1059              		.loc 1 392 0 is_stmt 1
 1060 0068 4807     		se_li %r7,0
 1061              	.L71:
 1062              		.loc 1 393 0
 1063 006a 0173     		se_mr %r3,%r7
 1064 006c 21F1     		se_addi %r1,32
 1065              	.LCFI21:
 1066              		.cfi_def_cfa_offset 0
 1067 006e 0004     		se_blr
 1068              		.cfi_endproc
 1069              	.LFE10:
 1070              		.size	cache_flush_range, .-cache_flush_range
 1071              		.section	.text.cache_invalidate_range,"axv",@progbits
 1072              		.align 1
 1073              		.p2align 4,,15
 1074              		.globl cache_invalidate_range
 1075              		.type	cache_invalidate_range, @function
 1076              	cache_invalidate_range:
 1077              	.LFB11:
 1078              		.loc 1 405 0
 1079              		.cfi_startproc
 1080 0000 182106E0 		e_stwu %r1,-32(%r1)
 1081              	.LCFI22:
 1082              		.cfi_def_cfa_offset 32
 1083 0004 D631     		se_stw %r3,24(%r1)
GAS LISTING C:\Users\bayra\AppData\Local\Temp\ccQzjoBV.s 			page 20


 1084 0006 0147     		se_mr %r7,%r4
 1085 0008 BE71     		se_sth %r7,28(%r1)
 1086              		.loc 1 407 0
 1087 000a 4807     		se_li %r7,0
 1088 000c D371     		se_stw %r7,12(%r1)
 1089              		.loc 1 409 0
 1090              	 # 409 "./components/spc58ecxx_platform_component_rla/lib/src/cache.c" 1
 1091 000e 7CF2FAA6 		mfspr %r7, 1010
 1092              	 # 0 "" 2
 1093 0012 D371     		se_stw %r7,12(%r1)
 1094              		.loc 1 410 0
 1095 0014 C371     		se_lwz %r7,12(%r1)
 1096 0016 2E17     		se_andi %r7,1
 1097 0018 2A07     		se_cmpi %r7,0
 1098 001a 7F800020 		e_mcrf %cr7,%cr0
 1099 001e 7CE00026 		mfcr %r7
 1100 0022 74E7E007 		e_rlwinm %r7,%r7,28,0xf0000000
 1101 0026 7CE80120 		mtcrf 128,%r7
 1102 002a 7A02000A 		e_bne %cr0,.L75
 1103              		.loc 1 411 0
 1104 002e 4817     		se_li %r7,1
 1105 0030 7800004A 		e_b .L76
 1106              	.L75:
 1107              		.loc 1 413 0
 1108 0034 70E00201 		e_li %r7,513
 1109              	 # 413 "./components/spc58ecxx_platform_component_rla/lib/src/cache.c" 1
 1110 0038 7CF5FBA6 		mtspr 1013, %r7
 1111              	 # 0 "" 2
 1112              		.loc 1 416 0
 1113              	 # 416 "./components/spc58ecxx_platform_component_rla/lib/src/cache.c" 1
 1114 003c 4C00012C 		isync
 1115              	 # 0 "" 2
 1116              	 # 416 "./components/spc58ecxx_platform_component_rla/lib/src/cache.c" 1
 1117 0040 7C0004AC 		msync
 1118              	 # 0 "" 2
 1119              		.loc 1 418 0
 1120 0044 C671     		se_lwz %r7,24(%r1)
 1121 0046 D271     		se_stw %r7,8(%r1)
 1122 0048 78000010 		e_b .L77
 1123              	.L78:
 1124              		.loc 1 419 0 discriminator 3
 1125 004c C271     		se_lwz %r7,8(%r1)
 1126              	 # 419 "./components/spc58ecxx_platform_component_rla/lib/src/cache.c" 1
 1127 004e 7C003BAC 		dcbi 0, %r7
 1128              	 # 0 "" 2
 1129              		.loc 1 418 0 discriminator 3
 1130 0052 C271     		se_lwz %r7,8(%r1)
 1131 0054 2037     		se_addi %r7,4
 1132 0056 D271     		se_stw %r7,8(%r1)
 1133              	.L77:
 1134              		.loc 1 418 0 is_stmt 0 discriminator 1
 1135 0058 AE71     		se_lhz %r7,28(%r1)
 1136 005a 74E6043F 		e_rlwinm %r6,%r7,0,0xffff
 1137 005e C671     		se_lwz %r7,24(%r1)
 1138 0060 0476     		se_add %r6,%r7
 1139 0062 C271     		se_lwz %r7,8(%r1)
 1140 0064 7F863840 		cmpl %cr7,%r6,%r7
GAS LISTING C:\Users\bayra\AppData\Local\Temp\ccQzjoBV.s 			page 21


 1141 0068 7CE00026 		mfcr %r7
 1142 006c 74E7E007 		e_rlwinm %r7,%r7,28,0xf0000000
 1143 0070 7CE80120 		mtcrf 128,%r7
 1144 0074 7A11FFD8 		e_bgt %cr0,.L78
 1145              		.loc 1 421 0 is_stmt 1
 1146 0078 4807     		se_li %r7,0
 1147              	.L76:
 1148              		.loc 1 422 0
 1149 007a 0173     		se_mr %r3,%r7
 1150 007c 21F1     		se_addi %r1,32
 1151              	.LCFI23:
 1152              		.cfi_def_cfa_offset 0
 1153 007e 0004     		se_blr
 1154              		.cfi_endproc
 1155              	.LFE11:
 1156              		.size	cache_invalidate_range, .-cache_invalidate_range
 1157              		.section	".text","axv"
 1158              	.Letext0:
 1159              		.file 2 "c:\\spc5studio-6.0\\eclipse\\plugins\\com.st.tools.spc5.tools.gnu.gcc.ppcvle.win32_4.9.4.
 1160              		.file 3 "c:\\spc5studio-6.0\\eclipse\\plugins\\com.st.tools.spc5.tools.gnu.gcc.ppcvle.win32_4.9.4.
 1161              		.file 4 "./components/spc58ecxx_platform_component_rla/lib/include/cache.h"