GAS LISTING C:\Users\bayra\AppData\Local\Temp\ccA56S3H.s 			page 1


   1              		.file	"can_lld.c"
   2              		.section	".text","axv"
   3              	.Ltext0:
   4              		.cfi_sections	.debug_frame
   5              		.globl CAND2
   6              		.section	.bss.CAND2,"aw",@nobits
   7              		.align 2
   8              		.type	CAND2, @object
   9              		.size	CAND2, 16
  10              	CAND2:
  11 0000 00000000 		.zero	16
  11      00000000 
  11      00000000 
  11      00000000 
  12              		.globl CAND7
  13              		.section	.bss.CAND7,"aw",@nobits
  14              		.align 2
  15              		.type	CAND7, @object
  16              		.size	CAND7, 16
  17              	CAND7:
  18 0000 00000000 		.zero	16
  18      00000000 
  18      00000000 
  18      00000000 
  19              		.section	.text.can_lld_readBuffer,"axv",@progbits
  20              		.align 1
  21              		.p2align 4,,15
  22              		.globl can_lld_readBuffer
  23              		.type	can_lld_readBuffer, @function
  24              	can_lld_readBuffer:
  25              	.LFB3:
  26              		.file 1 "./components/spc58ecxx_low_level_drivers_component_rla/lib/src/can_lld.c"
  27              		.loc 1 161 0
  28              		.cfi_startproc
  29 0000 182106D8 		e_stwu %r1,-40(%r1)
  30              	.LCFI0:
  31              		.cfi_def_cfa_offset 40
  32 0004 0080     		se_mflr %r0
  33 0006 DB01     		se_stw %r0,44(%r1)
  34              		.cfi_offset 65, 4
  35 0008 D631     		se_stw %r3,24(%r1)
  36 000a 0147     		se_mr %r7,%r4
  37 000c D851     		se_stw %r5,32(%r1)
  38 000e D961     		se_stw %r6,36(%r1)
  39 0010 34E1001C 		e_stb %r7,28(%r1)
  40              		.loc 1 162 0
  41 0014 4807     		se_li %r7,0
  42 0016 D271     		se_stw %r7,8(%r1)
  43              		.loc 1 169 0
  44 0018 30E1001C 		e_lbz %r7,28(%r1)
  45 001c 00C7     		se_extzb %r7
  46 001e 700798FD 		e_cmp16i %r7,253
  47 0022 7F800020 		e_mcrf %cr7,%cr0
  48 0026 7CC00026 		mfcr %r6
  49 002a 74C6E007 		e_rlwinm %r6,%r6,28,0xf0000000
  50 002e 7CC80120 		mtcrf 128,%r6
  51 0032 7A120068 		e_beq %cr0,.L3
GAS LISTING C:\Users\bayra\AppData\Local\Temp\ccA56S3H.s 			page 2


  52 0036 700798FE 		e_cmp16i %r7,254
  53 003a 7F800020 		e_mcrf %cr7,%cr0
  54 003e 7CC00026 		mfcr %r6
  55 0042 74C6E007 		e_rlwinm %r6,%r6,28,0xf0000000
  56 0046 7CC80120 		mtcrf 128,%r6
  57 004a 7A120080 		e_beq %cr0,.L4
  58 004e 700798FC 		e_cmp16i %r7,252
  59 0052 7F800020 		e_mcrf %cr7,%cr0
  60 0056 7CC00026 		mfcr %r6
  61 005a 74C6E007 		e_rlwinm %r6,%r6,28,0xf0000000
  62 005e 7CC80120 		mtcrf 128,%r6
  63 0062 7A120008 		e_beq %cr0,.L5
  64              		.loc 1 184 0
  65 0066 78000092 		e_b .L6
  66              	.L5:
  67              		.loc 1 171 0
  68 006a C671     		se_lwz %r7,24(%r1)
  69 006c C267     		se_lwz %r6,8(%r7)
  70 006e C671     		se_lwz %r7,24(%r1)
  71 0070 C177     		se_lwz %r7,4(%r7)
  72 0072 50E700AC 		e_lwz %r7,172(%r7)
  73 0076 6827     		se_srwi %r7,2
  74 0078 74E704BF 		e_rlwinm %r7,%r7,0,18,31
  75 007c 00E7     		se_extzh %r7
  76 007e 6C27     		se_slwi %r7, 2
  77 0080 0476     		se_add %r6,%r7
  78              		.loc 1 172 0
  79 0082 C671     		se_lwz %r7,24(%r1)
  80 0084 8C77     		se_lbz %r7,12(%r7)
  81 0086 00C7     		se_extzb %r7
  82 0088 18A78008 		e_addi %r5,%r7,8
  83 008c C871     		se_lwz %r7,32(%r1)
  84 008e 0557     		se_mullw %r7,%r5
  85              		.loc 1 171 0
  86 0090 7CE63A14 		add %r7,%r6,%r7
  87 0094 D271     		se_stw %r7,8(%r1)
  88              		.loc 1 173 0
  89 0096 78000062 		e_b .L6
  90              	.L3:
  91              		.loc 1 175 0
  92 009a C671     		se_lwz %r7,24(%r1)
  93 009c C267     		se_lwz %r6,8(%r7)
  94 009e C671     		se_lwz %r7,24(%r1)
  95 00a0 C177     		se_lwz %r7,4(%r7)
  96 00a2 50E700A0 		e_lwz %r7,160(%r7)
  97 00a6 6827     		se_srwi %r7,2
  98 00a8 74E704BF 		e_rlwinm %r7,%r7,0,18,31
  99 00ac 00E7     		se_extzh %r7
 100 00ae 6C27     		se_slwi %r7, 2
 101 00b0 0476     		se_add %r6,%r7
 102              		.loc 1 176 0
 103 00b2 C671     		se_lwz %r7,24(%r1)
 104 00b4 8C77     		se_lbz %r7,12(%r7)
 105 00b6 00C7     		se_extzb %r7
 106 00b8 18A78008 		e_addi %r5,%r7,8
 107 00bc C871     		se_lwz %r7,32(%r1)
 108 00be 0557     		se_mullw %r7,%r5
GAS LISTING C:\Users\bayra\AppData\Local\Temp\ccA56S3H.s 			page 3


 109              		.loc 1 175 0
 110 00c0 7CE63A14 		add %r7,%r6,%r7
 111 00c4 D271     		se_stw %r7,8(%r1)
 112              		.loc 1 177 0
 113 00c6 78000032 		e_b .L6
 114              	.L4:
 115              		.loc 1 179 0
 116 00ca C671     		se_lwz %r7,24(%r1)
 117 00cc C267     		se_lwz %r6,8(%r7)
 118 00ce C671     		se_lwz %r7,24(%r1)
 119 00d0 C177     		se_lwz %r7,4(%r7)
 120 00d2 50E700B0 		e_lwz %r7,176(%r7)
 121 00d6 6827     		se_srwi %r7,2
 122 00d8 74E704BF 		e_rlwinm %r7,%r7,0,18,31
 123 00dc 00E7     		se_extzh %r7
 124 00de 6C27     		se_slwi %r7, 2
 125 00e0 0476     		se_add %r6,%r7
 126              		.loc 1 180 0
 127 00e2 C671     		se_lwz %r7,24(%r1)
 128 00e4 8C77     		se_lbz %r7,12(%r7)
 129 00e6 00C7     		se_extzb %r7
 130 00e8 18A78008 		e_addi %r5,%r7,8
 131 00ec C871     		se_lwz %r7,32(%r1)
 132 00ee 0557     		se_mullw %r7,%r5
 133              		.loc 1 179 0
 134 00f0 7CE63A14 		add %r7,%r6,%r7
 135 00f4 D271     		se_stw %r7,8(%r1)
 136              		.loc 1 181 0
 137 00f6 4400     		se_nop
 138              	.L6:
 139              		.loc 1 188 0
 140 00f8 C271     		se_lwz %r7,8(%r1)
 141 00fa C077     		se_lwz %r7,0(%r7)
 142 00fc 69E7     		se_srwi %r7,30
 143 00fe 2207     		se_cmpli %r7,1
 144 0100 7F800020 		e_mcrf %cr7,%cr0
 145 0104 7CC00026 		mfcr %r6
 146 0108 74C6E007 		e_rlwinm %r6,%r6,28,0xf0000000
 147 010c 7CC80120 		mtcrf 128,%r6
 148 0110 7A02001A 		e_bne %cr0,.L7
 149              		.loc 1 189 0
 150 0114 C971     		se_lwz %r7,36(%r1)
 151 0116 4816     		se_li %r6,1
 152 0118 9467     		se_stb %r6,4(%r7)
 153              		.loc 1 190 0
 154 011a C271     		se_lwz %r7,8(%r1)
 155 011c C077     		se_lwz %r7,0(%r7)
 156 011e 18E6C71F 		e_andi %r6,%r7,536870911
 157 0122 C971     		se_lwz %r7,36(%r1)
 158 0124 D267     		se_stw %r6,8(%r7)
 159 0126 78000016 		e_b .L8
 160              	.L7:
 161              		.loc 1 193 0
 162 012a C971     		se_lwz %r7,36(%r1)
 163 012c 4806     		se_li %r6,0
 164 012e 9467     		se_stb %r6,4(%r7)
 165              		.loc 1 194 0
GAS LISTING C:\Users\bayra\AppData\Local\Temp\ccA56S3H.s 			page 4


 166 0130 C271     		se_lwz %r7,8(%r1)
 167 0132 C077     		se_lwz %r7,0(%r7)
 168 0134 7CE69470 		e_srwi %r6,%r7,18
 169 0138 C971     		se_lwz %r7,36(%r1)
 170 013a D267     		se_stw %r6,8(%r7)
 171              	.L8:
 172              		.loc 1 198 0
 173 013c C271     		se_lwz %r7,8(%r1)
 174 013e 2037     		se_addi %r7,4
 175 0140 D271     		se_stw %r7,8(%r1)
 176              		.loc 1 199 0
 177 0142 C271     		se_lwz %r7,8(%r1)
 178 0144 C077     		se_lwz %r7,0(%r7)
 179 0146 D471     		se_stw %r7,16(%r1)
 180              		.loc 1 200 0
 181 0148 C471     		se_lwz %r7,16(%r1)
 182 014a 6907     		se_srwi %r7,16
 183 014c 00C7     		se_extzb %r7
 184 014e 2EF7     		se_andi %r7,15
 185 0150 00C7     		se_extzb %r7
 186 0152 0173     		se_mr %r3,%r7
 187 0154 78000001 		e_bl can_lld_getframesize
 188 0158 0137     		se_mr %r7,%r3
 189 015a 34E10014 		e_stb %r7,20(%r1)
 190              		.loc 1 201 0
 191 015e C971     		se_lwz %r7,36(%r1)
 192 0160 30C10014 		e_lbz %r6,20(%r1)
 193 0164 9C67     		se_stb %r6,12(%r7)
 194              		.loc 1 204 0
 195 0166 C471     		se_lwz %r7,16(%r1)
 196 0168 6957     		se_srwi %r7,21
 197 016a 00C7     		se_extzb %r7
 198 016c 2E17     		se_andi %r7,1
 199 016e 74E6063F 		e_rlwinm %r6,%r7,0,0xff
 200 0172 C971     		se_lwz %r7,36(%r1)
 201 0174 9267     		se_stb %r6,2(%r7)
 202              		.loc 1 207 0
 203 0176 C471     		se_lwz %r7,16(%r1)
 204 0178 00E7     		se_extzh %r7
 205 017a 18E7C0FF 		e_andi %r7,%r7,255
 206 017e 74E6043F 		e_rlwinm %r6,%r7,0,0xffff
 207 0182 C971     		se_lwz %r7,36(%r1)
 208 0184 B067     		se_sth %r6,0(%r7)
 209              		.loc 1 210 0
 210 0186 C271     		se_lwz %r7,8(%r1)
 211 0188 2037     		se_addi %r7,4
 212 018a D271     		se_stw %r7,8(%r1)
 213              		.loc 1 211 0
 214 018c 30E10014 		e_lbz %r7,20(%r1)
 215 0190 2E37     		se_andi %r7,3
 216 0192 00C7     		se_extzb %r7
 217 0194 2A07     		se_cmpi %r7,0
 218 0196 7F800020 		e_mcrf %cr7,%cr0
 219 019a 7CC00026 		mfcr %r6
 220 019e 74C6E007 		e_rlwinm %r6,%r6,28,0xf0000000
 221 01a2 7CC80120 		mtcrf 128,%r6
 222 01a6 7A020012 		e_bne %cr0,.L9
GAS LISTING C:\Users\bayra\AppData\Local\Temp\ccA56S3H.s 			page 5


 223              		.loc 1 212 0
 224 01aa 30E10014 		e_lbz %r7,20(%r1)
 225 01ae 00C7     		se_extzb %r7
 226 01b0 6827     		se_srwi %r7,2
 227 01b2 9D71     		se_stb %r7,13(%r1)
 228 01b4 78000012 		e_b .L10
 229              	.L9:
 230              		.loc 1 215 0
 231 01b8 30E10014 		e_lbz %r7,20(%r1)
 232 01bc 00C7     		se_extzb %r7
 233 01be 6827     		se_srwi %r7,2
 234 01c0 00C7     		se_extzb %r7
 235 01c2 2007     		se_addi %r7,1
 236 01c4 9D71     		se_stb %r7,13(%r1)
 237              	.L10:
 238              		.loc 1 217 0
 239 01c6 4807     		se_li %r7,0
 240 01c8 9C71     		se_stb %r7,12(%r1)
 241 01ca 7800007C 		e_b .L11
 242              	.L14:
 243              		.loc 1 218 0
 244 01ce C271     		se_lwz %r7,8(%r1)
 245 01d0 C077     		se_lwz %r7,0(%r7)
 246 01d2 D471     		se_stw %r7,16(%r1)
 247              		.loc 1 220 0
 248 01d4 C671     		se_lwz %r7,24(%r1)
 249 01d6 C077     		se_lwz %r7,0(%r7)
 250 01d8 8177     		se_lbz %r7,1(%r7)
 251 01da 00C7     		se_extzb %r7
 252 01dc 2A07     		se_cmpi %r7,0
 253 01de 7F800020 		e_mcrf %cr7,%cr0
 254 01e2 7CC00026 		mfcr %r6
 255 01e6 74C6E007 		e_rlwinm %r6,%r6,28,0xf0000000
 256 01ea 7CC80120 		mtcrf 128,%r6
 257 01ee 7A02001A 		e_bne %cr0,.L12
 258              		.loc 1 221 0
 259 01f2 8C71     		se_lbz %r7,12(%r1)
 260 01f4 00C7     		se_extzb %r7
 261 01f6 C961     		se_lwz %r6,36(%r1)
 262 01f8 2037     		se_addi %r7,4
 263 01fa 6C27     		se_slwi %r7, 2
 264 01fc 7CE63A14 		add %r7,%r6,%r7
 265 0200 C461     		se_lwz %r6,16(%r1)
 266 0202 D067     		se_stw %r6,0(%r7)
 267 0204 78000034 		e_b .L13
 268              	.L12:
 269              		.loc 1 223 0
 270 0208 8C71     		se_lbz %r7,12(%r1)
 271 020a 00C7     		se_extzb %r7
 272 020c C461     		se_lwz %r6,16(%r1)
 273 020e 7CC5C470 		e_srwi %r5,%r6,24
 274 0212 C461     		se_lwz %r6,16(%r1)
 275 0214 6886     		se_srwi %r6,8
 276 0216 18C6C1FF 		e_andi %r6,%r6,65280
 277 021a 4465     		se_or %r5,%r6
 278 021c C461     		se_lwz %r6,16(%r1)
 279 021e 6C86     		se_slwi %r6, 8
GAS LISTING C:\Users\bayra\AppData\Local\Temp\ccA56S3H.s 			page 6


 280 0220 18C6C2FF 		e_andi %r6,%r6,16711680
 281 0224 4465     		se_or %r5,%r6
 282 0226 C461     		se_lwz %r6,16(%r1)
 283 0228 6D86     		se_slwi %r6, 24
 284 022a 4456     		se_or %r6,%r5
 285 022c C951     		se_lwz %r5,36(%r1)
 286 022e 2037     		se_addi %r7,4
 287 0230 6C27     		se_slwi %r7, 2
 288 0232 7CE53A14 		add %r7,%r5,%r7
 289 0236 D067     		se_stw %r6,0(%r7)
 290              	.L13:
 291              		.loc 1 225 0 discriminator 2
 292 0238 C271     		se_lwz %r7,8(%r1)
 293 023a 2037     		se_addi %r7,4
 294 023c D271     		se_stw %r7,8(%r1)
 295              		.loc 1 217 0 discriminator 2
 296 023e 8C71     		se_lbz %r7,12(%r1)
 297 0240 00C7     		se_extzb %r7
 298 0242 2007     		se_addi %r7,1
 299 0244 9C71     		se_stb %r7,12(%r1)
 300              	.L11:
 301              		.loc 1 217 0 is_stmt 0 discriminator 1
 302 0246 8C71     		se_lbz %r7,12(%r1)
 303 0248 74E6063F 		e_rlwinm %r6,%r7,0,0xff
 304 024c 8D71     		se_lbz %r7,13(%r1)
 305 024e 00C7     		se_extzb %r7
 306 0250 7F863840 		cmpl %cr7,%r6,%r7
 307 0254 7CC00026 		mfcr %r6
 308 0258 74C6E007 		e_rlwinm %r6,%r6,28,0xf0000000
 309 025c 7CC80120 		mtcrf 128,%r6
 310 0260 7A10FF6E 		e_blt %cr0,.L14
 311              		.loc 1 231 0 is_stmt 1
 312 0264 CB01     		se_lwz %r0,44(%r1)
 313 0266 0090     		se_mtlr %r0
 314 0268 18218028 		e_addi %r1,%r1,40
 315              	.LCFI1:
 316              		.cfi_def_cfa_offset 0
 317 026c 0004     		se_blr
 318              		.cfi_endproc
 319              	.LFE3:
 320              		.size	can_lld_readBuffer, .-can_lld_readBuffer
 321              		.section	.text.can_lld_writeTxBuffer,"axv",@progbits
 322              		.align 1
 323              		.p2align 4,,15
 324              		.globl can_lld_writeTxBuffer
 325              		.type	can_lld_writeTxBuffer, @function
 326              	can_lld_writeTxBuffer:
 327              	.LFB4:
 328              		.loc 1 241 0
 329              		.cfi_startproc
 330 0000 182106D8 		e_stwu %r1,-40(%r1)
 331              	.LCFI2:
 332              		.cfi_def_cfa_offset 40
 333 0004 0080     		se_mflr %r0
 334 0006 DB01     		se_stw %r0,44(%r1)
 335              		.cfi_offset 65, 4
 336 0008 D631     		se_stw %r3,24(%r1)
GAS LISTING C:\Users\bayra\AppData\Local\Temp\ccA56S3H.s 			page 7


 337 000a D741     		se_stw %r4,28(%r1)
 338 000c D851     		se_stw %r5,32(%r1)
 339              		.loc 1 250 0
 340 000e C671     		se_lwz %r7,24(%r1)
 341 0010 8C77     		se_lbz %r7,12(%r7)
 342 0012 00C7     		se_extzb %r7
 343 0014 7007A840 		e_cmpl16i %r7,64
 344 0018 7F800020 		e_mcrf %cr7,%cr0
 345 001c 7CE00026 		mfcr %r7
 346 0020 74E7E007 		e_rlwinm %r7,%r7,28,0xf0000000
 347 0024 7CE80120 		mtcrf 128,%r7
 348 0028 7A020014 		e_bne %cr0,.L16
 349              		.loc 1 251 0
 350 002c C771     		se_lwz %r7,28(%r1)
 351 002e 6C37     		se_slwi %r7, 3
 352 0030 7CE61870 		e_slwi %r6,%r7,3
 353 0034 0467     		se_add %r7,%r6
 354 0036 D371     		se_stw %r7,12(%r1)
 355 0038 7800000A 		e_b .L17
 356              	.L16:
 357              		.loc 1 254 0
 358 003c C771     		se_lwz %r7,28(%r1)
 359 003e 6C47     		se_slwi %r7, 4
 360 0040 D371     		se_stw %r7,12(%r1)
 361              	.L17:
 362              		.loc 1 256 0
 363 0042 C671     		se_lwz %r7,24(%r1)
 364 0044 C267     		se_lwz %r6,8(%r7)
 365 0046 C671     		se_lwz %r7,24(%r1)
 366 0048 C177     		se_lwz %r7,4(%r7)
 367 004a 50E700C0 		e_lwz %r7,192(%r7)
 368 004e 6827     		se_srwi %r7,2
 369 0050 74E704BF 		e_rlwinm %r7,%r7,0,18,31
 370 0054 00E7     		se_extzh %r7
 371 0056 6C27     		se_slwi %r7, 2
 372 0058 0476     		se_add %r6,%r7
 373 005a C371     		se_lwz %r7,12(%r1)
 374 005c 7CE63A14 		add %r7,%r6,%r7
 375 0060 D271     		se_stw %r7,8(%r1)
 376              		.loc 1 259 0
 377 0062 C871     		se_lwz %r7,32(%r1)
 378 0064 8277     		se_lbz %r7,2(%r7)
 379 0066 00C7     		se_extzb %r7
 380 0068 2207     		se_cmpli %r7,1
 381 006a 7F800020 		e_mcrf %cr7,%cr0
 382 006e 7CE00026 		mfcr %r7
 383 0072 74E7E007 		e_rlwinm %r7,%r7,28,0xf0000000
 384 0076 7CE80120 		mtcrf 128,%r7
 385 007a 7A020012 		e_bne %cr0,.L18
 386              		.loc 1 260 0
 387 007e C271     		se_lwz %r7,8(%r1)
 388 0080 C861     		se_lwz %r6,32(%r1)
 389 0082 C166     		se_lwz %r6,4(%r6)
 390 0084 6416     		se_bseti %r6,1
 391 0086 D067     		se_stw %r6,0(%r7)
 392 0088 7800000E 		e_b .L19
 393              	.L18:
GAS LISTING C:\Users\bayra\AppData\Local\Temp\ccA56S3H.s 			page 8


 394              		.loc 1 263 0
 395 008c C271     		se_lwz %r7,8(%r1)
 396 008e C861     		se_lwz %r6,32(%r1)
 397 0090 C166     		se_lwz %r6,4(%r6)
 398 0092 6D26     		se_slwi %r6, 18
 399 0094 D067     		se_stw %r6,0(%r7)
 400              	.L19:
 401              		.loc 1 266 0
 402 0096 C271     		se_lwz %r7,8(%r1)
 403 0098 2037     		se_addi %r7,4
 404 009a D271     		se_stw %r7,8(%r1)
 405              		.loc 1 267 0
 406 009c C871     		se_lwz %r7,32(%r1)
 407 009e 8877     		se_lbz %r7,8(%r7)
 408 00a0 00C7     		se_extzb %r7
 409 00a2 0173     		se_mr %r3,%r7
 410 00a4 78000001 		e_bl can_lld_getDLC
 411 00a8 0137     		se_mr %r7,%r3
 412 00aa 34E10012 		e_stb %r7,18(%r1)
 413              		.loc 1 268 0
 414 00ae 30E10012 		e_lbz %r7,18(%r1)
 415 00b2 00C7     		se_extzb %r7
 416 00b4 6D07     		se_slwi %r7, 16
 417 00b6 D571     		se_stw %r7,20(%r1)
 418              		.loc 1 269 0
 419 00b8 C271     		se_lwz %r7,8(%r1)
 420 00ba C561     		se_lwz %r6,20(%r1)
 421 00bc D067     		se_stw %r6,0(%r7)
 422              		.loc 1 272 0
 423 00be C871     		se_lwz %r7,32(%r1)
 424 00c0 8077     		se_lbz %r7,0(%r7)
 425 00c2 00C7     		se_extzb %r7
 426 00c4 2207     		se_cmpli %r7,1
 427 00c6 7F800020 		e_mcrf %cr7,%cr0
 428 00ca 7CE00026 		mfcr %r7
 429 00ce 74E7E007 		e_rlwinm %r7,%r7,28,0xf0000000
 430 00d2 7CE80120 		mtcrf 128,%r7
 431 00d6 7A020036 		e_bne %cr0,.L20
 432              		.loc 1 273 0
 433 00da C271     		se_lwz %r7,8(%r1)
 434 00dc C261     		se_lwz %r6,8(%r1)
 435 00de C066     		se_lwz %r6,0(%r6)
 436 00e0 64A6     		se_bseti %r6,10
 437 00e2 D067     		se_stw %r6,0(%r7)
 438              		.loc 1 274 0
 439 00e4 C671     		se_lwz %r7,24(%r1)
 440 00e6 C077     		se_lwz %r7,0(%r7)
 441 00e8 8977     		se_lbz %r7,9(%r7)
 442 00ea 00C7     		se_extzb %r7
 443 00ec 2207     		se_cmpli %r7,1
 444 00ee 7F800020 		e_mcrf %cr7,%cr0
 445 00f2 7CE00026 		mfcr %r7
 446 00f6 74E7E007 		e_rlwinm %r7,%r7,28,0xf0000000
 447 00fa 7CE80120 		mtcrf 128,%r7
 448 00fe 7A02000E 		e_bne %cr0,.L20
 449              		.loc 1 275 0
 450 0102 C271     		se_lwz %r7,8(%r1)
GAS LISTING C:\Users\bayra\AppData\Local\Temp\ccA56S3H.s 			page 9


 451 0104 C261     		se_lwz %r6,8(%r1)
 452 0106 C066     		se_lwz %r6,0(%r6)
 453 0108 64B6     		se_bseti %r6,11
 454 010a D067     		se_stw %r6,0(%r7)
 455              	.L20:
 456              		.loc 1 280 0
 457 010c C271     		se_lwz %r7,8(%r1)
 458 010e 2037     		se_addi %r7,4
 459 0110 D271     		se_stw %r7,8(%r1)
 460              		.loc 1 281 0
 461 0112 C871     		se_lwz %r7,32(%r1)
 462 0114 8877     		se_lbz %r7,8(%r7)
 463 0116 00C7     		se_extzb %r7
 464 0118 2E37     		se_andi %r7,3
 465 011a 00C7     		se_extzb %r7
 466 011c 2A07     		se_cmpi %r7,0
 467 011e 7F800020 		e_mcrf %cr7,%cr0
 468 0122 7CE00026 		mfcr %r7
 469 0126 74E7E007 		e_rlwinm %r7,%r7,28,0xf0000000
 470 012a 7CE80120 		mtcrf 128,%r7
 471 012e 7A020014 		e_bne %cr0,.L21
 472              		.loc 1 282 0
 473 0132 C871     		se_lwz %r7,32(%r1)
 474 0134 8877     		se_lbz %r7,8(%r7)
 475 0136 00C7     		se_extzb %r7
 476 0138 6827     		se_srwi %r7,2
 477 013a 34E10011 		e_stb %r7,17(%r1)
 478 013e 78000014 		e_b .L22
 479              	.L21:
 480              		.loc 1 285 0
 481 0142 C871     		se_lwz %r7,32(%r1)
 482 0144 8877     		se_lbz %r7,8(%r7)
 483 0146 00C7     		se_extzb %r7
 484 0148 6827     		se_srwi %r7,2
 485 014a 00C7     		se_extzb %r7
 486 014c 2007     		se_addi %r7,1
 487 014e 34E10011 		e_stb %r7,17(%r1)
 488              	.L22:
 489              		.loc 1 287 0
 490 0152 4807     		se_li %r7,0
 491 0154 34E10010 		e_stb %r7,16(%r1)
 492 0158 78000074 		e_b .L23
 493              	.L26:
 494              		.loc 1 288 0
 495 015c 30E10010 		e_lbz %r7,16(%r1)
 496 0160 00C7     		se_extzb %r7
 497 0162 C861     		se_lwz %r6,32(%r1)
 498 0164 6C27     		se_slwi %r7, 2
 499 0166 7CE63A14 		add %r7,%r6,%r7
 500 016a C377     		se_lwz %r7,12(%r7)
 501 016c D571     		se_stw %r7,20(%r1)
 502              		.loc 1 290 0
 503 016e C671     		se_lwz %r7,24(%r1)
 504 0170 C077     		se_lwz %r7,0(%r7)
 505 0172 8177     		se_lbz %r7,1(%r7)
 506 0174 00C7     		se_extzb %r7
 507 0176 2A07     		se_cmpi %r7,0
GAS LISTING C:\Users\bayra\AppData\Local\Temp\ccA56S3H.s 			page 10


 508 0178 7F800020 		e_mcrf %cr7,%cr0
 509 017c 7CE00026 		mfcr %r7
 510 0180 74E7E007 		e_rlwinm %r7,%r7,28,0xf0000000
 511 0184 7CE80120 		mtcrf 128,%r7
 512 0188 7A02000E 		e_bne %cr0,.L24
 513              		.loc 1 291 0
 514 018c C271     		se_lwz %r7,8(%r1)
 515 018e C561     		se_lwz %r6,20(%r1)
 516 0190 D067     		se_stw %r6,0(%r7)
 517 0192 78000028 		e_b .L25
 518              	.L24:
 519              		.loc 1 293 0
 520 0196 C271     		se_lwz %r7,8(%r1)
 521 0198 C561     		se_lwz %r6,20(%r1)
 522 019a 7CC5C470 		e_srwi %r5,%r6,24
 523 019e C561     		se_lwz %r6,20(%r1)
 524 01a0 6886     		se_srwi %r6,8
 525 01a2 18C6C1FF 		e_andi %r6,%r6,65280
 526 01a6 4465     		se_or %r5,%r6
 527 01a8 C561     		se_lwz %r6,20(%r1)
 528 01aa 6C86     		se_slwi %r6, 8
 529 01ac 18C6C2FF 		e_andi %r6,%r6,16711680
 530 01b0 4465     		se_or %r5,%r6
 531 01b2 C561     		se_lwz %r6,20(%r1)
 532 01b4 6D86     		se_slwi %r6, 24
 533 01b6 4456     		se_or %r6,%r5
 534 01b8 D067     		se_stw %r6,0(%r7)
 535              	.L25:
 536              		.loc 1 295 0 discriminator 2
 537 01ba C271     		se_lwz %r7,8(%r1)
 538 01bc 2037     		se_addi %r7,4
 539 01be D271     		se_stw %r7,8(%r1)
 540              		.loc 1 287 0 discriminator 2
 541 01c0 30E10010 		e_lbz %r7,16(%r1)
 542 01c4 00C7     		se_extzb %r7
 543 01c6 2007     		se_addi %r7,1
 544 01c8 34E10010 		e_stb %r7,16(%r1)
 545              	.L23:
 546              		.loc 1 287 0 is_stmt 0 discriminator 1
 547 01cc 30E10010 		e_lbz %r7,16(%r1)
 548 01d0 74E6063F 		e_rlwinm %r6,%r7,0,0xff
 549 01d4 30E10011 		e_lbz %r7,17(%r1)
 550 01d8 00C7     		se_extzb %r7
 551 01da 7F863840 		cmpl %cr7,%r6,%r7
 552 01de 7CE00026 		mfcr %r7
 553 01e2 74E7E007 		e_rlwinm %r7,%r7,28,0xf0000000
 554 01e6 7CE80120 		mtcrf 128,%r7
 555 01ea 7A10FF72 		e_blt %cr0,.L26
 556              		.loc 1 300 0 is_stmt 1
 557 01ee CB01     		se_lwz %r0,44(%r1)
 558 01f0 0090     		se_mtlr %r0
 559 01f2 18218028 		e_addi %r1,%r1,40
 560              	.LCFI3:
 561              		.cfi_def_cfa_offset 0
 562 01f6 0004     		se_blr
 563              		.cfi_endproc
 564              	.LFE4:
GAS LISTING C:\Users\bayra\AppData\Local\Temp\ccA56S3H.s 			page 11


 565              		.size	can_lld_writeTxBuffer, .-can_lld_writeTxBuffer
 566              		.section	.text.can_lld_getframesize,"axv",@progbits
 567              		.align 1
 568              		.p2align 4,,15
 569              		.globl can_lld_getframesize
 570              		.type	can_lld_getframesize, @function
 571              	can_lld_getframesize:
 572              	.LFB5:
 573              		.loc 1 310 0
 574              		.cfi_startproc
 575 0000 182106F0 		e_stwu %r1,-16(%r1)
 576              	.LCFI4:
 577              		.cfi_def_cfa_offset 16
 578 0004 0137     		se_mr %r7,%r3
 579 0006 9871     		se_stb %r7,8(%r1)
 580              		.loc 1 311 0
 581 0008 8871     		se_lbz %r7,8(%r1)
 582 000a 00C7     		se_extzb %r7
 583 000c 18E784F7 		e_addi %r7,%r7,-9
 584 0010 2257     		se_cmpli %r7,6
 585 0012 7F800020 		e_mcrf %cr7,%cr0
 586 0016 7CC00026 		mfcr %r6
 587 001a 74C6E007 		e_rlwinm %r6,%r6,28,0xf0000000
 588 001e 7CC80120 		mtcrf 128,%r6
 589 0022 7A110050 		e_bgt %cr0,.L28
 590 0026 7CE61070 		e_slwi %r6,%r7,2
 591 002a 70E0E000 		e_lis %r7,.L30@ha
 592 002e 1CE70000 		e_la %r7,.L30@l(%r7)
 593 0032 7CE63A14 		add %r7,%r6,%r7
 594 0036 C067     		se_lwz %r6,0(%r7)
 595 0038 70E0E000 		e_lis %r7,.L30@ha
 596 003c 1CE70000 		e_la %r7,.L30@l(%r7)
 597 0040 7CE63A14 		add %r7,%r6,%r7
 598 0044 00B7     		se_mtctr %r7
 599 0046 0006     		se_bctr
 600              		.section	.rodata.can_lld_getframesize,"a",@progbits
 601              		.align 2
 602              		.align 2
 603              	.L30:
 604 0000 00000000 		.long .L29-.L30
 605 0004 00000000 		.long .L31-.L30
 606 0008 00000000 		.long .L32-.L30
 607 000c 00000000 		.long .L33-.L30
 608 0010 00000000 		.long .L34-.L30
 609 0014 00000000 		.long .L35-.L30
 610 0018 00000000 		.long .L36-.L30
 611              		.section	.text.can_lld_getframesize
 612              	.L29:
 613              		.loc 1 313 0
 614 0048 48C7     		se_li %r7,12
 615 004a 7800002C 		e_b .L37
 616              	.L31:
 617              		.loc 1 315 0
 618 004e 4907     		se_li %r7,16
 619 0050 78000026 		e_b .L37
 620              	.L32:
 621              		.loc 1 317 0
GAS LISTING C:\Users\bayra\AppData\Local\Temp\ccA56S3H.s 			page 12


 622 0054 4947     		se_li %r7,20
 623 0056 78000020 		e_b .L37
 624              	.L33:
 625              		.loc 1 319 0
 626 005a 4987     		se_li %r7,24
 627 005c 7800001A 		e_b .L37
 628              	.L34:
 629              		.loc 1 321 0
 630 0060 4A07     		se_li %r7,32
 631 0062 78000014 		e_b .L37
 632              	.L35:
 633              		.loc 1 323 0
 634 0066 4B07     		se_li %r7,48
 635 0068 7800000E 		e_b .L37
 636              	.L36:
 637              		.loc 1 325 0
 638 006c 4C07     		se_li %r7,64
 639 006e 78000008 		e_b .L37
 640              	.L28:
 641              		.loc 1 327 0
 642 0072 8871     		se_lbz %r7,8(%r1)
 643 0074 00C7     		se_extzb %r7
 644              	.L37:
 645              		.loc 1 329 0
 646 0076 0173     		se_mr %r3,%r7
 647 0078 20F1     		se_addi %r1,16
 648              	.LCFI5:
 649              		.cfi_def_cfa_offset 0
 650 007a 0004     		se_blr
 651              		.cfi_endproc
 652              	.LFE5:
 653              		.size	can_lld_getframesize, .-can_lld_getframesize
 654              		.section	.text.can_lld_getDLC,"axv",@progbits
 655              		.align 1
 656              		.p2align 4,,15
 657              		.globl can_lld_getDLC
 658              		.type	can_lld_getDLC, @function
 659              	can_lld_getDLC:
 660              	.LFB6:
 661              		.loc 1 339 0
 662              		.cfi_startproc
 663 0000 182106F0 		e_stwu %r1,-16(%r1)
 664              	.LCFI6:
 665              		.cfi_def_cfa_offset 16
 666 0004 0137     		se_mr %r7,%r3
 667 0006 9871     		se_stb %r7,8(%r1)
 668              		.loc 1 340 0
 669 0008 8871     		se_lbz %r7,8(%r1)
 670 000a 00C7     		se_extzb %r7
 671 000c 2277     		se_cmpli %r7,8
 672 000e 7F800020 		e_mcrf %cr7,%cr0
 673 0012 7CE00026 		mfcr %r7
 674 0016 74E7E007 		e_rlwinm %r7,%r7,28,0xf0000000
 675 001a 7CE80120 		mtcrf 128,%r7
 676 001e 7A11000C 		e_bgt %cr0,.L39
 677              		.loc 1 341 0
 678 0022 8871     		se_lbz %r7,8(%r1)
GAS LISTING C:\Users\bayra\AppData\Local\Temp\ccA56S3H.s 			page 13


 679 0024 00C7     		se_extzb %r7
 680 0026 780000EC 		e_b .L40
 681              	.L39:
 682              		.loc 1 343 0
 683 002a 8871     		se_lbz %r7,8(%r1)
 684 002c 00C7     		se_extzb %r7
 685 002e 2AC7     		se_cmpi %r7,12
 686 0030 7F800020 		e_mcrf %cr7,%cr0
 687 0034 7CE00026 		mfcr %r7
 688 0038 74E7E007 		e_rlwinm %r7,%r7,28,0xf0000000
 689 003c 7CE80120 		mtcrf 128,%r7
 690 0040 7A02000A 		e_bne %cr0,.L41
 691              		.loc 1 344 0
 692 0044 4897     		se_li %r7,9
 693 0046 780000CC 		e_b .L40
 694              	.L41:
 695              		.loc 1 346 0
 696 004a 8871     		se_lbz %r7,8(%r1)
 697 004c 00C7     		se_extzb %r7
 698 004e 2B07     		se_cmpi %r7,16
 699 0050 7F800020 		e_mcrf %cr7,%cr0
 700 0054 7CE00026 		mfcr %r7
 701 0058 74E7E007 		e_rlwinm %r7,%r7,28,0xf0000000
 702 005c 7CE80120 		mtcrf 128,%r7
 703 0060 7A02000A 		e_bne %cr0,.L42
 704              		.loc 1 347 0
 705 0064 48A7     		se_li %r7,10
 706 0066 780000AC 		e_b .L40
 707              	.L42:
 708              		.loc 1 349 0
 709 006a 8871     		se_lbz %r7,8(%r1)
 710 006c 00C7     		se_extzb %r7
 711 006e 2B47     		se_cmpi %r7,20
 712 0070 7F800020 		e_mcrf %cr7,%cr0
 713 0074 7CE00026 		mfcr %r7
 714 0078 74E7E007 		e_rlwinm %r7,%r7,28,0xf0000000
 715 007c 7CE80120 		mtcrf 128,%r7
 716 0080 7A02000A 		e_bne %cr0,.L43
 717              		.loc 1 350 0
 718 0084 48B7     		se_li %r7,11
 719 0086 7800008C 		e_b .L40
 720              	.L43:
 721              		.loc 1 352 0
 722 008a 8871     		se_lbz %r7,8(%r1)
 723 008c 00C7     		se_extzb %r7
 724 008e 2B87     		se_cmpi %r7,24
 725 0090 7F800020 		e_mcrf %cr7,%cr0
 726 0094 7CE00026 		mfcr %r7
 727 0098 74E7E007 		e_rlwinm %r7,%r7,28,0xf0000000
 728 009c 7CE80120 		mtcrf 128,%r7
 729 00a0 7A02000A 		e_bne %cr0,.L44
 730              		.loc 1 353 0
 731 00a4 48C7     		se_li %r7,12
 732 00a6 7800006C 		e_b .L40
 733              	.L44:
 734              		.loc 1 355 0
 735 00aa 8871     		se_lbz %r7,8(%r1)
GAS LISTING C:\Users\bayra\AppData\Local\Temp\ccA56S3H.s 			page 14


 736 00ac 00C7     		se_extzb %r7
 737 00ae 70079820 		e_cmp16i %r7,32
 738 00b2 7F800020 		e_mcrf %cr7,%cr0
 739 00b6 7CE00026 		mfcr %r7
 740 00ba 74E7E007 		e_rlwinm %r7,%r7,28,0xf0000000
 741 00be 7CE80120 		mtcrf 128,%r7
 742 00c2 7A02000A 		e_bne %cr0,.L45
 743              		.loc 1 356 0
 744 00c6 48D7     		se_li %r7,13
 745 00c8 7800004A 		e_b .L40
 746              	.L45:
 747              		.loc 1 358 0
 748 00cc 8871     		se_lbz %r7,8(%r1)
 749 00ce 00C7     		se_extzb %r7
 750 00d0 70079830 		e_cmp16i %r7,48
 751 00d4 7F800020 		e_mcrf %cr7,%cr0
 752 00d8 7CE00026 		mfcr %r7
 753 00dc 74E7E007 		e_rlwinm %r7,%r7,28,0xf0000000
 754 00e0 7CE80120 		mtcrf 128,%r7
 755 00e4 7A02000A 		e_bne %cr0,.L46
 756              		.loc 1 359 0
 757 00e8 48E7     		se_li %r7,14
 758 00ea 78000028 		e_b .L40
 759              	.L46:
 760              		.loc 1 361 0
 761 00ee 8871     		se_lbz %r7,8(%r1)
 762 00f0 00C7     		se_extzb %r7
 763 00f2 70079840 		e_cmp16i %r7,64
 764 00f6 7F800020 		e_mcrf %cr7,%cr0
 765 00fa 7CE00026 		mfcr %r7
 766 00fe 74E7E007 		e_rlwinm %r7,%r7,28,0xf0000000
 767 0102 7CE80120 		mtcrf 128,%r7
 768 0106 7A02000A 		e_bne %cr0,.L47
 769              		.loc 1 362 0
 770 010a 48F7     		se_li %r7,15
 771 010c 78000006 		e_b .L40
 772              	.L47:
 773              		.loc 1 365 0
 774 0110 4807     		se_li %r7,0
 775              	.L40:
 776              		.loc 1 367 0
 777 0112 0173     		se_mr %r3,%r7
 778 0114 20F1     		se_addi %r1,16
 779              	.LCFI7:
 780              		.cfi_def_cfa_offset 0
 781 0116 0004     		se_blr
 782              		.cfi_endproc
 783              	.LFE6:
 784              		.size	can_lld_getDLC, .-can_lld_getDLC
 785              		.section	.text.can_lld_l0_handler,"axv",@progbits
 786              		.align 1
 787              		.p2align 4,,15
 788              		.type	can_lld_l0_handler, @function
 789              	can_lld_l0_handler:
 790              	.LFB7:
 791              		.loc 1 377 0
 792              		.cfi_startproc
GAS LISTING C:\Users\bayra\AppData\Local\Temp\ccA56S3H.s 			page 15


 793 0000 701F7F38 		e_li %r0,-200
 794 0004 7C21016E 		stwux %r1,%r1,%r0
 795              	.LCFI8:
 796              		.cfi_def_cfa_offset 200
 797 0008 0080     		se_mflr %r0
 798 000a 540100CC 		e_stw %r0,204(%r1)
 799 000e 57E100C4 		e_stw %r31,196(%r1)
 800              		.cfi_offset 65, 4
 801              		.cfi_offset 31, -4
 802 0012 54610068 		e_stw %r3,104(%r1)
 803              		.loc 1 380 0
 804 0016 4807     		se_li %r7,0
 805 0018 D271     		se_stw %r7,8(%r1)
 806              		.loc 1 383 0
 807 001a 50E10068 		e_lwz %r7,104(%r1)
 808 001e C177     		se_lwz %r7,4(%r7)
 809 0020 50E70050 		e_lwz %r7,80(%r7)
 810 0024 18E7C208 		e_andi %r7,%r7,524288
 811 0028 2A07     		se_cmpi %r7,0
 812 002a 7F800020 		e_mcrf %cr7,%cr0
 813 002e 7CE00026 		mfcr %r7
 814 0032 74E7E007 		e_rlwinm %r7,%r7,28,0xf0000000
 815 0036 7CE80120 		mtcrf 128,%r7
 816 003a 7A120176 		e_beq %cr0,.L49
 817              		.loc 1 384 0
 818 003e 50E10068 		e_lwz %r7,104(%r1)
 819 0042 C177     		se_lwz %r7,4(%r7)
 820 0044 50E70058 		e_lwz %r7,88(%r7)
 821 0048 18E7C208 		e_andi %r7,%r7,524288
 822 004c 2A07     		se_cmpi %r7,0
 823 004e 7F800020 		e_mcrf %cr7,%cr0
 824 0052 7CE00026 		mfcr %r7
 825 0056 74E7E007 		e_rlwinm %r7,%r7,28,0xf0000000
 826 005a 7CE80120 		mtcrf 128,%r7
 827 005e 7A020152 		e_bne %cr0,.L49
 828              		.loc 1 386 0
 829 0062 50E10068 		e_lwz %r7,104(%r1)
 830 0066 C077     		se_lwz %r7,0(%r7)
 831 0068 C577     		se_lwz %r7,20(%r7)
 832 006a 2A07     		se_cmpi %r7,0
 833 006c 7F800020 		e_mcrf %cr7,%cr0
 834 0070 7CE00026 		mfcr %r7
 835 0074 74E7E007 		e_rlwinm %r7,%r7,28,0xf0000000
 836 0078 7CE80120 		mtcrf 128,%r7
 837 007c 7A120128 		e_beq %cr0,.L50
 838              		.loc 1 387 0
 839 0080 4807     		se_li %r7,0
 840 0082 D271     		se_stw %r7,8(%r1)
 841 0084 7800007C 		e_b .L51
 842              	.L55:
 843              		.loc 1 388 0
 844 0088 C271     		se_lwz %r7,8(%r1)
 845 008a 23E7     		se_cmpli %r7,31
 846 008c 7F800020 		e_mcrf %cr7,%cr0
 847 0090 7CE00026 		mfcr %r7
 848 0094 74E7E007 		e_rlwinm %r7,%r7,28,0xf0000000
 849 0098 7CE80120 		mtcrf 128,%r7
GAS LISTING C:\Users\bayra\AppData\Local\Temp\ccA56S3H.s 			page 16


 850 009c 7A110030 		e_bgt %cr0,.L52
 851              		.loc 1 389 0
 852 00a0 50E10068 		e_lwz %r7,104(%r1)
 853 00a4 C177     		se_lwz %r7,4(%r7)
 854 00a6 50C70098 		e_lwz %r6,152(%r7)
 855 00aa C271     		se_lwz %r7,8(%r1)
 856 00ac 7CC73C30 		srw %r7,%r6,%r7
 857 00b0 2E17     		se_andi %r7,1
 858 00b2 2A07     		se_cmpi %r7,0
 859 00b4 7F800020 		e_mcrf %cr7,%cr0
 860 00b8 7CE00026 		mfcr %r7
 861 00bc 74E7E007 		e_rlwinm %r7,%r7,28,0xf0000000
 862 00c0 7CE80120 		mtcrf 128,%r7
 863 00c4 7A120036 		e_beq %cr0,.L53
 864              		.loc 1 390 0
 865 00c8 7800005C 		e_b .L54
 866              	.L52:
 867              		.loc 1 393 0
 868 00cc 50E10068 		e_lwz %r7,104(%r1)
 869 00d0 C177     		se_lwz %r7,4(%r7)
 870 00d2 50E7009C 		e_lwz %r7,156(%r7)
 871 00d6 C261     		se_lwz %r6,8(%r1)
 872 00d8 18C684E0 		e_addi %r6,%r6,-32
 873 00dc 4067     		se_srw %r7,%r6
 874 00de 2E17     		se_andi %r7,1
 875 00e0 2A07     		se_cmpi %r7,0
 876 00e2 7F800020 		e_mcrf %cr7,%cr0
 877 00e6 7CE00026 		mfcr %r7
 878 00ea 74E7E007 		e_rlwinm %r7,%r7,28,0xf0000000
 879 00ee 7CE80120 		mtcrf 128,%r7
 880 00f2 7A120008 		e_beq %cr0,.L53
 881              		.loc 1 394 0
 882 00f6 7800002E 		e_b .L54
 883              	.L53:
 884              		.loc 1 387 0 discriminator 2
 885 00fa C271     		se_lwz %r7,8(%r1)
 886 00fc 2007     		se_addi %r7,1
 887 00fe D271     		se_stw %r7,8(%r1)
 888              	.L51:
 889              		.loc 1 387 0 is_stmt 0 discriminator 1
 890 0100 50E10068 		e_lwz %r7,104(%r1)
 891 0104 C077     		se_lwz %r7,0(%r7)
 892 0106 30E700D2 		e_lbz %r7,210(%r7)
 893 010a 00C7     		se_extzb %r7
 894 010c 0176     		se_mr %r6,%r7
 895 010e C271     		se_lwz %r7,8(%r1)
 896 0110 7F863840 		cmpl %cr7,%r6,%r7
 897 0114 7CE00026 		mfcr %r7
 898 0118 74E7E007 		e_rlwinm %r7,%r7,28,0xf0000000
 899 011c 7CE80120 		mtcrf 128,%r7
 900 0120 7A11FF68 		e_bgt %cr0,.L55
 901              	.L54:
 902              		.loc 1 399 0 is_stmt 1
 903 0124 18E18010 		e_addi %r7,%r1,16
 904 0128 50610068 		e_lwz %r3,104(%r1)
 905 012c 708000FC 		e_li %r4,252
 906 0130 C251     		se_lwz %r5,8(%r1)
GAS LISTING C:\Users\bayra\AppData\Local\Temp\ccA56S3H.s 			page 17


 907 0132 0176     		se_mr %r6,%r7
 908 0134 78000001 		e_bl can_lld_readBuffer
 909              		.loc 1 401 0
 910 0138 50E10068 		e_lwz %r7,104(%r1)
 911 013c C077     		se_lwz %r7,0(%r7)
 912 013e C5F7     		se_lwz %r31,20(%r7)
 913 0140 18A18070 		e_addi %r5,%r1,112
 914 0144 18C18010 		e_addi %r6,%r1,16
 915 0148 4D07     		se_li %r7,80
 916 014a 0153     		se_mr %r3,%r5
 917 014c 0164     		se_mr %r4,%r6
 918 014e 0175     		se_mr %r5,%r7
 919 0150 78000001 		e_bl memcpy
 920 0154 18E18070 		e_addi %r7,%r1,112
 921 0158 C231     		se_lwz %r3,8(%r1)
 922 015a 0174     		se_mr %r4,%r7
 923 015c 00BF     		se_mtctr %r31
 924 015e 0007     		se_bctrl
 925              		.loc 1 403 0
 926 0160 C271     		se_lwz %r7,8(%r1)
 927 0162 23E7     		se_cmpli %r7,31
 928 0164 7F800020 		e_mcrf %cr7,%cr0
 929 0168 7CE00026 		mfcr %r7
 930 016c 74E7E007 		e_rlwinm %r7,%r7,28,0xf0000000
 931 0170 7CE80120 		mtcrf 128,%r7
 932 0174 7A11001A 		e_bgt %cr0,.L56
 933              		.loc 1 404 0
 934 0178 50E10068 		e_lwz %r7,104(%r1)
 935 017c C177     		se_lwz %r7,4(%r7)
 936 017e C261     		se_lwz %r6,8(%r1)
 937 0180 4815     		se_li %r5,1
 938 0182 7CA63030 		slw %r6,%r5,%r6
 939 0186 54C70098 		e_stw %r6,152(%r7)
 940 018a 7800001A 		e_b .L50
 941              	.L56:
 942              		.loc 1 406 0
 943 018e 50E10068 		e_lwz %r7,104(%r1)
 944 0192 C177     		se_lwz %r7,4(%r7)
 945 0194 C261     		se_lwz %r6,8(%r1)
 946 0196 18C684E0 		e_addi %r6,%r6,-32
 947 019a 0165     		se_mr %r5,%r6
 948 019c 4816     		se_li %r6,1
 949 019e 4256     		se_slw %r6, %r5
 950 01a0 54C7009C 		e_stw %r6,156(%r7)
 951              	.L50:
 952              		.loc 1 410 0
 953 01a4 50E10068 		e_lwz %r7,104(%r1)
 954 01a8 C177     		se_lwz %r7,4(%r7)
 955 01aa 62C6     		se_bgeni %r6,12
 956 01ac 54C70050 		e_stw %r6,80(%r7)
 957              	.L49:
 958              		.loc 1 415 0
 959 01b0 50E10068 		e_lwz %r7,104(%r1)
 960 01b4 C177     		se_lwz %r7,4(%r7)
 961 01b6 50E70050 		e_lwz %r7,80(%r7)
 962 01ba 2E87     		se_andi %r7,8
 963 01bc 2A07     		se_cmpi %r7,0
GAS LISTING C:\Users\bayra\AppData\Local\Temp\ccA56S3H.s 			page 18


 964 01be 7F800020 		e_mcrf %cr7,%cr0
 965 01c2 7CE00026 		mfcr %r7
 966 01c6 74E7E007 		e_rlwinm %r7,%r7,28,0xf0000000
 967 01ca 7CE80120 		mtcrf 128,%r7
 968 01ce 7A12007E 		e_beq %cr0,.L57
 969              		.loc 1 416 0 discriminator 1
 970 01d2 50E10068 		e_lwz %r7,104(%r1)
 971 01d6 C077     		se_lwz %r7,0(%r7)
 972 01d8 30E70030 		e_lbz %r7,48(%r7)
 973 01dc 00C7     		se_extzb %r7
 974              		.loc 1 415 0 discriminator 1
 975 01de 2207     		se_cmpli %r7,1
 976 01e0 7F800020 		e_mcrf %cr7,%cr0
 977 01e4 7CE00026 		mfcr %r7
 978 01e8 74E7E007 		e_rlwinm %r7,%r7,28,0xf0000000
 979 01ec 7CE80120 		mtcrf 128,%r7
 980 01f0 7A02005C 		e_bne %cr0,.L57
 981              		.loc 1 417 0
 982 01f4 50E10068 		e_lwz %r7,104(%r1)
 983 01f8 C177     		se_lwz %r7,4(%r7)
 984 01fa 50E70058 		e_lwz %r7,88(%r7)
 985 01fe 2E87     		se_andi %r7,8
 986 0200 2A07     		se_cmpi %r7,0
 987 0202 7F800020 		e_mcrf %cr7,%cr0
 988 0206 7CE00026 		mfcr %r7
 989 020a 74E7E007 		e_rlwinm %r7,%r7,28,0xf0000000
 990 020e 7CE80120 		mtcrf 128,%r7
 991 0212 7A02003A 		e_bne %cr0,.L57
 992              		.loc 1 419 0
 993 0216 50E10068 		e_lwz %r7,104(%r1)
 994 021a C077     		se_lwz %r7,0(%r7)
 995 021c CD77     		se_lwz %r7,52(%r7)
 996 021e 2A07     		se_cmpi %r7,0
 997 0220 7F800020 		e_mcrf %cr7,%cr0
 998 0224 7CE00026 		mfcr %r7
 999 0228 74E7E007 		e_rlwinm %r7,%r7,28,0xf0000000
 1000 022c 7CE80120 		mtcrf 128,%r7
 1001 0230 7A120010 		e_beq %cr0,.L58
 1002              		.loc 1 421 0
 1003 0234 50E10068 		e_lwz %r7,104(%r1)
 1004 0238 C077     		se_lwz %r7,0(%r7)
 1005 023a CD77     		se_lwz %r7,52(%r7)
 1006 023c 00B7     		se_mtctr %r7
 1007 023e 0007     		se_bctrl
 1008              	.L58:
 1009              		.loc 1 424 0
 1010 0240 50E10068 		e_lwz %r7,104(%r1)
 1011 0244 C177     		se_lwz %r7,4(%r7)
 1012 0246 4886     		se_li %r6,8
 1013 0248 54C70050 		e_stw %r6,80(%r7)
 1014              	.L57:
 1015              		.loc 1 429 0
 1016 024c 50E10068 		e_lwz %r7,104(%r1)
 1017 0250 C177     		se_lwz %r7,4(%r7)
 1018 0252 50E70050 		e_lwz %r7,80(%r7)
 1019 0256 2E47     		se_andi %r7,4
 1020 0258 2A07     		se_cmpi %r7,0
GAS LISTING C:\Users\bayra\AppData\Local\Temp\ccA56S3H.s 			page 19


 1021 025a 7F800020 		e_mcrf %cr7,%cr0
 1022 025e 7CE00026 		mfcr %r7
 1023 0262 74E7E007 		e_rlwinm %r7,%r7,28,0xf0000000
 1024 0266 7CE80120 		mtcrf 128,%r7
 1025 026a 7A12007E 		e_beq %cr0,.L59
 1026              		.loc 1 430 0 discriminator 1
 1027 026e 50E10068 		e_lwz %r7,104(%r1)
 1028 0272 C077     		se_lwz %r7,0(%r7)
 1029 0274 30E70028 		e_lbz %r7,40(%r7)
 1030 0278 00C7     		se_extzb %r7
 1031              		.loc 1 429 0 discriminator 1
 1032 027a 2207     		se_cmpli %r7,1
 1033 027c 7F800020 		e_mcrf %cr7,%cr0
 1034 0280 7CE00026 		mfcr %r7
 1035 0284 74E7E007 		e_rlwinm %r7,%r7,28,0xf0000000
 1036 0288 7CE80120 		mtcrf 128,%r7
 1037 028c 7A02005C 		e_bne %cr0,.L59
 1038              		.loc 1 431 0
 1039 0290 50E10068 		e_lwz %r7,104(%r1)
 1040 0294 C177     		se_lwz %r7,4(%r7)
 1041 0296 50E70058 		e_lwz %r7,88(%r7)
 1042 029a 2E47     		se_andi %r7,4
 1043 029c 2A07     		se_cmpi %r7,0
 1044 029e 7F800020 		e_mcrf %cr7,%cr0
 1045 02a2 7CE00026 		mfcr %r7
 1046 02a6 74E7E007 		e_rlwinm %r7,%r7,28,0xf0000000
 1047 02aa 7CE80120 		mtcrf 128,%r7
 1048 02ae 7A02003A 		e_bne %cr0,.L59
 1049              		.loc 1 433 0
 1050 02b2 50E10068 		e_lwz %r7,104(%r1)
 1051 02b6 C077     		se_lwz %r7,0(%r7)
 1052 02b8 CB77     		se_lwz %r7,44(%r7)
 1053 02ba 2A07     		se_cmpi %r7,0
 1054 02bc 7F800020 		e_mcrf %cr7,%cr0
 1055 02c0 7CE00026 		mfcr %r7
 1056 02c4 74E7E007 		e_rlwinm %r7,%r7,28,0xf0000000
 1057 02c8 7CE80120 		mtcrf 128,%r7
 1058 02cc 7A120010 		e_beq %cr0,.L60
 1059              		.loc 1 435 0
 1060 02d0 50E10068 		e_lwz %r7,104(%r1)
 1061 02d4 C077     		se_lwz %r7,0(%r7)
 1062 02d6 CB77     		se_lwz %r7,44(%r7)
 1063 02d8 00B7     		se_mtctr %r7
 1064 02da 0007     		se_bctrl
 1065              	.L60:
 1066              		.loc 1 438 0
 1067 02dc 50E10068 		e_lwz %r7,104(%r1)
 1068 02e0 C177     		se_lwz %r7,4(%r7)
 1069 02e2 4846     		se_li %r6,4
 1070 02e4 54C70050 		e_stw %r6,80(%r7)
 1071              	.L59:
 1072              		.loc 1 443 0
 1073 02e8 50E10068 		e_lwz %r7,104(%r1)
 1074 02ec C177     		se_lwz %r7,4(%r7)
 1075 02ee 50E70050 		e_lwz %r7,80(%r7)
 1076 02f2 2E27     		se_andi %r7,2
 1077 02f4 2A07     		se_cmpi %r7,0
GAS LISTING C:\Users\bayra\AppData\Local\Temp\ccA56S3H.s 			page 20


 1078 02f6 7F800020 		e_mcrf %cr7,%cr0
 1079 02fa 7CE00026 		mfcr %r7
 1080 02fe 74E7E007 		e_rlwinm %r7,%r7,28,0xf0000000
 1081 0302 7CE80120 		mtcrf 128,%r7
 1082 0306 7A12007E 		e_beq %cr0,.L61
 1083              		.loc 1 444 0 discriminator 1
 1084 030a 50E10068 		e_lwz %r7,104(%r1)
 1085 030e C077     		se_lwz %r7,0(%r7)
 1086 0310 30E70020 		e_lbz %r7,32(%r7)
 1087 0314 00C7     		se_extzb %r7
 1088              		.loc 1 443 0 discriminator 1
 1089 0316 2A07     		se_cmpi %r7,0
 1090 0318 7F800020 		e_mcrf %cr7,%cr0
 1091 031c 7CE00026 		mfcr %r7
 1092 0320 74E7E007 		e_rlwinm %r7,%r7,28,0xf0000000
 1093 0324 7CE80120 		mtcrf 128,%r7
 1094 0328 7A12005C 		e_beq %cr0,.L61
 1095              		.loc 1 445 0
 1096 032c 50E10068 		e_lwz %r7,104(%r1)
 1097 0330 C177     		se_lwz %r7,4(%r7)
 1098 0332 50E70058 		e_lwz %r7,88(%r7)
 1099 0336 2E27     		se_andi %r7,2
 1100 0338 2A07     		se_cmpi %r7,0
 1101 033a 7F800020 		e_mcrf %cr7,%cr0
 1102 033e 7CE00026 		mfcr %r7
 1103 0342 74E7E007 		e_rlwinm %r7,%r7,28,0xf0000000
 1104 0346 7CE80120 		mtcrf 128,%r7
 1105 034a 7A02003A 		e_bne %cr0,.L61
 1106              		.loc 1 447 0
 1107 034e 50E10068 		e_lwz %r7,104(%r1)
 1108 0352 C077     		se_lwz %r7,0(%r7)
 1109 0354 C977     		se_lwz %r7,36(%r7)
 1110 0356 2A07     		se_cmpi %r7,0
 1111 0358 7F800020 		e_mcrf %cr7,%cr0
 1112 035c 7CE00026 		mfcr %r7
 1113 0360 74E7E007 		e_rlwinm %r7,%r7,28,0xf0000000
 1114 0364 7CE80120 		mtcrf 128,%r7
 1115 0368 7A120010 		e_beq %cr0,.L62
 1116              		.loc 1 449 0
 1117 036c 50E10068 		e_lwz %r7,104(%r1)
 1118 0370 C077     		se_lwz %r7,0(%r7)
 1119 0372 C977     		se_lwz %r7,36(%r7)
 1120 0374 00B7     		se_mtctr %r7
 1121 0376 0007     		se_bctrl
 1122              	.L62:
 1123              		.loc 1 452 0
 1124 0378 50E10068 		e_lwz %r7,104(%r1)
 1125 037c C177     		se_lwz %r7,4(%r7)
 1126 037e 4826     		se_li %r6,2
 1127 0380 54C70050 		e_stw %r6,80(%r7)
 1128              	.L61:
 1129              		.loc 1 457 0
 1130 0384 50E10068 		e_lwz %r7,104(%r1)
 1131 0388 C177     		se_lwz %r7,4(%r7)
 1132 038a 50E70050 		e_lwz %r7,80(%r7)
 1133 038e 2E17     		se_andi %r7,1
 1134 0390 2A07     		se_cmpi %r7,0
GAS LISTING C:\Users\bayra\AppData\Local\Temp\ccA56S3H.s 			page 21


 1135 0392 7F800020 		e_mcrf %cr7,%cr0
 1136 0396 7CE00026 		mfcr %r7
 1137 039a 74E7E007 		e_rlwinm %r7,%r7,28,0xf0000000
 1138 039e 7CE80120 		mtcrf 128,%r7
 1139 03a2 7A1200E8 		e_beq %cr0,.L63
 1140              		.loc 1 458 0 discriminator 1
 1141 03a6 50E10068 		e_lwz %r7,104(%r1)
 1142 03aa C077     		se_lwz %r7,0(%r7)
 1143 03ac 30E70019 		e_lbz %r7,25(%r7)
 1144 03b0 00C7     		se_extzb %r7
 1145              		.loc 1 457 0 discriminator 1
 1146 03b2 2207     		se_cmpli %r7,1
 1147 03b4 7F800020 		e_mcrf %cr7,%cr0
 1148 03b8 7CE00026 		mfcr %r7
 1149 03bc 74E7E007 		e_rlwinm %r7,%r7,28,0xf0000000
 1150 03c0 7CE80120 		mtcrf 128,%r7
 1151 03c4 7A0200C6 		e_bne %cr0,.L63
 1152              		.loc 1 459 0
 1153 03c8 50E10068 		e_lwz %r7,104(%r1)
 1154 03cc C177     		se_lwz %r7,4(%r7)
 1155 03ce 50E70058 		e_lwz %r7,88(%r7)
 1156 03d2 2E17     		se_andi %r7,1
 1157 03d4 2A07     		se_cmpi %r7,0
 1158 03d6 7F800020 		e_mcrf %cr7,%cr0
 1159 03da 7CE00026 		mfcr %r7
 1160 03de 74E7E007 		e_rlwinm %r7,%r7,28,0xf0000000
 1161 03e2 7CE80120 		mtcrf 128,%r7
 1162 03e6 7A0200A4 		e_bne %cr0,.L63
 1163              		.loc 1 461 0
 1164 03ea 50E10068 		e_lwz %r7,104(%r1)
 1165 03ee C077     		se_lwz %r7,0(%r7)
 1166 03f0 C777     		se_lwz %r7,28(%r7)
 1167 03f2 2A07     		se_cmpi %r7,0
 1168 03f4 7F800020 		e_mcrf %cr7,%cr0
 1169 03f8 7CE00026 		mfcr %r7
 1170 03fc 74E7E007 		e_rlwinm %r7,%r7,28,0xf0000000
 1171 0400 7CE80120 		mtcrf 128,%r7
 1172 0404 7A12007A 		e_beq %cr0,.L64
 1173              		.loc 1 462 0
 1174 0408 50E10068 		e_lwz %r7,104(%r1)
 1175 040c C177     		se_lwz %r7,4(%r7)
 1176 040e 50E700A4 		e_lwz %r7,164(%r7)
 1177 0412 6887     		se_srwi %r7,8
 1178 0414 18E7C03F 		e_andi %r7,%r7,63
 1179 0418 00C7     		se_extzb %r7
 1180 041a D271     		se_stw %r7,8(%r1)
 1181              		.loc 1 464 0
 1182 041c 18E18010 		e_addi %r7,%r1,16
 1183 0420 50610068 		e_lwz %r3,104(%r1)
 1184 0424 708000FD 		e_li %r4,253
 1185 0428 C251     		se_lwz %r5,8(%r1)
 1186 042a 0176     		se_mr %r6,%r7
 1187 042c 78000001 		e_bl can_lld_readBuffer
 1188              		.loc 1 466 0
 1189 0430 50E10068 		e_lwz %r7,104(%r1)
 1190 0434 C077     		se_lwz %r7,0(%r7)
 1191 0436 C7F7     		se_lwz %r31,28(%r7)
GAS LISTING C:\Users\bayra\AppData\Local\Temp\ccA56S3H.s 			page 22


 1192 0438 18A18070 		e_addi %r5,%r1,112
 1193 043c 18C18010 		e_addi %r6,%r1,16
 1194 0440 4D07     		se_li %r7,80
 1195 0442 0153     		se_mr %r3,%r5
 1196 0444 0164     		se_mr %r4,%r6
 1197 0446 0175     		se_mr %r5,%r7
 1198 0448 78000001 		e_bl memcpy
 1199 044c 18E18070 		e_addi %r7,%r1,112
 1200 0450 C231     		se_lwz %r3,8(%r1)
 1201 0452 0174     		se_mr %r4,%r7
 1202 0454 00BF     		se_mtctr %r31
 1203 0456 0007     		se_bctrl
 1204              		.loc 1 468 0
 1205 0458 50E10068 		e_lwz %r7,104(%r1)
 1206 045c C167     		se_lwz %r6,4(%r7)
 1207 045e 50E10068 		e_lwz %r7,104(%r1)
 1208 0462 C177     		se_lwz %r7,4(%r7)
 1209 0464 50E700A4 		e_lwz %r7,164(%r7)
 1210 0468 6887     		se_srwi %r7,8
 1211 046a 18E7C03F 		e_andi %r7,%r7,63
 1212 046e 74E5063F 		e_rlwinm %r5,%r7,0,0xff
 1213 0472 50E600A8 		e_lwz %r7,168(%r6)
 1214 0476 74A706BE 		e_rlwimi %r7,%r5,0,26,31
 1215 047a 54E600A8 		e_stw %r7,168(%r6)
 1216              	.L64:
 1217              		.loc 1 471 0
 1218 047e 50E10068 		e_lwz %r7,104(%r1)
 1219 0482 C177     		se_lwz %r7,4(%r7)
 1220 0484 4816     		se_li %r6,1
 1221 0486 54C70050 		e_stw %r6,80(%r7)
 1222              	.L63:
 1223              		.loc 1 476 0
 1224 048a 50E10068 		e_lwz %r7,104(%r1)
 1225 048e C177     		se_lwz %r7,4(%r7)
 1226 0490 50E70050 		e_lwz %r7,80(%r7)
 1227 0494 18E7C080 		e_andi %r7,%r7,128
 1228 0498 2A07     		se_cmpi %r7,0
 1229 049a 7F800020 		e_mcrf %cr7,%cr0
 1230 049e 7CE00026 		mfcr %r7
 1231 04a2 74E7E007 		e_rlwinm %r7,%r7,28,0xf0000000
 1232 04a6 7CE80120 		mtcrf 128,%r7
 1233 04aa 7A120084 		e_beq %cr0,.L65
 1234              		.loc 1 477 0 discriminator 1
 1235 04ae 50E10068 		e_lwz %r7,104(%r1)
 1236 04b2 C077     		se_lwz %r7,0(%r7)
 1237 04b4 30E70050 		e_lbz %r7,80(%r7)
 1238 04b8 00C7     		se_extzb %r7
 1239              		.loc 1 476 0 discriminator 1
 1240 04ba 2207     		se_cmpli %r7,1
 1241 04bc 7F800020 		e_mcrf %cr7,%cr0
 1242 04c0 7CE00026 		mfcr %r7
 1243 04c4 74E7E007 		e_rlwinm %r7,%r7,28,0xf0000000
 1244 04c8 7CE80120 		mtcrf 128,%r7
 1245 04cc 7A020062 		e_bne %cr0,.L65
 1246              		.loc 1 478 0
 1247 04d0 50E10068 		e_lwz %r7,104(%r1)
 1248 04d4 C177     		se_lwz %r7,4(%r7)
GAS LISTING C:\Users\bayra\AppData\Local\Temp\ccA56S3H.s 			page 23


 1249 04d6 50E70058 		e_lwz %r7,88(%r7)
 1250 04da 18E7C080 		e_andi %r7,%r7,128
 1251 04de 2A07     		se_cmpi %r7,0
 1252 04e0 7F800020 		e_mcrf %cr7,%cr0
 1253 04e4 7CE00026 		mfcr %r7
 1254 04e8 74E7E007 		e_rlwinm %r7,%r7,28,0xf0000000
 1255 04ec 7CE80120 		mtcrf 128,%r7
 1256 04f0 7A02003E 		e_bne %cr0,.L65
 1257              		.loc 1 480 0
 1258 04f4 50E10068 		e_lwz %r7,104(%r1)
 1259 04f8 C077     		se_lwz %r7,0(%r7)
 1260 04fa 50E70054 		e_lwz %r7,84(%r7)
 1261 04fe 2A07     		se_cmpi %r7,0
 1262 0500 7F800020 		e_mcrf %cr7,%cr0
 1263 0504 7CE00026 		mfcr %r7
 1264 0508 74E7E007 		e_rlwinm %r7,%r7,28,0xf0000000
 1265 050c 7CE80120 		mtcrf 128,%r7
 1266 0510 7A120012 		e_beq %cr0,.L66
 1267              		.loc 1 482 0
 1268 0514 50E10068 		e_lwz %r7,104(%r1)
 1269 0518 C077     		se_lwz %r7,0(%r7)
 1270 051a 50E70054 		e_lwz %r7,84(%r7)
 1271 051e 00B7     		se_mtctr %r7
 1272 0520 0007     		se_bctrl
 1273              	.L66:
 1274              		.loc 1 485 0
 1275 0522 50E10068 		e_lwz %r7,104(%r1)
 1276 0526 C177     		se_lwz %r7,4(%r7)
 1277 0528 6386     		se_bgeni %r6,24
 1278 052a 54C70050 		e_stw %r6,80(%r7)
 1279              	.L65:
 1280              		.loc 1 490 0
 1281 052e 50E10068 		e_lwz %r7,104(%r1)
 1282 0532 C177     		se_lwz %r7,4(%r7)
 1283 0534 50E70050 		e_lwz %r7,80(%r7)
 1284 0538 18E7C040 		e_andi %r7,%r7,64
 1285 053c 2A07     		se_cmpi %r7,0
 1286 053e 7F800020 		e_mcrf %cr7,%cr0
 1287 0542 7CE00026 		mfcr %r7
 1288 0546 74E7E007 		e_rlwinm %r7,%r7,28,0xf0000000
 1289 054a 7CE80120 		mtcrf 128,%r7
 1290 054e 7A120084 		e_beq %cr0,.L67
 1291              		.loc 1 491 0 discriminator 1
 1292 0552 50E10068 		e_lwz %r7,104(%r1)
 1293 0556 C077     		se_lwz %r7,0(%r7)
 1294 0558 30E70048 		e_lbz %r7,72(%r7)
 1295 055c 00C7     		se_extzb %r7
 1296              		.loc 1 490 0 discriminator 1
 1297 055e 2207     		se_cmpli %r7,1
 1298 0560 7F800020 		e_mcrf %cr7,%cr0
 1299 0564 7CE00026 		mfcr %r7
 1300 0568 74E7E007 		e_rlwinm %r7,%r7,28,0xf0000000
 1301 056c 7CE80120 		mtcrf 128,%r7
 1302 0570 7A020062 		e_bne %cr0,.L67
 1303              		.loc 1 492 0
 1304 0574 50E10068 		e_lwz %r7,104(%r1)
 1305 0578 C177     		se_lwz %r7,4(%r7)
GAS LISTING C:\Users\bayra\AppData\Local\Temp\ccA56S3H.s 			page 24


 1306 057a 50E70058 		e_lwz %r7,88(%r7)
 1307 057e 18E7C040 		e_andi %r7,%r7,64
 1308 0582 2A07     		se_cmpi %r7,0
 1309 0584 7F800020 		e_mcrf %cr7,%cr0
 1310 0588 7CE00026 		mfcr %r7
 1311 058c 74E7E007 		e_rlwinm %r7,%r7,28,0xf0000000
 1312 0590 7CE80120 		mtcrf 128,%r7
 1313 0594 7A02003E 		e_bne %cr0,.L67
 1314              		.loc 1 494 0
 1315 0598 50E10068 		e_lwz %r7,104(%r1)
 1316 059c C077     		se_lwz %r7,0(%r7)
 1317 059e 50E7004C 		e_lwz %r7,76(%r7)
 1318 05a2 2A07     		se_cmpi %r7,0
 1319 05a4 7F800020 		e_mcrf %cr7,%cr0
 1320 05a8 7CE00026 		mfcr %r7
 1321 05ac 74E7E007 		e_rlwinm %r7,%r7,28,0xf0000000
 1322 05b0 7CE80120 		mtcrf 128,%r7
 1323 05b4 7A120012 		e_beq %cr0,.L68
 1324              		.loc 1 496 0
 1325 05b8 50E10068 		e_lwz %r7,104(%r1)
 1326 05bc C077     		se_lwz %r7,0(%r7)
 1327 05be 50E7004C 		e_lwz %r7,76(%r7)
 1328 05c2 00B7     		se_mtctr %r7
 1329 05c4 0007     		se_bctrl
 1330              	.L68:
 1331              		.loc 1 499 0
 1332 05c6 50E10068 		e_lwz %r7,104(%r1)
 1333 05ca C177     		se_lwz %r7,4(%r7)
 1334 05cc 4C06     		se_li %r6,64
 1335 05ce 54C70050 		e_stw %r6,80(%r7)
 1336              	.L67:
 1337              		.loc 1 504 0
 1338 05d2 50E10068 		e_lwz %r7,104(%r1)
 1339 05d6 C177     		se_lwz %r7,4(%r7)
 1340 05d8 50E70050 		e_lwz %r7,80(%r7)
 1341 05dc 18E7C020 		e_andi %r7,%r7,32
 1342 05e0 2A07     		se_cmpi %r7,0
 1343 05e2 7F800020 		e_mcrf %cr7,%cr0
 1344 05e6 7CE00026 		mfcr %r7
 1345 05ea 74E7E007 		e_rlwinm %r7,%r7,28,0xf0000000
 1346 05ee 7CE80120 		mtcrf 128,%r7
 1347 05f2 7A120084 		e_beq %cr0,.L69
 1348              		.loc 1 505 0 discriminator 1
 1349 05f6 50E10068 		e_lwz %r7,104(%r1)
 1350 05fa C077     		se_lwz %r7,0(%r7)
 1351 05fc 30E70040 		e_lbz %r7,64(%r7)
 1352 0600 00C7     		se_extzb %r7
 1353              		.loc 1 504 0 discriminator 1
 1354 0602 2A07     		se_cmpi %r7,0
 1355 0604 7F800020 		e_mcrf %cr7,%cr0
 1356 0608 7CE00026 		mfcr %r7
 1357 060c 74E7E007 		e_rlwinm %r7,%r7,28,0xf0000000
 1358 0610 7CE80120 		mtcrf 128,%r7
 1359 0614 7A120062 		e_beq %cr0,.L69
 1360              		.loc 1 506 0
 1361 0618 50E10068 		e_lwz %r7,104(%r1)
 1362 061c C177     		se_lwz %r7,4(%r7)
GAS LISTING C:\Users\bayra\AppData\Local\Temp\ccA56S3H.s 			page 25


 1363 061e 50E70058 		e_lwz %r7,88(%r7)
 1364 0622 18E7C020 		e_andi %r7,%r7,32
 1365 0626 2A07     		se_cmpi %r7,0
 1366 0628 7F800020 		e_mcrf %cr7,%cr0
 1367 062c 7CE00026 		mfcr %r7
 1368 0630 74E7E007 		e_rlwinm %r7,%r7,28,0xf0000000
 1369 0634 7CE80120 		mtcrf 128,%r7
 1370 0638 7A02003E 		e_bne %cr0,.L69
 1371              		.loc 1 508 0
 1372 063c 50E10068 		e_lwz %r7,104(%r1)
 1373 0640 C077     		se_lwz %r7,0(%r7)
 1374 0642 50E70044 		e_lwz %r7,68(%r7)
 1375 0646 2A07     		se_cmpi %r7,0
 1376 0648 7F800020 		e_mcrf %cr7,%cr0
 1377 064c 7CE00026 		mfcr %r7
 1378 0650 74E7E007 		e_rlwinm %r7,%r7,28,0xf0000000
 1379 0654 7CE80120 		mtcrf 128,%r7
 1380 0658 7A120012 		e_beq %cr0,.L70
 1381              		.loc 1 510 0
 1382 065c 50E10068 		e_lwz %r7,104(%r1)
 1383 0660 C077     		se_lwz %r7,0(%r7)
 1384 0662 50E70044 		e_lwz %r7,68(%r7)
 1385 0666 00B7     		se_mtctr %r7
 1386 0668 0007     		se_bctrl
 1387              	.L70:
 1388              		.loc 1 513 0
 1389 066a 50E10068 		e_lwz %r7,104(%r1)
 1390 066e C177     		se_lwz %r7,4(%r7)
 1391 0670 4A06     		se_li %r6,32
 1392 0672 54C70050 		e_stw %r6,80(%r7)
 1393              	.L69:
 1394              		.loc 1 518 0
 1395 0676 50E10068 		e_lwz %r7,104(%r1)
 1396 067a C177     		se_lwz %r7,4(%r7)
 1397 067c 50E70050 		e_lwz %r7,80(%r7)
 1398 0680 2F07     		se_andi %r7,16
 1399 0682 2A07     		se_cmpi %r7,0
 1400 0684 7F800020 		e_mcrf %cr7,%cr0
 1401 0688 7CE00026 		mfcr %r7
 1402 068c 74E7E007 		e_rlwinm %r7,%r7,28,0xf0000000
 1403 0690 7CE80120 		mtcrf 128,%r7
 1404 0694 7A1200E8 		e_beq %cr0,.L71
 1405              		.loc 1 519 0 discriminator 1
 1406 0698 50E10068 		e_lwz %r7,104(%r1)
 1407 069c C077     		se_lwz %r7,0(%r7)
 1408 069e 30E70039 		e_lbz %r7,57(%r7)
 1409 06a2 00C7     		se_extzb %r7
 1410              		.loc 1 518 0 discriminator 1
 1411 06a4 2207     		se_cmpli %r7,1
 1412 06a6 7F800020 		e_mcrf %cr7,%cr0
 1413 06aa 7CE00026 		mfcr %r7
 1414 06ae 74E7E007 		e_rlwinm %r7,%r7,28,0xf0000000
 1415 06b2 7CE80120 		mtcrf 128,%r7
 1416 06b6 7A0200C6 		e_bne %cr0,.L71
 1417              		.loc 1 520 0
 1418 06ba 50E10068 		e_lwz %r7,104(%r1)
 1419 06be C177     		se_lwz %r7,4(%r7)
GAS LISTING C:\Users\bayra\AppData\Local\Temp\ccA56S3H.s 			page 26


 1420 06c0 50E70058 		e_lwz %r7,88(%r7)
 1421 06c4 2F07     		se_andi %r7,16
 1422 06c6 2A07     		se_cmpi %r7,0
 1423 06c8 7F800020 		e_mcrf %cr7,%cr0
 1424 06cc 7CE00026 		mfcr %r7
 1425 06d0 74E7E007 		e_rlwinm %r7,%r7,28,0xf0000000
 1426 06d4 7CE80120 		mtcrf 128,%r7
 1427 06d8 7A0200A4 		e_bne %cr0,.L71
 1428              		.loc 1 522 0
 1429 06dc 50E10068 		e_lwz %r7,104(%r1)
 1430 06e0 C077     		se_lwz %r7,0(%r7)
 1431 06e2 CF77     		se_lwz %r7,60(%r7)
 1432 06e4 2A07     		se_cmpi %r7,0
 1433 06e6 7F800020 		e_mcrf %cr7,%cr0
 1434 06ea 7CE00026 		mfcr %r7
 1435 06ee 74E7E007 		e_rlwinm %r7,%r7,28,0xf0000000
 1436 06f2 7CE80120 		mtcrf 128,%r7
 1437 06f6 7A12007A 		e_beq %cr0,.L72
 1438              		.loc 1 523 0
 1439 06fa 50E10068 		e_lwz %r7,104(%r1)
 1440 06fe C177     		se_lwz %r7,4(%r7)
 1441 0700 50E700B4 		e_lwz %r7,180(%r7)
 1442 0704 6887     		se_srwi %r7,8
 1443 0706 18E7C03F 		e_andi %r7,%r7,63
 1444 070a 00C7     		se_extzb %r7
 1445 070c D271     		se_stw %r7,8(%r1)
 1446              		.loc 1 525 0
 1447 070e 18E18010 		e_addi %r7,%r1,16
 1448 0712 50610068 		e_lwz %r3,104(%r1)
 1449 0716 708000FE 		e_li %r4,254
 1450 071a C251     		se_lwz %r5,8(%r1)
 1451 071c 0176     		se_mr %r6,%r7
 1452 071e 78000001 		e_bl can_lld_readBuffer
 1453              		.loc 1 527 0
 1454 0722 50E10068 		e_lwz %r7,104(%r1)
 1455 0726 C077     		se_lwz %r7,0(%r7)
 1456 0728 CFF7     		se_lwz %r31,60(%r7)
 1457 072a 18A18070 		e_addi %r5,%r1,112
 1458 072e 18C18010 		e_addi %r6,%r1,16
 1459 0732 4D07     		se_li %r7,80
 1460 0734 0153     		se_mr %r3,%r5
 1461 0736 0164     		se_mr %r4,%r6
 1462 0738 0175     		se_mr %r5,%r7
 1463 073a 78000001 		e_bl memcpy
 1464 073e 18E18070 		e_addi %r7,%r1,112
 1465 0742 C231     		se_lwz %r3,8(%r1)
 1466 0744 0174     		se_mr %r4,%r7
 1467 0746 00BF     		se_mtctr %r31
 1468 0748 0007     		se_bctrl
 1469              		.loc 1 529 0
 1470 074a 50E10068 		e_lwz %r7,104(%r1)
 1471 074e C167     		se_lwz %r6,4(%r7)
 1472 0750 50E10068 		e_lwz %r7,104(%r1)
 1473 0754 C177     		se_lwz %r7,4(%r7)
 1474 0756 50E700B4 		e_lwz %r7,180(%r7)
 1475 075a 6887     		se_srwi %r7,8
 1476 075c 18E7C03F 		e_andi %r7,%r7,63
GAS LISTING C:\Users\bayra\AppData\Local\Temp\ccA56S3H.s 			page 27


 1477 0760 74E5063F 		e_rlwinm %r5,%r7,0,0xff
 1478 0764 50E600B8 		e_lwz %r7,184(%r6)
 1479 0768 74A706BE 		e_rlwimi %r7,%r5,0,26,31
 1480 076c 54E600B8 		e_stw %r7,184(%r6)
 1481              	.L72:
 1482              		.loc 1 532 0
 1483 0770 50E10068 		e_lwz %r7,104(%r1)
 1484 0774 C177     		se_lwz %r7,4(%r7)
 1485 0776 4906     		se_li %r6,16
 1486 0778 54C70050 		e_stw %r6,80(%r7)
 1487              	.L71:
 1488              		.loc 1 537 0
 1489 077c 50E10068 		e_lwz %r7,104(%r1)
 1490 0780 C177     		se_lwz %r7,4(%r7)
 1491 0782 50E70050 		e_lwz %r7,80(%r7)
 1492 0786 70E7EFF6 		e_and2is. %r7,0x3ff6
 1493 078a 2A07     		se_cmpi %r7,0
 1494 078c 7F800020 		e_mcrf %cr7,%cr0
 1495 0790 7CE00026 		mfcr %r7
 1496 0794 74E7E007 		e_rlwinm %r7,%r7,28,0xf0000000
 1497 0798 7CE80120 		mtcrf 128,%r7
 1498 079c 7A120088 		e_beq %cr0,.L48
 1499              	.LBB2:
 1500              		.loc 1 538 0
 1501 07a0 50E10068 		e_lwz %r7,104(%r1)
 1502 07a4 C177     		se_lwz %r7,4(%r7)
 1503 07a6 50E70044 		e_lwz %r7,68(%r7)
 1504 07aa D371     		se_stw %r7,12(%r1)
 1505              		.loc 1 539 0
 1506 07ac 50E10068 		e_lwz %r7,104(%r1)
 1507 07b0 C077     		se_lwz %r7,0(%r7)
 1508 07b2 50E700D8 		e_lwz %r7,216(%r7)
 1509 07b6 2A07     		se_cmpi %r7,0
 1510 07b8 7F800020 		e_mcrf %cr7,%cr0
 1511 07bc 7CE00026 		mfcr %r7
 1512 07c0 74E7E007 		e_rlwinm %r7,%r7,28,0xf0000000
 1513 07c4 7CE80120 		mtcrf 128,%r7
 1514 07c8 7A120018 		e_beq %cr0,.L74
 1515              		.loc 1 540 0
 1516 07cc 50E10068 		e_lwz %r7,104(%r1)
 1517 07d0 C077     		se_lwz %r7,0(%r7)
 1518 07d2 50E700D8 		e_lwz %r7,216(%r7)
 1519 07d6 50610068 		e_lwz %r3,104(%r1)
 1520 07da C341     		se_lwz %r4,12(%r1)
 1521 07dc 00B7     		se_mtctr %r7
 1522 07de 0007     		se_bctrl
 1523              	.L74:
 1524              		.loc 1 543 0
 1525 07e0 50E10068 		e_lwz %r7,104(%r1)
 1526 07e4 C177     		se_lwz %r7,4(%r7)
 1527 07e6 50E70050 		e_lwz %r7,80(%r7)
 1528 07ea 6997     		se_srwi %r7,25
 1529 07ec 2E17     		se_andi %r7,1
 1530 07ee 00C7     		se_extzb %r7
 1531 07f0 2207     		se_cmpli %r7,1
 1532 07f2 7F800020 		e_mcrf %cr7,%cr0
 1533 07f6 7CE00026 		mfcr %r7
GAS LISTING C:\Users\bayra\AppData\Local\Temp\ccA56S3H.s 			page 28


 1534 07fa 74E7E007 		e_rlwinm %r7,%r7,28,0xf0000000
 1535 07fe 7CE80120 		mtcrf 128,%r7
 1536 0802 7A020014 		e_bne %cr0,.L75
 1537              		.loc 1 545 0
 1538 0806 50E10068 		e_lwz %r7,104(%r1)
 1539 080a C167     		se_lwz %r6,4(%r7)
 1540 080c C676     		se_lwz %r7,24(%r6)
 1541 080e 4805     		se_li %r5,0
 1542 0810 74A707FE 		e_rlwimi %r7,%r5,0,31,31
 1543 0814 D676     		se_stw %r7,24(%r6)
 1544              	.L75:
 1545              		.loc 1 548 0
 1546 0816 50E10068 		e_lwz %r7,104(%r1)
 1547 081a C177     		se_lwz %r7,4(%r7)
 1548 081c 70C7E7F6 		e_lis %r6,0x3ff6
 1549 0820 54C70050 		e_stw %r6,80(%r7)
 1550              	.L48:
 1551              	.LBE2:
 1552              		.loc 1 550 0
 1553 0824 500100CC 		e_lwz %r0,204(%r1)
 1554 0828 0090     		se_mtlr %r0
 1555 082a 53E100C4 		e_lwz %r31,196(%r1)
 1556 082e 182180C8 		e_addi %r1,%r1,200
 1557              	.LCFI9:
 1558              		.cfi_restore 31
 1559              		.cfi_def_cfa_offset 0
 1560 0832 0004     		se_blr
 1561              		.cfi_endproc
 1562              	.LFE7:
 1563              		.size	can_lld_l0_handler, .-can_lld_l0_handler
 1564              		.section	.text.can_lld_l1_handler,"axv",@progbits
 1565              		.align 1
 1566              		.p2align 4,,15
 1567              		.type	can_lld_l1_handler, @function
 1568              	can_lld_l1_handler:
 1569              	.LFB8:
 1570              		.loc 1 560 0
 1571              		.cfi_startproc
 1572 0000 701F7F38 		e_li %r0,-200
 1573 0004 7C21016E 		stwux %r1,%r1,%r0
 1574              	.LCFI10:
 1575              		.cfi_def_cfa_offset 200
 1576 0008 0080     		se_mflr %r0
 1577 000a 540100CC 		e_stw %r0,204(%r1)
 1578 000e 57E100C4 		e_stw %r31,196(%r1)
 1579              		.cfi_offset 65, 4
 1580              		.cfi_offset 31, -4
 1581 0012 54610068 		e_stw %r3,104(%r1)
 1582              		.loc 1 563 0
 1583 0016 4807     		se_li %r7,0
 1584 0018 D271     		se_stw %r7,8(%r1)
 1585              		.loc 1 566 0
 1586 001a 50E10068 		e_lwz %r7,104(%r1)
 1587 001e C177     		se_lwz %r7,4(%r7)
 1588 0020 50E70050 		e_lwz %r7,80(%r7)
 1589 0024 18E7C208 		e_andi %r7,%r7,524288
 1590 0028 2A07     		se_cmpi %r7,0
GAS LISTING C:\Users\bayra\AppData\Local\Temp\ccA56S3H.s 			page 29


 1591 002a 7F800020 		e_mcrf %cr7,%cr0
 1592 002e 7CE00026 		mfcr %r7
 1593 0032 74E7E007 		e_rlwinm %r7,%r7,28,0xf0000000
 1594 0036 7CE80120 		mtcrf 128,%r7
 1595 003a 7A120176 		e_beq %cr0,.L77
 1596              		.loc 1 567 0
 1597 003e 50E10068 		e_lwz %r7,104(%r1)
 1598 0042 C177     		se_lwz %r7,4(%r7)
 1599 0044 50E70058 		e_lwz %r7,88(%r7)
 1600 0048 18E7C208 		e_andi %r7,%r7,524288
 1601 004c 2A07     		se_cmpi %r7,0
 1602 004e 7F800020 		e_mcrf %cr7,%cr0
 1603 0052 7CE00026 		mfcr %r7
 1604 0056 74E7E007 		e_rlwinm %r7,%r7,28,0xf0000000
 1605 005a 7CE80120 		mtcrf 128,%r7
 1606 005e 7A120152 		e_beq %cr0,.L77
 1607              		.loc 1 569 0
 1608 0062 50E10068 		e_lwz %r7,104(%r1)
 1609 0066 C077     		se_lwz %r7,0(%r7)
 1610 0068 C577     		se_lwz %r7,20(%r7)
 1611 006a 2A07     		se_cmpi %r7,0
 1612 006c 7F800020 		e_mcrf %cr7,%cr0
 1613 0070 7CE00026 		mfcr %r7
 1614 0074 74E7E007 		e_rlwinm %r7,%r7,28,0xf0000000
 1615 0078 7CE80120 		mtcrf 128,%r7
 1616 007c 7A120128 		e_beq %cr0,.L78
 1617              		.loc 1 570 0
 1618 0080 4807     		se_li %r7,0
 1619 0082 D271     		se_stw %r7,8(%r1)
 1620 0084 7800007C 		e_b .L79
 1621              	.L83:
 1622              		.loc 1 571 0
 1623 0088 C271     		se_lwz %r7,8(%r1)
 1624 008a 23E7     		se_cmpli %r7,31
 1625 008c 7F800020 		e_mcrf %cr7,%cr0
 1626 0090 7CE00026 		mfcr %r7
 1627 0094 74E7E007 		e_rlwinm %r7,%r7,28,0xf0000000
 1628 0098 7CE80120 		mtcrf 128,%r7
 1629 009c 7A110030 		e_bgt %cr0,.L80
 1630              		.loc 1 572 0
 1631 00a0 50E10068 		e_lwz %r7,104(%r1)
 1632 00a4 C177     		se_lwz %r7,4(%r7)
 1633 00a6 50C70098 		e_lwz %r6,152(%r7)
 1634 00aa C271     		se_lwz %r7,8(%r1)
 1635 00ac 7CC73C30 		srw %r7,%r6,%r7
 1636 00b0 2E17     		se_andi %r7,1
 1637 00b2 2A07     		se_cmpi %r7,0
 1638 00b4 7F800020 		e_mcrf %cr7,%cr0
 1639 00b8 7CE00026 		mfcr %r7
 1640 00bc 74E7E007 		e_rlwinm %r7,%r7,28,0xf0000000
 1641 00c0 7CE80120 		mtcrf 128,%r7
 1642 00c4 7A120036 		e_beq %cr0,.L81
 1643              		.loc 1 573 0
 1644 00c8 7800005C 		e_b .L82
 1645              	.L80:
 1646              		.loc 1 576 0
 1647 00cc 50E10068 		e_lwz %r7,104(%r1)
GAS LISTING C:\Users\bayra\AppData\Local\Temp\ccA56S3H.s 			page 30


 1648 00d0 C177     		se_lwz %r7,4(%r7)
 1649 00d2 50E7009C 		e_lwz %r7,156(%r7)
 1650 00d6 C261     		se_lwz %r6,8(%r1)
 1651 00d8 18C684E0 		e_addi %r6,%r6,-32
 1652 00dc 4067     		se_srw %r7,%r6
 1653 00de 2E17     		se_andi %r7,1
 1654 00e0 2A07     		se_cmpi %r7,0
 1655 00e2 7F800020 		e_mcrf %cr7,%cr0
 1656 00e6 7CE00026 		mfcr %r7
 1657 00ea 74E7E007 		e_rlwinm %r7,%r7,28,0xf0000000
 1658 00ee 7CE80120 		mtcrf 128,%r7
 1659 00f2 7A120008 		e_beq %cr0,.L81
 1660              		.loc 1 577 0
 1661 00f6 7800002E 		e_b .L82
 1662              	.L81:
 1663              		.loc 1 570 0 discriminator 2
 1664 00fa C271     		se_lwz %r7,8(%r1)
 1665 00fc 2007     		se_addi %r7,1
 1666 00fe D271     		se_stw %r7,8(%r1)
 1667              	.L79:
 1668              		.loc 1 570 0 is_stmt 0 discriminator 1
 1669 0100 50E10068 		e_lwz %r7,104(%r1)
 1670 0104 C077     		se_lwz %r7,0(%r7)
 1671 0106 30E700D2 		e_lbz %r7,210(%r7)
 1672 010a 00C7     		se_extzb %r7
 1673 010c 0176     		se_mr %r6,%r7
 1674 010e C271     		se_lwz %r7,8(%r1)
 1675 0110 7F863840 		cmpl %cr7,%r6,%r7
 1676 0114 7CE00026 		mfcr %r7
 1677 0118 74E7E007 		e_rlwinm %r7,%r7,28,0xf0000000
 1678 011c 7CE80120 		mtcrf 128,%r7
 1679 0120 7A11FF68 		e_bgt %cr0,.L83
 1680              	.L82:
 1681              		.loc 1 582 0 is_stmt 1
 1682 0124 18E1800C 		e_addi %r7,%r1,12
 1683 0128 50610068 		e_lwz %r3,104(%r1)
 1684 012c 708000FC 		e_li %r4,252
 1685 0130 C251     		se_lwz %r5,8(%r1)
 1686 0132 0176     		se_mr %r6,%r7
 1687 0134 78000001 		e_bl can_lld_readBuffer
 1688              		.loc 1 584 0
 1689 0138 50E10068 		e_lwz %r7,104(%r1)
 1690 013c C077     		se_lwz %r7,0(%r7)
 1691 013e C5F7     		se_lwz %r31,20(%r7)
 1692 0140 18A18070 		e_addi %r5,%r1,112
 1693 0144 18C1800C 		e_addi %r6,%r1,12
 1694 0148 4D07     		se_li %r7,80
 1695 014a 0153     		se_mr %r3,%r5
 1696 014c 0164     		se_mr %r4,%r6
 1697 014e 0175     		se_mr %r5,%r7
 1698 0150 78000001 		e_bl memcpy
 1699 0154 18E18070 		e_addi %r7,%r1,112
 1700 0158 C231     		se_lwz %r3,8(%r1)
 1701 015a 0174     		se_mr %r4,%r7
 1702 015c 00BF     		se_mtctr %r31
 1703 015e 0007     		se_bctrl
 1704              		.loc 1 586 0
GAS LISTING C:\Users\bayra\AppData\Local\Temp\ccA56S3H.s 			page 31


 1705 0160 C271     		se_lwz %r7,8(%r1)
 1706 0162 23E7     		se_cmpli %r7,31
 1707 0164 7F800020 		e_mcrf %cr7,%cr0
 1708 0168 7CE00026 		mfcr %r7
 1709 016c 74E7E007 		e_rlwinm %r7,%r7,28,0xf0000000
 1710 0170 7CE80120 		mtcrf 128,%r7
 1711 0174 7A11001A 		e_bgt %cr0,.L84
 1712              		.loc 1 587 0
 1713 0178 50E10068 		e_lwz %r7,104(%r1)
 1714 017c C177     		se_lwz %r7,4(%r7)
 1715 017e C261     		se_lwz %r6,8(%r1)
 1716 0180 4815     		se_li %r5,1
 1717 0182 7CA63030 		slw %r6,%r5,%r6
 1718 0186 54C70098 		e_stw %r6,152(%r7)
 1719 018a 7800001A 		e_b .L78
 1720              	.L84:
 1721              		.loc 1 589 0
 1722 018e 50E10068 		e_lwz %r7,104(%r1)
 1723 0192 C177     		se_lwz %r7,4(%r7)
 1724 0194 C261     		se_lwz %r6,8(%r1)
 1725 0196 18C684E0 		e_addi %r6,%r6,-32
 1726 019a 0165     		se_mr %r5,%r6
 1727 019c 4816     		se_li %r6,1
 1728 019e 4256     		se_slw %r6, %r5
 1729 01a0 54C7009C 		e_stw %r6,156(%r7)
 1730              	.L78:
 1731              		.loc 1 593 0
 1732 01a4 50E10068 		e_lwz %r7,104(%r1)
 1733 01a8 C177     		se_lwz %r7,4(%r7)
 1734 01aa 62C6     		se_bgeni %r6,12
 1735 01ac 54C70050 		e_stw %r6,80(%r7)
 1736              	.L77:
 1737              		.loc 1 598 0
 1738 01b0 50E10068 		e_lwz %r7,104(%r1)
 1739 01b4 C177     		se_lwz %r7,4(%r7)
 1740 01b6 50E70050 		e_lwz %r7,80(%r7)
 1741 01ba 2E87     		se_andi %r7,8
 1742 01bc 2A07     		se_cmpi %r7,0
 1743 01be 7F800020 		e_mcrf %cr7,%cr0
 1744 01c2 7CE00026 		mfcr %r7
 1745 01c6 74E7E007 		e_rlwinm %r7,%r7,28,0xf0000000
 1746 01ca 7CE80120 		mtcrf 128,%r7
 1747 01ce 7A12007E 		e_beq %cr0,.L85
 1748              		.loc 1 599 0 discriminator 1
 1749 01d2 50E10068 		e_lwz %r7,104(%r1)
 1750 01d6 C077     		se_lwz %r7,0(%r7)
 1751 01d8 30E70030 		e_lbz %r7,48(%r7)
 1752 01dc 00C7     		se_extzb %r7
 1753              		.loc 1 598 0 discriminator 1
 1754 01de 2207     		se_cmpli %r7,1
 1755 01e0 7F800020 		e_mcrf %cr7,%cr0
 1756 01e4 7CE00026 		mfcr %r7
 1757 01e8 74E7E007 		e_rlwinm %r7,%r7,28,0xf0000000
 1758 01ec 7CE80120 		mtcrf 128,%r7
 1759 01f0 7A02005C 		e_bne %cr0,.L85
 1760              		.loc 1 600 0
 1761 01f4 50E10068 		e_lwz %r7,104(%r1)
GAS LISTING C:\Users\bayra\AppData\Local\Temp\ccA56S3H.s 			page 32


 1762 01f8 C177     		se_lwz %r7,4(%r7)
 1763 01fa 50E70058 		e_lwz %r7,88(%r7)
 1764 01fe 2E87     		se_andi %r7,8
 1765 0200 2A07     		se_cmpi %r7,0
 1766 0202 7F800020 		e_mcrf %cr7,%cr0
 1767 0206 7CE00026 		mfcr %r7
 1768 020a 74E7E007 		e_rlwinm %r7,%r7,28,0xf0000000
 1769 020e 7CE80120 		mtcrf 128,%r7
 1770 0212 7A12003A 		e_beq %cr0,.L85
 1771              		.loc 1 602 0
 1772 0216 50E10068 		e_lwz %r7,104(%r1)
 1773 021a C077     		se_lwz %r7,0(%r7)
 1774 021c CD77     		se_lwz %r7,52(%r7)
 1775 021e 2A07     		se_cmpi %r7,0
 1776 0220 7F800020 		e_mcrf %cr7,%cr0
 1777 0224 7CE00026 		mfcr %r7
 1778 0228 74E7E007 		e_rlwinm %r7,%r7,28,0xf0000000
 1779 022c 7CE80120 		mtcrf 128,%r7
 1780 0230 7A120010 		e_beq %cr0,.L86
 1781              		.loc 1 604 0
 1782 0234 50E10068 		e_lwz %r7,104(%r1)
 1783 0238 C077     		se_lwz %r7,0(%r7)
 1784 023a CD77     		se_lwz %r7,52(%r7)
 1785 023c 00B7     		se_mtctr %r7
 1786 023e 0007     		se_bctrl
 1787              	.L86:
 1788              		.loc 1 607 0
 1789 0240 50E10068 		e_lwz %r7,104(%r1)
 1790 0244 C177     		se_lwz %r7,4(%r7)
 1791 0246 4886     		se_li %r6,8
 1792 0248 54C70050 		e_stw %r6,80(%r7)
 1793              	.L85:
 1794              		.loc 1 612 0
 1795 024c 50E10068 		e_lwz %r7,104(%r1)
 1796 0250 C177     		se_lwz %r7,4(%r7)
 1797 0252 50E70050 		e_lwz %r7,80(%r7)
 1798 0256 2E47     		se_andi %r7,4
 1799 0258 2A07     		se_cmpi %r7,0
 1800 025a 7F800020 		e_mcrf %cr7,%cr0
 1801 025e 7CE00026 		mfcr %r7
 1802 0262 74E7E007 		e_rlwinm %r7,%r7,28,0xf0000000
 1803 0266 7CE80120 		mtcrf 128,%r7
 1804 026a 7A12007E 		e_beq %cr0,.L87
 1805              		.loc 1 613 0 discriminator 1
 1806 026e 50E10068 		e_lwz %r7,104(%r1)
 1807 0272 C077     		se_lwz %r7,0(%r7)
 1808 0274 30E70028 		e_lbz %r7,40(%r7)
 1809 0278 00C7     		se_extzb %r7
 1810              		.loc 1 612 0 discriminator 1
 1811 027a 2207     		se_cmpli %r7,1
 1812 027c 7F800020 		e_mcrf %cr7,%cr0
 1813 0280 7CE00026 		mfcr %r7
 1814 0284 74E7E007 		e_rlwinm %r7,%r7,28,0xf0000000
 1815 0288 7CE80120 		mtcrf 128,%r7
 1816 028c 7A02005C 		e_bne %cr0,.L87
 1817              		.loc 1 614 0
 1818 0290 50E10068 		e_lwz %r7,104(%r1)
GAS LISTING C:\Users\bayra\AppData\Local\Temp\ccA56S3H.s 			page 33


 1819 0294 C177     		se_lwz %r7,4(%r7)
 1820 0296 50E70058 		e_lwz %r7,88(%r7)
 1821 029a 2E47     		se_andi %r7,4
 1822 029c 2A07     		se_cmpi %r7,0
 1823 029e 7F800020 		e_mcrf %cr7,%cr0
 1824 02a2 7CE00026 		mfcr %r7
 1825 02a6 74E7E007 		e_rlwinm %r7,%r7,28,0xf0000000
 1826 02aa 7CE80120 		mtcrf 128,%r7
 1827 02ae 7A12003A 		e_beq %cr0,.L87
 1828              		.loc 1 616 0
 1829 02b2 50E10068 		e_lwz %r7,104(%r1)
 1830 02b6 C077     		se_lwz %r7,0(%r7)
 1831 02b8 CB77     		se_lwz %r7,44(%r7)
 1832 02ba 2A07     		se_cmpi %r7,0
 1833 02bc 7F800020 		e_mcrf %cr7,%cr0
 1834 02c0 7CE00026 		mfcr %r7
 1835 02c4 74E7E007 		e_rlwinm %r7,%r7,28,0xf0000000
 1836 02c8 7CE80120 		mtcrf 128,%r7
 1837 02cc 7A120010 		e_beq %cr0,.L88
 1838              		.loc 1 618 0
 1839 02d0 50E10068 		e_lwz %r7,104(%r1)
 1840 02d4 C077     		se_lwz %r7,0(%r7)
 1841 02d6 CB77     		se_lwz %r7,44(%r7)
 1842 02d8 00B7     		se_mtctr %r7
 1843 02da 0007     		se_bctrl
 1844              	.L88:
 1845              		.loc 1 621 0
 1846 02dc 50E10068 		e_lwz %r7,104(%r1)
 1847 02e0 C177     		se_lwz %r7,4(%r7)
 1848 02e2 4846     		se_li %r6,4
 1849 02e4 54C70050 		e_stw %r6,80(%r7)
 1850              	.L87:
 1851              		.loc 1 626 0
 1852 02e8 50E10068 		e_lwz %r7,104(%r1)
 1853 02ec C177     		se_lwz %r7,4(%r7)
 1854 02ee 50E70050 		e_lwz %r7,80(%r7)
 1855 02f2 2E27     		se_andi %r7,2
 1856 02f4 2A07     		se_cmpi %r7,0
 1857 02f6 7F800020 		e_mcrf %cr7,%cr0
 1858 02fa 7CE00026 		mfcr %r7
 1859 02fe 74E7E007 		e_rlwinm %r7,%r7,28,0xf0000000
 1860 0302 7CE80120 		mtcrf 128,%r7
 1861 0306 7A12007E 		e_beq %cr0,.L89
 1862              		.loc 1 627 0 discriminator 1
 1863 030a 50E10068 		e_lwz %r7,104(%r1)
 1864 030e C077     		se_lwz %r7,0(%r7)
 1865 0310 30E70020 		e_lbz %r7,32(%r7)
 1866 0314 00C7     		se_extzb %r7
 1867              		.loc 1 626 0 discriminator 1
 1868 0316 2A07     		se_cmpi %r7,0
 1869 0318 7F800020 		e_mcrf %cr7,%cr0
 1870 031c 7CE00026 		mfcr %r7
 1871 0320 74E7E007 		e_rlwinm %r7,%r7,28,0xf0000000
 1872 0324 7CE80120 		mtcrf 128,%r7
 1873 0328 7A12005C 		e_beq %cr0,.L89
 1874              		.loc 1 628 0
 1875 032c 50E10068 		e_lwz %r7,104(%r1)
GAS LISTING C:\Users\bayra\AppData\Local\Temp\ccA56S3H.s 			page 34


 1876 0330 C177     		se_lwz %r7,4(%r7)
 1877 0332 50E70058 		e_lwz %r7,88(%r7)
 1878 0336 2E27     		se_andi %r7,2
 1879 0338 2A07     		se_cmpi %r7,0
 1880 033a 7F800020 		e_mcrf %cr7,%cr0
 1881 033e 7CE00026 		mfcr %r7
 1882 0342 74E7E007 		e_rlwinm %r7,%r7,28,0xf0000000
 1883 0346 7CE80120 		mtcrf 128,%r7
 1884 034a 7A12003A 		e_beq %cr0,.L89
 1885              		.loc 1 630 0
 1886 034e 50E10068 		e_lwz %r7,104(%r1)
 1887 0352 C077     		se_lwz %r7,0(%r7)
 1888 0354 C977     		se_lwz %r7,36(%r7)
 1889 0356 2A07     		se_cmpi %r7,0
 1890 0358 7F800020 		e_mcrf %cr7,%cr0
 1891 035c 7CE00026 		mfcr %r7
 1892 0360 74E7E007 		e_rlwinm %r7,%r7,28,0xf0000000
 1893 0364 7CE80120 		mtcrf 128,%r7
 1894 0368 7A120010 		e_beq %cr0,.L90
 1895              		.loc 1 632 0
 1896 036c 50E10068 		e_lwz %r7,104(%r1)
 1897 0370 C077     		se_lwz %r7,0(%r7)
 1898 0372 C977     		se_lwz %r7,36(%r7)
 1899 0374 00B7     		se_mtctr %r7
 1900 0376 0007     		se_bctrl
 1901              	.L90:
 1902              		.loc 1 635 0
 1903 0378 50E10068 		e_lwz %r7,104(%r1)
 1904 037c C177     		se_lwz %r7,4(%r7)
 1905 037e 4826     		se_li %r6,2
 1906 0380 54C70050 		e_stw %r6,80(%r7)
 1907              	.L89:
 1908              		.loc 1 640 0
 1909 0384 50E10068 		e_lwz %r7,104(%r1)
 1910 0388 C177     		se_lwz %r7,4(%r7)
 1911 038a 50E70050 		e_lwz %r7,80(%r7)
 1912 038e 2E17     		se_andi %r7,1
 1913 0390 2A07     		se_cmpi %r7,0
 1914 0392 7F800020 		e_mcrf %cr7,%cr0
 1915 0396 7CE00026 		mfcr %r7
 1916 039a 74E7E007 		e_rlwinm %r7,%r7,28,0xf0000000
 1917 039e 7CE80120 		mtcrf 128,%r7
 1918 03a2 7A1200E8 		e_beq %cr0,.L91
 1919              		.loc 1 641 0 discriminator 1
 1920 03a6 50E10068 		e_lwz %r7,104(%r1)
 1921 03aa C077     		se_lwz %r7,0(%r7)
 1922 03ac 30E70019 		e_lbz %r7,25(%r7)
 1923 03b0 00C7     		se_extzb %r7
 1924              		.loc 1 640 0 discriminator 1
 1925 03b2 2207     		se_cmpli %r7,1
 1926 03b4 7F800020 		e_mcrf %cr7,%cr0
 1927 03b8 7CE00026 		mfcr %r7
 1928 03bc 74E7E007 		e_rlwinm %r7,%r7,28,0xf0000000
 1929 03c0 7CE80120 		mtcrf 128,%r7
 1930 03c4 7A0200C6 		e_bne %cr0,.L91
 1931              		.loc 1 642 0
 1932 03c8 50E10068 		e_lwz %r7,104(%r1)
GAS LISTING C:\Users\bayra\AppData\Local\Temp\ccA56S3H.s 			page 35


 1933 03cc C177     		se_lwz %r7,4(%r7)
 1934 03ce 50E70058 		e_lwz %r7,88(%r7)
 1935 03d2 2E17     		se_andi %r7,1
 1936 03d4 2A07     		se_cmpi %r7,0
 1937 03d6 7F800020 		e_mcrf %cr7,%cr0
 1938 03da 7CE00026 		mfcr %r7
 1939 03de 74E7E007 		e_rlwinm %r7,%r7,28,0xf0000000
 1940 03e2 7CE80120 		mtcrf 128,%r7
 1941 03e6 7A1200A4 		e_beq %cr0,.L91
 1942              		.loc 1 644 0
 1943 03ea 50E10068 		e_lwz %r7,104(%r1)
 1944 03ee C077     		se_lwz %r7,0(%r7)
 1945 03f0 C777     		se_lwz %r7,28(%r7)
 1946 03f2 2A07     		se_cmpi %r7,0
 1947 03f4 7F800020 		e_mcrf %cr7,%cr0
 1948 03f8 7CE00026 		mfcr %r7
 1949 03fc 74E7E007 		e_rlwinm %r7,%r7,28,0xf0000000
 1950 0400 7CE80120 		mtcrf 128,%r7
 1951 0404 7A12007A 		e_beq %cr0,.L92
 1952              		.loc 1 645 0
 1953 0408 50E10068 		e_lwz %r7,104(%r1)
 1954 040c C177     		se_lwz %r7,4(%r7)
 1955 040e 50E700A4 		e_lwz %r7,164(%r7)
 1956 0412 6887     		se_srwi %r7,8
 1957 0414 18E7C03F 		e_andi %r7,%r7,63
 1958 0418 00C7     		se_extzb %r7
 1959 041a D271     		se_stw %r7,8(%r1)
 1960              		.loc 1 647 0
 1961 041c 18E1800C 		e_addi %r7,%r1,12
 1962 0420 50610068 		e_lwz %r3,104(%r1)
 1963 0424 708000FD 		e_li %r4,253
 1964 0428 C251     		se_lwz %r5,8(%r1)
 1965 042a 0176     		se_mr %r6,%r7
 1966 042c 78000001 		e_bl can_lld_readBuffer
 1967              		.loc 1 649 0
 1968 0430 50E10068 		e_lwz %r7,104(%r1)
 1969 0434 C077     		se_lwz %r7,0(%r7)
 1970 0436 C7F7     		se_lwz %r31,28(%r7)
 1971 0438 18A18070 		e_addi %r5,%r1,112
 1972 043c 18C1800C 		e_addi %r6,%r1,12
 1973 0440 4D07     		se_li %r7,80
 1974 0442 0153     		se_mr %r3,%r5
 1975 0444 0164     		se_mr %r4,%r6
 1976 0446 0175     		se_mr %r5,%r7
 1977 0448 78000001 		e_bl memcpy
 1978 044c 18E18070 		e_addi %r7,%r1,112
 1979 0450 C231     		se_lwz %r3,8(%r1)
 1980 0452 0174     		se_mr %r4,%r7
 1981 0454 00BF     		se_mtctr %r31
 1982 0456 0007     		se_bctrl
 1983              		.loc 1 651 0
 1984 0458 50E10068 		e_lwz %r7,104(%r1)
 1985 045c C167     		se_lwz %r6,4(%r7)
 1986 045e 50E10068 		e_lwz %r7,104(%r1)
 1987 0462 C177     		se_lwz %r7,4(%r7)
 1988 0464 50E700A4 		e_lwz %r7,164(%r7)
 1989 0468 6887     		se_srwi %r7,8
GAS LISTING C:\Users\bayra\AppData\Local\Temp\ccA56S3H.s 			page 36


 1990 046a 18E7C03F 		e_andi %r7,%r7,63
 1991 046e 74E5063F 		e_rlwinm %r5,%r7,0,0xff
 1992 0472 50E600A8 		e_lwz %r7,168(%r6)
 1993 0476 74A706BE 		e_rlwimi %r7,%r5,0,26,31
 1994 047a 54E600A8 		e_stw %r7,168(%r6)
 1995              	.L92:
 1996              		.loc 1 654 0
 1997 047e 50E10068 		e_lwz %r7,104(%r1)
 1998 0482 C177     		se_lwz %r7,4(%r7)
 1999 0484 4816     		se_li %r6,1
 2000 0486 54C70050 		e_stw %r6,80(%r7)
 2001              	.L91:
 2002              		.loc 1 659 0
 2003 048a 50E10068 		e_lwz %r7,104(%r1)
 2004 048e C177     		se_lwz %r7,4(%r7)
 2005 0490 50E70050 		e_lwz %r7,80(%r7)
 2006 0494 18E7C080 		e_andi %r7,%r7,128
 2007 0498 2A07     		se_cmpi %r7,0
 2008 049a 7F800020 		e_mcrf %cr7,%cr0
 2009 049e 7CE00026 		mfcr %r7
 2010 04a2 74E7E007 		e_rlwinm %r7,%r7,28,0xf0000000
 2011 04a6 7CE80120 		mtcrf 128,%r7
 2012 04aa 7A120084 		e_beq %cr0,.L93
 2013              		.loc 1 660 0 discriminator 1
 2014 04ae 50E10068 		e_lwz %r7,104(%r1)
 2015 04b2 C077     		se_lwz %r7,0(%r7)
 2016 04b4 30E70050 		e_lbz %r7,80(%r7)
 2017 04b8 00C7     		se_extzb %r7
 2018              		.loc 1 659 0 discriminator 1
 2019 04ba 2207     		se_cmpli %r7,1
 2020 04bc 7F800020 		e_mcrf %cr7,%cr0
 2021 04c0 7CE00026 		mfcr %r7
 2022 04c4 74E7E007 		e_rlwinm %r7,%r7,28,0xf0000000
 2023 04c8 7CE80120 		mtcrf 128,%r7
 2024 04cc 7A020062 		e_bne %cr0,.L93
 2025              		.loc 1 661 0
 2026 04d0 50E10068 		e_lwz %r7,104(%r1)
 2027 04d4 C177     		se_lwz %r7,4(%r7)
 2028 04d6 50E70058 		e_lwz %r7,88(%r7)
 2029 04da 18E7C080 		e_andi %r7,%r7,128
 2030 04de 2A07     		se_cmpi %r7,0
 2031 04e0 7F800020 		e_mcrf %cr7,%cr0
 2032 04e4 7CE00026 		mfcr %r7
 2033 04e8 74E7E007 		e_rlwinm %r7,%r7,28,0xf0000000
 2034 04ec 7CE80120 		mtcrf 128,%r7
 2035 04f0 7A12003E 		e_beq %cr0,.L93
 2036              		.loc 1 663 0
 2037 04f4 50E10068 		e_lwz %r7,104(%r1)
 2038 04f8 C077     		se_lwz %r7,0(%r7)
 2039 04fa 50E70054 		e_lwz %r7,84(%r7)
 2040 04fe 2A07     		se_cmpi %r7,0
 2041 0500 7F800020 		e_mcrf %cr7,%cr0
 2042 0504 7CE00026 		mfcr %r7
 2043 0508 74E7E007 		e_rlwinm %r7,%r7,28,0xf0000000
 2044 050c 7CE80120 		mtcrf 128,%r7
 2045 0510 7A120012 		e_beq %cr0,.L94
 2046              		.loc 1 665 0
GAS LISTING C:\Users\bayra\AppData\Local\Temp\ccA56S3H.s 			page 37


 2047 0514 50E10068 		e_lwz %r7,104(%r1)
 2048 0518 C077     		se_lwz %r7,0(%r7)
 2049 051a 50E70054 		e_lwz %r7,84(%r7)
 2050 051e 00B7     		se_mtctr %r7
 2051 0520 0007     		se_bctrl
 2052              	.L94:
 2053              		.loc 1 668 0
 2054 0522 50E10068 		e_lwz %r7,104(%r1)
 2055 0526 C177     		se_lwz %r7,4(%r7)
 2056 0528 6386     		se_bgeni %r6,24
 2057 052a 54C70050 		e_stw %r6,80(%r7)
 2058              	.L93:
 2059              		.loc 1 673 0
 2060 052e 50E10068 		e_lwz %r7,104(%r1)
 2061 0532 C177     		se_lwz %r7,4(%r7)
 2062 0534 50E70050 		e_lwz %r7,80(%r7)
 2063 0538 18E7C040 		e_andi %r7,%r7,64
 2064 053c 2A07     		se_cmpi %r7,0
 2065 053e 7F800020 		e_mcrf %cr7,%cr0
 2066 0542 7CE00026 		mfcr %r7
 2067 0546 74E7E007 		e_rlwinm %r7,%r7,28,0xf0000000
 2068 054a 7CE80120 		mtcrf 128,%r7
 2069 054e 7A120084 		e_beq %cr0,.L95
 2070              		.loc 1 674 0 discriminator 1
 2071 0552 50E10068 		e_lwz %r7,104(%r1)
 2072 0556 C077     		se_lwz %r7,0(%r7)
 2073 0558 30E70048 		e_lbz %r7,72(%r7)
 2074 055c 00C7     		se_extzb %r7
 2075              		.loc 1 673 0 discriminator 1
 2076 055e 2207     		se_cmpli %r7,1
 2077 0560 7F800020 		e_mcrf %cr7,%cr0
 2078 0564 7CE00026 		mfcr %r7
 2079 0568 74E7E007 		e_rlwinm %r7,%r7,28,0xf0000000
 2080 056c 7CE80120 		mtcrf 128,%r7
 2081 0570 7A020062 		e_bne %cr0,.L95
 2082              		.loc 1 675 0
 2083 0574 50E10068 		e_lwz %r7,104(%r1)
 2084 0578 C177     		se_lwz %r7,4(%r7)
 2085 057a 50E70058 		e_lwz %r7,88(%r7)
 2086 057e 18E7C040 		e_andi %r7,%r7,64
 2087 0582 2A07     		se_cmpi %r7,0
 2088 0584 7F800020 		e_mcrf %cr7,%cr0
 2089 0588 7CE00026 		mfcr %r7
 2090 058c 74E7E007 		e_rlwinm %r7,%r7,28,0xf0000000
 2091 0590 7CE80120 		mtcrf 128,%r7
 2092 0594 7A12003E 		e_beq %cr0,.L95
 2093              		.loc 1 677 0
 2094 0598 50E10068 		e_lwz %r7,104(%r1)
 2095 059c C077     		se_lwz %r7,0(%r7)
 2096 059e 50E7004C 		e_lwz %r7,76(%r7)
 2097 05a2 2A07     		se_cmpi %r7,0
 2098 05a4 7F800020 		e_mcrf %cr7,%cr0
 2099 05a8 7CE00026 		mfcr %r7
 2100 05ac 74E7E007 		e_rlwinm %r7,%r7,28,0xf0000000
 2101 05b0 7CE80120 		mtcrf 128,%r7
 2102 05b4 7A120012 		e_beq %cr0,.L96
 2103              		.loc 1 679 0
GAS LISTING C:\Users\bayra\AppData\Local\Temp\ccA56S3H.s 			page 38


 2104 05b8 50E10068 		e_lwz %r7,104(%r1)
 2105 05bc C077     		se_lwz %r7,0(%r7)
 2106 05be 50E7004C 		e_lwz %r7,76(%r7)
 2107 05c2 00B7     		se_mtctr %r7
 2108 05c4 0007     		se_bctrl
 2109              	.L96:
 2110              		.loc 1 682 0
 2111 05c6 50E10068 		e_lwz %r7,104(%r1)
 2112 05ca C177     		se_lwz %r7,4(%r7)
 2113 05cc 4C06     		se_li %r6,64
 2114 05ce 54C70050 		e_stw %r6,80(%r7)
 2115              	.L95:
 2116              		.loc 1 687 0
 2117 05d2 50E10068 		e_lwz %r7,104(%r1)
 2118 05d6 C177     		se_lwz %r7,4(%r7)
 2119 05d8 50E70050 		e_lwz %r7,80(%r7)
 2120 05dc 18E7C020 		e_andi %r7,%r7,32
 2121 05e0 2A07     		se_cmpi %r7,0
 2122 05e2 7F800020 		e_mcrf %cr7,%cr0
 2123 05e6 7CE00026 		mfcr %r7
 2124 05ea 74E7E007 		e_rlwinm %r7,%r7,28,0xf0000000
 2125 05ee 7CE80120 		mtcrf 128,%r7
 2126 05f2 7A120084 		e_beq %cr0,.L97
 2127              		.loc 1 688 0 discriminator 1
 2128 05f6 50E10068 		e_lwz %r7,104(%r1)
 2129 05fa C077     		se_lwz %r7,0(%r7)
 2130 05fc 30E70040 		e_lbz %r7,64(%r7)
 2131 0600 00C7     		se_extzb %r7
 2132              		.loc 1 687 0 discriminator 1
 2133 0602 2A07     		se_cmpi %r7,0
 2134 0604 7F800020 		e_mcrf %cr7,%cr0
 2135 0608 7CE00026 		mfcr %r7
 2136 060c 74E7E007 		e_rlwinm %r7,%r7,28,0xf0000000
 2137 0610 7CE80120 		mtcrf 128,%r7
 2138 0614 7A120062 		e_beq %cr0,.L97
 2139              		.loc 1 689 0
 2140 0618 50E10068 		e_lwz %r7,104(%r1)
 2141 061c C177     		se_lwz %r7,4(%r7)
 2142 061e 50E70058 		e_lwz %r7,88(%r7)
 2143 0622 18E7C020 		e_andi %r7,%r7,32
 2144 0626 2A07     		se_cmpi %r7,0
 2145 0628 7F800020 		e_mcrf %cr7,%cr0
 2146 062c 7CE00026 		mfcr %r7
 2147 0630 74E7E007 		e_rlwinm %r7,%r7,28,0xf0000000
 2148 0634 7CE80120 		mtcrf 128,%r7
 2149 0638 7A12003E 		e_beq %cr0,.L97
 2150              		.loc 1 691 0
 2151 063c 50E10068 		e_lwz %r7,104(%r1)
 2152 0640 C077     		se_lwz %r7,0(%r7)
 2153 0642 50E70044 		e_lwz %r7,68(%r7)
 2154 0646 2A07     		se_cmpi %r7,0
 2155 0648 7F800020 		e_mcrf %cr7,%cr0
 2156 064c 7CE00026 		mfcr %r7
 2157 0650 74E7E007 		e_rlwinm %r7,%r7,28,0xf0000000
 2158 0654 7CE80120 		mtcrf 128,%r7
 2159 0658 7A120012 		e_beq %cr0,.L98
 2160              		.loc 1 693 0
GAS LISTING C:\Users\bayra\AppData\Local\Temp\ccA56S3H.s 			page 39


 2161 065c 50E10068 		e_lwz %r7,104(%r1)
 2162 0660 C077     		se_lwz %r7,0(%r7)
 2163 0662 50E70044 		e_lwz %r7,68(%r7)
 2164 0666 00B7     		se_mtctr %r7
 2165 0668 0007     		se_bctrl
 2166              	.L98:
 2167              		.loc 1 696 0
 2168 066a 50E10068 		e_lwz %r7,104(%r1)
 2169 066e C177     		se_lwz %r7,4(%r7)
 2170 0670 4A06     		se_li %r6,32
 2171 0672 54C70050 		e_stw %r6,80(%r7)
 2172              	.L97:
 2173              		.loc 1 701 0
 2174 0676 50E10068 		e_lwz %r7,104(%r1)
 2175 067a C177     		se_lwz %r7,4(%r7)
 2176 067c 50E70050 		e_lwz %r7,80(%r7)
 2177 0680 2F07     		se_andi %r7,16
 2178 0682 2A07     		se_cmpi %r7,0
 2179 0684 7F800020 		e_mcrf %cr7,%cr0
 2180 0688 7CE00026 		mfcr %r7
 2181 068c 74E7E007 		e_rlwinm %r7,%r7,28,0xf0000000
 2182 0690 7CE80120 		mtcrf 128,%r7
 2183 0694 7A1200E8 		e_beq %cr0,.L76
 2184              		.loc 1 702 0 discriminator 1
 2185 0698 50E10068 		e_lwz %r7,104(%r1)
 2186 069c C077     		se_lwz %r7,0(%r7)
 2187 069e 30E70039 		e_lbz %r7,57(%r7)
 2188 06a2 00C7     		se_extzb %r7
 2189              		.loc 1 701 0 discriminator 1
 2190 06a4 2207     		se_cmpli %r7,1
 2191 06a6 7F800020 		e_mcrf %cr7,%cr0
 2192 06aa 7CE00026 		mfcr %r7
 2193 06ae 74E7E007 		e_rlwinm %r7,%r7,28,0xf0000000
 2194 06b2 7CE80120 		mtcrf 128,%r7
 2195 06b6 7A0200C6 		e_bne %cr0,.L76
 2196              		.loc 1 703 0
 2197 06ba 50E10068 		e_lwz %r7,104(%r1)
 2198 06be C177     		se_lwz %r7,4(%r7)
 2199 06c0 50E70058 		e_lwz %r7,88(%r7)
 2200 06c4 2F07     		se_andi %r7,16
 2201 06c6 2A07     		se_cmpi %r7,0
 2202 06c8 7F800020 		e_mcrf %cr7,%cr0
 2203 06cc 7CE00026 		mfcr %r7
 2204 06d0 74E7E007 		e_rlwinm %r7,%r7,28,0xf0000000
 2205 06d4 7CE80120 		mtcrf 128,%r7
 2206 06d8 7A0200A4 		e_bne %cr0,.L76
 2207              		.loc 1 705 0
 2208 06dc 50E10068 		e_lwz %r7,104(%r1)
 2209 06e0 C077     		se_lwz %r7,0(%r7)
 2210 06e2 CF77     		se_lwz %r7,60(%r7)
 2211 06e4 2A07     		se_cmpi %r7,0
 2212 06e6 7F800020 		e_mcrf %cr7,%cr0
 2213 06ea 7CE00026 		mfcr %r7
 2214 06ee 74E7E007 		e_rlwinm %r7,%r7,28,0xf0000000
 2215 06f2 7CE80120 		mtcrf 128,%r7
 2216 06f6 7A12007A 		e_beq %cr0,.L100
 2217              		.loc 1 706 0
GAS LISTING C:\Users\bayra\AppData\Local\Temp\ccA56S3H.s 			page 40


 2218 06fa 50E10068 		e_lwz %r7,104(%r1)
 2219 06fe C177     		se_lwz %r7,4(%r7)
 2220 0700 50E700B4 		e_lwz %r7,180(%r7)
 2221 0704 6887     		se_srwi %r7,8
 2222 0706 18E7C03F 		e_andi %r7,%r7,63
 2223 070a 00C7     		se_extzb %r7
 2224 070c D271     		se_stw %r7,8(%r1)
 2225              		.loc 1 708 0
 2226 070e 18E1800C 		e_addi %r7,%r1,12
 2227 0712 50610068 		e_lwz %r3,104(%r1)
 2228 0716 708000FE 		e_li %r4,254
 2229 071a C251     		se_lwz %r5,8(%r1)
 2230 071c 0176     		se_mr %r6,%r7
 2231 071e 78000001 		e_bl can_lld_readBuffer
 2232              		.loc 1 710 0
 2233 0722 50E10068 		e_lwz %r7,104(%r1)
 2234 0726 C077     		se_lwz %r7,0(%r7)
 2235 0728 CFF7     		se_lwz %r31,60(%r7)
 2236 072a 18A18070 		e_addi %r5,%r1,112
 2237 072e 18C1800C 		e_addi %r6,%r1,12
 2238 0732 4D07     		se_li %r7,80
 2239 0734 0153     		se_mr %r3,%r5
 2240 0736 0164     		se_mr %r4,%r6
 2241 0738 0175     		se_mr %r5,%r7
 2242 073a 78000001 		e_bl memcpy
 2243 073e 18E18070 		e_addi %r7,%r1,112
 2244 0742 C231     		se_lwz %r3,8(%r1)
 2245 0744 0174     		se_mr %r4,%r7
 2246 0746 00BF     		se_mtctr %r31
 2247 0748 0007     		se_bctrl
 2248              		.loc 1 712 0
 2249 074a 50E10068 		e_lwz %r7,104(%r1)
 2250 074e C167     		se_lwz %r6,4(%r7)
 2251 0750 50E10068 		e_lwz %r7,104(%r1)
 2252 0754 C177     		se_lwz %r7,4(%r7)
 2253 0756 50E700B4 		e_lwz %r7,180(%r7)
 2254 075a 6887     		se_srwi %r7,8
 2255 075c 18E7C03F 		e_andi %r7,%r7,63
 2256 0760 74E5063F 		e_rlwinm %r5,%r7,0,0xff
 2257 0764 50E600B8 		e_lwz %r7,184(%r6)
 2258 0768 74A706BE 		e_rlwimi %r7,%r5,0,26,31
 2259 076c 54E600B8 		e_stw %r7,184(%r6)
 2260              	.L100:
 2261              		.loc 1 715 0
 2262 0770 50E10068 		e_lwz %r7,104(%r1)
 2263 0774 C177     		se_lwz %r7,4(%r7)
 2264 0776 4906     		se_li %r6,16
 2265 0778 54C70050 		e_stw %r6,80(%r7)
 2266              	.L76:
 2267              		.loc 1 718 0
 2268 077c 500100CC 		e_lwz %r0,204(%r1)
 2269 0780 0090     		se_mtlr %r0
 2270 0782 53E100C4 		e_lwz %r31,196(%r1)
 2271 0786 182180C8 		e_addi %r1,%r1,200
 2272              	.LCFI11:
 2273              		.cfi_restore 31
 2274              		.cfi_def_cfa_offset 0
GAS LISTING C:\Users\bayra\AppData\Local\Temp\ccA56S3H.s 			page 41


 2275 078a 0004     		se_blr
 2276              		.cfi_endproc
 2277              	.LFE8:
 2278              		.size	can_lld_l1_handler, .-can_lld_l1_handler
 2279              		.section	.text.vector688,"axv",@progbits
 2280              		.align 1
 2281              		.p2align 4,,15
 2282              		.globl vector688
 2283              		.type	vector688, @function
 2284              	vector688:
 2285              	.LFB9:
 2286              		.loc 1 756 0
 2287              		.cfi_startproc
 2288 0000 182106F8 		e_stwu %r1,-8(%r1)
 2289              	.LCFI12:
 2290              		.cfi_def_cfa_offset 8
 2291 0004 0080     		se_mflr %r0
 2292 0006 D301     		se_stw %r0,12(%r1)
 2293              		.cfi_offset 65, 4
 2294              		.loc 1 760 0
 2295 0008 70E0E000 		e_lis %r7,CAND2@ha
 2296 000c 1C670000 		e_la %r3,CAND2@l(%r7)
 2297 0010 78000001 		e_bl can_lld_l0_handler
 2298              		.loc 1 763 0
 2299 0014 C301     		se_lwz %r0,12(%r1)
 2300 0016 0090     		se_mtlr %r0
 2301 0018 2071     		se_addi %r1,8
 2302              	.LCFI13:
 2303              		.cfi_def_cfa_offset 0
 2304 001a 0004     		se_blr
 2305              		.cfi_endproc
 2306              	.LFE9:
 2307              		.size	vector688, .-vector688
 2308              		.section	.text.vector689,"axv",@progbits
 2309              		.align 1
 2310              		.p2align 4,,15
 2311              		.globl vector689
 2312              		.type	vector689, @function
 2313              	vector689:
 2314              	.LFB10:
 2315              		.loc 1 770 0
 2316              		.cfi_startproc
 2317 0000 182106F8 		e_stwu %r1,-8(%r1)
 2318              	.LCFI14:
 2319              		.cfi_def_cfa_offset 8
 2320 0004 0080     		se_mflr %r0
 2321 0006 D301     		se_stw %r0,12(%r1)
 2322              		.cfi_offset 65, 4
 2323              		.loc 1 774 0
 2324 0008 70E0E000 		e_lis %r7,CAND2@ha
 2325 000c 1C670000 		e_la %r3,CAND2@l(%r7)
 2326 0010 78000001 		e_bl can_lld_l1_handler
 2327              		.loc 1 777 0
 2328 0014 C301     		se_lwz %r0,12(%r1)
 2329 0016 0090     		se_mtlr %r0
 2330 0018 2071     		se_addi %r1,8
 2331              	.LCFI15:
GAS LISTING C:\Users\bayra\AppData\Local\Temp\ccA56S3H.s 			page 42


 2332              		.cfi_def_cfa_offset 0
 2333 001a 0004     		se_blr
 2334              		.cfi_endproc
 2335              	.LFE10:
 2336              		.size	vector689, .-vector689
 2337              		.section	.text.vector694,"axv",@progbits
 2338              		.align 1
 2339              		.p2align 4,,15
 2340              		.globl vector694
 2341              		.type	vector694, @function
 2342              	vector694:
 2343              	.LFB11:
 2344              		.loc 1 906 0
 2345              		.cfi_startproc
 2346 0000 182106F8 		e_stwu %r1,-8(%r1)
 2347              	.LCFI16:
 2348              		.cfi_def_cfa_offset 8
 2349 0004 0080     		se_mflr %r0
 2350 0006 D301     		se_stw %r0,12(%r1)
 2351              		.cfi_offset 65, 4
 2352              		.loc 1 910 0
 2353 0008 70E0E000 		e_lis %r7,CAND7@ha
 2354 000c 1C670000 		e_la %r3,CAND7@l(%r7)
 2355 0010 78000001 		e_bl can_lld_l0_handler
 2356              		.loc 1 913 0
 2357 0014 C301     		se_lwz %r0,12(%r1)
 2358 0016 0090     		se_mtlr %r0
 2359 0018 2071     		se_addi %r1,8
 2360              	.LCFI17:
 2361              		.cfi_def_cfa_offset 0
 2362 001a 0004     		se_blr
 2363              		.cfi_endproc
 2364              	.LFE11:
 2365              		.size	vector694, .-vector694
 2366              		.section	.text.vector695,"axv",@progbits
 2367              		.align 1
 2368              		.p2align 4,,15
 2369              		.globl vector695
 2370              		.type	vector695, @function
 2371              	vector695:
 2372              	.LFB12:
 2373              		.loc 1 920 0
 2374              		.cfi_startproc
 2375 0000 182106F8 		e_stwu %r1,-8(%r1)
 2376              	.LCFI18:
 2377              		.cfi_def_cfa_offset 8
 2378 0004 0080     		se_mflr %r0
 2379 0006 D301     		se_stw %r0,12(%r1)
 2380              		.cfi_offset 65, 4
 2381              		.loc 1 924 0
 2382 0008 70E0E000 		e_lis %r7,CAND7@ha
 2383 000c 1C670000 		e_la %r3,CAND7@l(%r7)
 2384 0010 78000001 		e_bl can_lld_l1_handler
 2385              		.loc 1 927 0
 2386 0014 C301     		se_lwz %r0,12(%r1)
 2387 0016 0090     		se_mtlr %r0
 2388 0018 2071     		se_addi %r1,8
GAS LISTING C:\Users\bayra\AppData\Local\Temp\ccA56S3H.s 			page 43


 2389              	.LCFI19:
 2390              		.cfi_def_cfa_offset 0
 2391 001a 0004     		se_blr
 2392              		.cfi_endproc
 2393              	.LFE12:
 2394              		.size	vector695, .-vector695
 2395              		.section	.text.can_lld_init,"axv",@progbits
 2396              		.align 1
 2397              		.p2align 4,,15
 2398              		.globl can_lld_init
 2399              		.type	can_lld_init, @function
 2400              	can_lld_init:
 2401              	.LFB13:
 2402              		.loc 1 1328 0
 2403              		.cfi_startproc
 2404 0000 182106E8 		e_stwu %r1,-24(%r1)
 2405              	.LCFI20:
 2406              		.cfi_def_cfa_offset 24
 2407 0004 0080     		se_mflr %r0
 2408 0006 D701     		se_stw %r0,28(%r1)
 2409              		.cfi_offset 65, 4
 2410              		.loc 1 1349 0
 2411 0008 70E0E000 		e_lis %r7,CAND2@ha
 2412 000c 1CE70000 		e_la %r7,CAND2@l(%r7)
 2413 0010 4806     		se_li %r6,0
 2414 0012 D067     		se_stw %r6,0(%r7)
 2415              		.loc 1 1350 0
 2416 0014 70E0E000 		e_lis %r7,CAND2@ha
 2417 0018 1CE70000 		e_la %r7,CAND2@l(%r7)
 2418 001c 70DEE7EE 		e_lis %r6,0xf7ee
 2419 0020 6506     		se_bseti %r6,16
 2420 0022 D167     		se_stw %r6,4(%r7)
 2421              		.loc 1 1351 0
 2422 0024 70FEE404 		e_lis %r7,0xf404
 2423 0028 70E8C5C0 		e_or2i %r7,17856
 2424 002c 70C4000A 		e_li %r6,8202
 2425 0030 B067     		se_sth %r6,0(%r7)
 2426              		.loc 1 1352 0
 2427 0032 70FEE404 		e_lis %r7,0xf404
 2428 0036 70E8C5C2 		e_or2i %r7,17858
 2429 003a 70C4000A 		e_li %r6,8202
 2430 003e B067     		se_sth %r6,0(%r7)
 2431              		.loc 1 1385 0
 2432 0040 70E0E000 		e_lis %r7,CAND7@ha
 2433 0044 1CE70000 		e_la %r7,CAND7@l(%r7)
 2434 0048 4806     		se_li %r6,0
 2435 004a D067     		se_stw %r6,0(%r7)
 2436              		.loc 1 1386 0
 2437 004c 70E0E000 		e_lis %r7,CAND7@ha
 2438 0050 1CE70000 		e_la %r7,CAND7@l(%r7)
 2439 0054 70DFE3EE 		e_lis %r6,0xfbee
 2440 0058 6516     		se_bseti %r6,17
 2441 005a D167     		se_stw %r6,4(%r7)
 2442              		.loc 1 1387 0
 2443 005c 70FEE404 		e_lis %r7,0xf404
 2444 0060 70E8C5CC 		e_or2i %r7,17868
 2445 0064 70C4000A 		e_li %r6,8202
GAS LISTING C:\Users\bayra\AppData\Local\Temp\ccA56S3H.s 			page 44


 2446 0068 B067     		se_sth %r6,0(%r7)
 2447              		.loc 1 1388 0
 2448 006a 70FEE404 		e_lis %r7,0xf404
 2449 006e 70E8C5CE 		e_or2i %r7,17870
 2450 0072 70C4000A 		e_li %r6,8202
 2451 0076 B067     		se_sth %r6,0(%r7)
 2452              		.loc 1 1490 0
 2453 0078 4CA3     		se_li %r3,74
 2454 007a 4924     		se_li %r4,18
 2455 007c 78000001 		e_bl SPCSetPeripheralClockMode
 2456              		.loc 1 1491 0
 2457 0080 4807     		se_li %r7,0
 2458 0082 D271     		se_stw %r7,8(%r1)
 2459 0084 7800001E 		e_b .L106
 2460              	.L107:
 2461              		.loc 1 1492 0 discriminator 3
 2462 0088 C271     		se_lwz %r7,8(%r1)
 2463 008a 70DEE7ED 		e_lis %r6,0xf7ed
 2464 008e 6516     		se_bseti %r6,17
 2465 0090 7CE63A14 		add %r7,%r6,%r7
 2466 0094 D371     		se_stw %r7,12(%r1)
 2467              		.loc 1 1493 0 discriminator 3
 2468 0096 C371     		se_lwz %r7,12(%r1)
 2469 0098 4806     		se_li %r6,0
 2470 009a D067     		se_stw %r6,0(%r7)
 2471              		.loc 1 1491 0 discriminator 3
 2472 009c C271     		se_lwz %r7,8(%r1)
 2473 009e 2037     		se_addi %r7,4
 2474 00a0 D271     		se_stw %r7,8(%r1)
 2475              	.L106:
 2476              		.loc 1 1491 0 is_stmt 0 discriminator 1
 2477 00a2 C271     		se_lwz %r7,8(%r1)
 2478 00a4 70E7ADFF 		e_cmpl16i %r7,15871
 2479 00a8 7F800020 		e_mcrf %cr7,%cr0
 2480 00ac 7CE00026 		mfcr %r7
 2481 00b0 74E7E007 		e_rlwinm %r7,%r7,28,0xf0000000
 2482 00b4 7CE80120 		mtcrf 128,%r7
 2483 00b8 7A01FFD0 		e_ble %cr0,.L107
 2484              		.loc 1 1504 0 is_stmt 1
 2485 00bc 706000CA 		e_li %r3,202
 2486 00c0 4924     		se_li %r4,18
 2487 00c2 78000001 		e_bl SPCSetPeripheralClockMode
 2488              		.loc 1 1505 0
 2489 00c6 4807     		se_li %r7,0
 2490 00c8 D271     		se_stw %r7,8(%r1)
 2491 00ca 7800001E 		e_b .L108
 2492              	.L109:
 2493              		.loc 1 1506 0 discriminator 3
 2494 00ce C271     		se_lwz %r7,8(%r1)
 2495 00d0 70DFE3ED 		e_lis %r6,0xfbed
 2496 00d4 6516     		se_bseti %r6,17
 2497 00d6 7CE63A14 		add %r7,%r6,%r7
 2498 00da D371     		se_stw %r7,12(%r1)
 2499              		.loc 1 1507 0 discriminator 3
 2500 00dc C371     		se_lwz %r7,12(%r1)
 2501 00de 4806     		se_li %r6,0
 2502 00e0 D067     		se_stw %r6,0(%r7)
GAS LISTING C:\Users\bayra\AppData\Local\Temp\ccA56S3H.s 			page 45


 2503              		.loc 1 1505 0 discriminator 3
 2504 00e2 C271     		se_lwz %r7,8(%r1)
 2505 00e4 2037     		se_addi %r7,4
 2506 00e6 D271     		se_stw %r7,8(%r1)
 2507              	.L108:
 2508              		.loc 1 1505 0 is_stmt 0 discriminator 1
 2509 00e8 C271     		se_lwz %r7,8(%r1)
 2510 00ea 70E7ADFF 		e_cmpl16i %r7,15871
 2511 00ee 7F800020 		e_mcrf %cr7,%cr0
 2512 00f2 7CE00026 		mfcr %r7
 2513 00f6 74E7E007 		e_rlwinm %r7,%r7,28,0xf0000000
 2514 00fa 7CE80120 		mtcrf 128,%r7
 2515 00fe 7A01FFD0 		e_ble %cr0,.L109
 2516              		.loc 1 1539 0 is_stmt 1
 2517 0102 C701     		se_lwz %r0,28(%r1)
 2518 0104 0090     		se_mtlr %r0
 2519 0106 2171     		se_addi %r1,24
 2520              	.LCFI21:
 2521              		.cfi_def_cfa_offset 0
 2522 0108 0004     		se_blr
 2523              		.cfi_endproc
 2524              	.LFE13:
 2525              		.size	can_lld_init, .-can_lld_init
 2526              		.section	.text.can_lld_start,"axv",@progbits
 2527              		.align 1
 2528              		.p2align 4,,15
 2529              		.globl can_lld_start
 2530              		.type	can_lld_start, @function
 2531              	can_lld_start:
 2532              	.LFB14:
 2533              		.loc 1 1549 0
 2534              		.cfi_startproc
 2535 0000 182106D0 		e_stwu %r1,-48(%r1)
 2536              	.LCFI22:
 2537              		.cfi_def_cfa_offset 48
 2538 0004 0080     		se_mflr %r0
 2539 0006 DD01     		se_stw %r0,52(%r1)
 2540              		.cfi_offset 65, 4
 2541 0008 DA31     		se_stw %r3,40(%r1)
 2542 000a DB41     		se_stw %r4,44(%r1)
 2543              		.loc 1 1559 0
 2544 000c 4807     		se_li %r7,0
 2545 000e D371     		se_stw %r7,12(%r1)
 2546              		.loc 1 1561 0
 2547 0010 CA71     		se_lwz %r7,40(%r1)
 2548 0012 CB61     		se_lwz %r6,44(%r1)
 2549 0014 D067     		se_stw %r6,0(%r7)
 2550              		.loc 1 1571 0
 2551 0016 CA61     		se_lwz %r6,40(%r1)
 2552 0018 70E0E000 		e_lis %r7,CAND2@ha
 2553 001c 1CE70000 		e_la %r7,CAND2@l(%r7)
 2554 0020 7F863800 		cmp %cr7,%r6,%r7
 2555 0024 7CE00026 		mfcr %r7
 2556 0028 74E7E007 		e_rlwinm %r7,%r7,28,0xf0000000
 2557 002c 7CE80120 		mtcrf 128,%r7
 2558 0030 7A02001A 		e_bne %cr0,.L111
 2559              		.loc 1 1572 0
GAS LISTING C:\Users\bayra\AppData\Local\Temp\ccA56S3H.s 			page 46


 2560 0034 4807     		se_li %r7,0
 2561 0036 D371     		se_stw %r7,12(%r1)
 2562              		.loc 1 1573 0
 2563 0038 CA71     		se_lwz %r7,40(%r1)
 2564 003a 70DEE7ED 		e_lis %r6,0xf7ed
 2565 003e 6516     		se_bseti %r6,17
 2566 0040 D267     		se_stw %r6,8(%r7)
 2567              		.loc 1 1574 0
 2568 0042 4C53     		se_li %r3,69
 2569 0044 4924     		se_li %r4,18
 2570 0046 78000001 		e_bl SPCSetPeripheralClockMode
 2571              	.L111:
 2572              		.loc 1 1615 0
 2573 004a CA61     		se_lwz %r6,40(%r1)
 2574 004c 70E0E000 		e_lis %r7,CAND7@ha
 2575 0050 1CE70000 		e_la %r7,CAND7@l(%r7)
 2576 0054 7F863800 		cmp %cr7,%r6,%r7
 2577 0058 7CE00026 		mfcr %r7
 2578 005c 74E7E007 		e_rlwinm %r7,%r7,28,0xf0000000
 2579 0060 7CE80120 		mtcrf 128,%r7
 2580 0064 7A02001C 		e_bne %cr0,.L112
 2581              		.loc 1 1616 0
 2582 0068 4807     		se_li %r7,0
 2583 006a D371     		se_stw %r7,12(%r1)
 2584              		.loc 1 1617 0
 2585 006c CA71     		se_lwz %r7,40(%r1)
 2586 006e 70DFE3ED 		e_lis %r6,0xfbed
 2587 0072 6516     		se_bseti %r6,17
 2588 0074 D267     		se_stw %r6,8(%r7)
 2589              		.loc 1 1618 0
 2590 0076 706000C6 		e_li %r3,198
 2591 007a 4924     		se_li %r4,18
 2592 007c 78000001 		e_bl SPCSetPeripheralClockMode
 2593              	.L112:
 2594              		.loc 1 1716 0
 2595 0080 CA71     		se_lwz %r7,40(%r1)
 2596 0082 C177     		se_lwz %r7,4(%r7)
 2597 0084 4836     		se_li %r6,3
 2598 0086 D667     		se_stw %r6,24(%r7)
 2599              		.loc 1 1717 0
 2600 0088 4400     		se_nop
 2601              	.L113:
 2602              		.loc 1 1717 0 is_stmt 0 discriminator 1
 2603 008a CA71     		se_lwz %r7,40(%r1)
 2604 008c C177     		se_lwz %r7,4(%r7)
 2605 008e C677     		se_lwz %r7,24(%r7)
 2606 0090 2E17     		se_andi %r7,1
 2607 0092 00C7     		se_extzb %r7
 2608 0094 2207     		se_cmpli %r7,1
 2609 0096 7F800020 		e_mcrf %cr7,%cr0
 2610 009a 7CE00026 		mfcr %r7
 2611 009e 74E7E007 		e_rlwinm %r7,%r7,28,0xf0000000
 2612 00a2 7CE80120 		mtcrf 128,%r7
 2613 00a6 7A02FFE4 		e_bne %cr0,.L113
 2614              		.loc 1 1722 0 is_stmt 1
 2615 00aa 4BE3     		se_li %r3,62
 2616 00ac 4924     		se_li %r4,18
GAS LISTING C:\Users\bayra\AppData\Local\Temp\ccA56S3H.s 			page 47


 2617 00ae 78000001 		e_bl SPCSetPeripheralClockMode
 2618              		.loc 1 1724 0
 2619 00b2 70FEE7F0 		e_lis %r7,0xf7f0
 2620 00b6 6517     		se_bseti %r7,17
 2621 00b8 C177     		se_lwz %r7,4(%r7)
 2622 00ba 7007AC44 		e_cmpl16i %r7,1092
 2623 00be 7F800020 		e_mcrf %cr7,%cr0
 2624 00c2 7CE00026 		mfcr %r7
 2625 00c6 74E7E007 		e_rlwinm %r7,%r7,28,0xf0000000
 2626 00ca 7CE80120 		mtcrf 128,%r7
 2627 00ce 7A120010 		e_beq %cr0,.L114
 2628              		.loc 1 1725 0
 2629 00d2 70FEE7F0 		e_lis %r7,0xf7f0
 2630 00d6 6517     		se_bseti %r7,17
 2631 00d8 70C00444 		e_li %r6,1092
 2632 00dc D167     		se_stw %r6,4(%r7)
 2633              	.L114:
 2634              		.loc 1 1727 0
 2635 00de 4BE3     		se_li %r3,62
 2636 00e0 4804     		se_li %r4,0
 2637 00e2 78000001 		e_bl SPCSetPeripheralClockMode
 2638              		.loc 1 1745 0
 2639 00e6 CA71     		se_lwz %r7,40(%r1)
 2640 00e8 C077     		se_lwz %r7,0(%r7)
 2641 00ea 8077     		se_lbz %r7,0(%r7)
 2642 00ec 00C7     		se_extzb %r7
 2643 00ee 2A07     		se_cmpi %r7,0
 2644 00f0 7F800020 		e_mcrf %cr7,%cr0
 2645 00f4 7CE00026 		mfcr %r7
 2646 00f8 74E7E007 		e_rlwinm %r7,%r7,28,0xf0000000
 2647 00fc 7CE80120 		mtcrf 128,%r7
 2648 0100 7A12004C 		e_beq %cr0,.L115
 2649              		.loc 1 1746 0
 2650 0104 CA71     		se_lwz %r7,40(%r1)
 2651 0106 C167     		se_lwz %r6,4(%r7)
 2652 0108 C676     		se_lwz %r7,24(%r6)
 2653 010a 4815     		se_li %r5,1
 2654 010c 74A73E30 		e_rlwimi %r7,%r5,7,24,24
 2655 0110 D676     		se_stw %r7,24(%r6)
 2656              		.loc 1 1747 0
 2657 0112 CA71     		se_lwz %r7,40(%r1)
 2658 0114 C167     		se_lwz %r6,4(%r7)
 2659 0116 C476     		se_lwz %r7,16(%r6)
 2660 0118 4815     		se_li %r5,1
 2661 011a 74A726F6 		e_rlwimi %r7,%r5,4,27,27
 2662 011e D476     		se_stw %r7,16(%r6)
 2663              		.loc 1 1748 0
 2664 0120 CA71     		se_lwz %r7,40(%r1)
 2665 0122 C077     		se_lwz %r7,0(%r7)
 2666 0124 8077     		se_lbz %r7,0(%r7)
 2667 0126 00C7     		se_extzb %r7
 2668 0128 2207     		se_cmpli %r7,1
 2669 012a 7F800020 		e_mcrf %cr7,%cr0
 2670 012e 7CE00026 		mfcr %r7
 2671 0132 74E7E007 		e_rlwinm %r7,%r7,28,0xf0000000
 2672 0136 7CE80120 		mtcrf 128,%r7
 2673 013a 7A020012 		e_bne %cr0,.L115
GAS LISTING C:\Users\bayra\AppData\Local\Temp\ccA56S3H.s 			page 48


 2674              		.loc 1 1749 0
 2675 013e CA71     		se_lwz %r7,40(%r1)
 2676 0140 C167     		se_lwz %r6,4(%r7)
 2677 0142 C676     		se_lwz %r7,24(%r6)
 2678 0144 4815     		se_li %r5,1
 2679 0146 74A72EB4 		e_rlwimi %r7,%r5,5,26,26
 2680 014a D676     		se_stw %r7,24(%r6)
 2681              	.L115:
 2682              		.loc 1 1772 0
 2683 014c CA71     		se_lwz %r7,40(%r1)
 2684 014e C167     		se_lwz %r6,4(%r7)
 2685 0150 CA71     		se_lwz %r7,40(%r1)
 2686 0152 C077     		se_lwz %r7,0(%r7)
 2687 0154 8277     		se_lbz %r7,2(%r7)
 2688 0156 00C7     		se_extzb %r7
 2689 0158 18E7C07F 		e_andi %r7,%r7,127
 2690 015c 74E5063F 		e_rlwinm %r5,%r7,0,0xff
 2691 0160 C776     		se_lwz %r7,28(%r6)
 2692 0162 74A7C80C 		e_rlwimi %r7,%r5,25,0,6
 2693 0166 D776     		se_stw %r7,28(%r6)
 2694              		.loc 1 1773 0
 2695 0168 CA71     		se_lwz %r7,40(%r1)
 2696 016a C177     		se_lwz %r7,4(%r7)
 2697 016c CA61     		se_lwz %r6,40(%r1)
 2698 016e C066     		se_lwz %r6,0(%r6)
 2699 0170 8366     		se_lbz %r6,3(%r6)
 2700 0172 00C6     		se_extzb %r6
 2701 0174 34C7001E 		e_stb %r6,30(%r7)
 2702              		.loc 1 1774 0
 2703 0178 CA71     		se_lwz %r7,40(%r1)
 2704 017a C167     		se_lwz %r6,4(%r7)
 2705 017c CA71     		se_lwz %r7,40(%r1)
 2706 017e C077     		se_lwz %r7,0(%r7)
 2707 0180 8477     		se_lbz %r7,4(%r7)
 2708 0182 00C7     		se_extzb %r7
 2709 0184 18E7C07F 		e_andi %r7,%r7,127
 2710 0188 74E5063F 		e_rlwinm %r5,%r7,0,0xff
 2711 018c C776     		se_lwz %r7,28(%r6)
 2712 018e 74A7067E 		e_rlwimi %r7,%r5,0,25,31
 2713 0192 D776     		se_stw %r7,28(%r6)
 2714              		.loc 1 1775 0
 2715 0194 CA71     		se_lwz %r7,40(%r1)
 2716 0196 C167     		se_lwz %r6,4(%r7)
 2717 0198 CA71     		se_lwz %r7,40(%r1)
 2718 019a C077     		se_lwz %r7,0(%r7)
 2719 019c A377     		se_lhz %r7,6(%r7)
 2720 019e 00E7     		se_extzh %r7
 2721 01a0 18E784FF 		e_addi %r7,%r7,-1
 2722 01a4 00E7     		se_extzh %r7
 2723 01a6 74E705FF 		e_rlwinm %r7,%r7,0,23,31
 2724 01aa 74E5043F 		e_rlwinm %r5,%r7,0,0xffff
 2725 01ae C776     		se_lwz %r7,28(%r6)
 2726 01b0 74A781DE 		e_rlwimi %r7,%r5,16,7,15
 2727 01b4 D776     		se_stw %r7,28(%r6)
 2728              		.loc 1 1778 0
 2729 01b6 CA71     		se_lwz %r7,40(%r1)
 2730 01b8 C077     		se_lwz %r7,0(%r7)
GAS LISTING C:\Users\bayra\AppData\Local\Temp\ccA56S3H.s 			page 49


 2731 01ba 8877     		se_lbz %r7,8(%r7)
 2732 01bc 00C7     		se_extzb %r7
 2733 01be 2207     		se_cmpli %r7,1
 2734 01c0 7F800020 		e_mcrf %cr7,%cr0
 2735 01c4 7CE00026 		mfcr %r7
 2736 01c8 74E7E007 		e_rlwinm %r7,%r7,28,0xf0000000
 2737 01cc 7CE80120 		mtcrf 128,%r7
 2738 01d0 7A0201E8 		e_bne %cr0,.L116
 2739              		.loc 1 1779 0
 2740 01d4 CA71     		se_lwz %r7,40(%r1)
 2741 01d6 C167     		se_lwz %r6,4(%r7)
 2742 01d8 C676     		se_lwz %r7,24(%r6)
 2743 01da 4815     		se_li %r5,1
 2744 01dc 74A745EE 		e_rlwimi %r7,%r5,8,23,23
 2745 01e0 D676     		se_stw %r7,24(%r6)
 2746              		.loc 1 1780 0
 2747 01e2 CA71     		se_lwz %r7,40(%r1)
 2748 01e4 C077     		se_lwz %r7,0(%r7)
 2749 01e6 8977     		se_lbz %r7,9(%r7)
 2750 01e8 00C7     		se_extzb %r7
 2751 01ea 2207     		se_cmpli %r7,1
 2752 01ec 7F800020 		e_mcrf %cr7,%cr0
 2753 01f0 7CE00026 		mfcr %r7
 2754 01f4 74E7E007 		e_rlwinm %r7,%r7,28,0xf0000000
 2755 01f8 7CE80120 		mtcrf 128,%r7
 2756 01fc 7A020016 		e_bne %cr0,.L117
 2757              		.loc 1 1781 0
 2758 0200 CA71     		se_lwz %r7,40(%r1)
 2759 0202 C167     		se_lwz %r6,4(%r7)
 2760 0204 C676     		se_lwz %r7,24(%r6)
 2761 0206 4815     		se_li %r5,1
 2762 0208 74A74DAC 		e_rlwimi %r7,%r5,9,22,22
 2763 020c D676     		se_stw %r7,24(%r6)
 2764 020e 78000012 		e_b .L118
 2765              	.L117:
 2766              		.loc 1 1784 0
 2767 0212 CA71     		se_lwz %r7,40(%r1)
 2768 0214 C167     		se_lwz %r6,4(%r7)
 2769 0216 C676     		se_lwz %r7,24(%r6)
 2770 0218 4805     		se_li %r5,0
 2771 021a 74A74DAC 		e_rlwimi %r7,%r5,9,22,22
 2772 021e D676     		se_stw %r7,24(%r6)
 2773              	.L118:
 2774              		.loc 1 1788 0
 2775 0220 CA71     		se_lwz %r7,40(%r1)
 2776 0222 C167     		se_lwz %r6,4(%r7)
 2777 0224 CA71     		se_lwz %r7,40(%r1)
 2778 0226 C077     		se_lwz %r7,0(%r7)
 2779 0228 8A77     		se_lbz %r7,10(%r7)
 2780 022a 00C7     		se_extzb %r7
 2781 022c 2EF7     		se_andi %r7,15
 2782 022e 74E5063F 		e_rlwinm %r5,%r7,0,0xff
 2783 0232 C376     		se_lwz %r7,12(%r6)
 2784 0234 74A7073E 		e_rlwimi %r7,%r5,0,28,31
 2785 0238 D376     		se_stw %r7,12(%r6)
 2786              		.loc 1 1789 0
 2787 023a CA71     		se_lwz %r7,40(%r1)
GAS LISTING C:\Users\bayra\AppData\Local\Temp\ccA56S3H.s 			page 50


 2788 023c C167     		se_lwz %r6,4(%r7)
 2789 023e CA71     		se_lwz %r7,40(%r1)
 2790 0240 C077     		se_lwz %r7,0(%r7)
 2791 0242 8B77     		se_lbz %r7,11(%r7)
 2792 0244 00C7     		se_extzb %r7
 2793 0246 2FF7     		se_andi %r7,31
 2794 0248 74E5063F 		e_rlwinm %r5,%r7,0,0xff
 2795 024c C376     		se_lwz %r7,12(%r6)
 2796 024e 74A744EE 		e_rlwimi %r7,%r5,8,19,23
 2797 0252 D376     		se_stw %r7,12(%r6)
 2798              		.loc 1 1790 0
 2799 0254 CA71     		se_lwz %r7,40(%r1)
 2800 0256 C167     		se_lwz %r6,4(%r7)
 2801 0258 CA71     		se_lwz %r7,40(%r1)
 2802 025a C077     		se_lwz %r7,0(%r7)
 2803 025c 8C77     		se_lbz %r7,12(%r7)
 2804 025e 00C7     		se_extzb %r7
 2805 0260 2EF7     		se_andi %r7,15
 2806 0262 74E5063F 		e_rlwinm %r5,%r7,0,0xff
 2807 0266 C376     		se_lwz %r7,12(%r6)
 2808 0268 74A72636 		e_rlwimi %r7,%r5,4,24,27
 2809 026c D376     		se_stw %r7,12(%r6)
 2810              		.loc 1 1791 0
 2811 026e CA71     		se_lwz %r7,40(%r1)
 2812 0270 C167     		se_lwz %r6,4(%r7)
 2813 0272 CA71     		se_lwz %r7,40(%r1)
 2814 0274 C077     		se_lwz %r7,0(%r7)
 2815 0276 8D77     		se_lbz %r7,13(%r7)
 2816 0278 00C7     		se_extzb %r7
 2817 027a 18E784FF 		e_addi %r7,%r7,-1
 2818 027e 00C7     		se_extzb %r7
 2819 0280 2FF7     		se_andi %r7,31
 2820 0282 74E5063F 		e_rlwinm %r5,%r7,0,0xff
 2821 0286 C376     		se_lwz %r7,12(%r6)
 2822 0288 74A782DE 		e_rlwimi %r7,%r5,16,11,15
 2823 028c D376     		se_stw %r7,12(%r6)
 2824              		.loc 1 1794 0
 2825 028e CA71     		se_lwz %r7,40(%r1)
 2826 0290 C077     		se_lwz %r7,0(%r7)
 2827 0292 8E77     		se_lbz %r7,14(%r7)
 2828 0294 00C7     		se_extzb %r7
 2829 0296 2207     		se_cmpli %r7,1
 2830 0298 7F800020 		e_mcrf %cr7,%cr0
 2831 029c 7CE00026 		mfcr %r7
 2832 02a0 74E7E007 		e_rlwinm %r7,%r7,28,0xf0000000
 2833 02a4 7CE80120 		mtcrf 128,%r7
 2834 02a8 7A02007A 		e_bne %cr0,.L119
 2835              		.loc 1 1795 0
 2836 02ac CA71     		se_lwz %r7,40(%r1)
 2837 02ae C167     		se_lwz %r6,4(%r7)
 2838 02b0 C376     		se_lwz %r7,12(%r6)
 2839 02b2 4815     		se_li %r5,1
 2840 02b4 74A7BA10 		e_rlwimi %r7,%r5,23,8,8
 2841 02b8 D376     		se_stw %r7,12(%r6)
 2842              		.loc 1 1796 0
 2843 02ba CA71     		se_lwz %r7,40(%r1)
 2844 02bc C167     		se_lwz %r6,4(%r7)
GAS LISTING C:\Users\bayra\AppData\Local\Temp\ccA56S3H.s 			page 51


 2845 02be CA71     		se_lwz %r7,40(%r1)
 2846 02c0 C077     		se_lwz %r7,0(%r7)
 2847 02c2 8F77     		se_lbz %r7,15(%r7)
 2848 02c4 00C7     		se_extzb %r7
 2849 02c6 18E7C07F 		e_andi %r7,%r7,127
 2850 02ca 74E5063F 		e_rlwinm %r5,%r7,0,0xff
 2851 02ce 50E60044 		e_lwz %r7,68(%r6)
 2852 02d2 74A7825E 		e_rlwimi %r7,%r5,16,9,15
 2853 02d6 54E60044 		e_stw %r7,68(%r6)
 2854              		.loc 1 1797 0
 2855 02da CA71     		se_lwz %r7,40(%r1)
 2856 02dc C167     		se_lwz %r6,4(%r7)
 2857 02de CA71     		se_lwz %r7,40(%r1)
 2858 02e0 C077     		se_lwz %r7,0(%r7)
 2859 02e2 30E70010 		e_lbz %r7,16(%r7)
 2860 02e6 00C7     		se_extzb %r7
 2861 02e8 18E7C07F 		e_andi %r7,%r7,127
 2862 02ec 74E5063F 		e_rlwinm %r5,%r7,0,0xff
 2863 02f0 50E60048 		e_lwz %r7,72(%r6)
 2864 02f4 74A7446E 		e_rlwimi %r7,%r5,8,17,23
 2865 02f8 54E60048 		e_stw %r7,72(%r6)
 2866              		.loc 1 1798 0
 2867 02fc CA71     		se_lwz %r7,40(%r1)
 2868 02fe C167     		se_lwz %r6,4(%r7)
 2869 0300 CA71     		se_lwz %r7,40(%r1)
 2870 0302 C077     		se_lwz %r7,0(%r7)
 2871 0304 30E70011 		e_lbz %r7,17(%r7)
 2872 0308 00C7     		se_extzb %r7
 2873 030a 18E7C07F 		e_andi %r7,%r7,127
 2874 030e 74E5063F 		e_rlwinm %r5,%r7,0,0xff
 2875 0312 50E60048 		e_lwz %r7,72(%r6)
 2876 0316 74A7067E 		e_rlwimi %r7,%r5,0,25,31
 2877 031a 54E60048 		e_stw %r7,72(%r6)
 2878 031e 78000048 		e_b .L120
 2879              	.L119:
 2880              		.loc 1 1801 0
 2881 0322 CA71     		se_lwz %r7,40(%r1)
 2882 0324 C167     		se_lwz %r6,4(%r7)
 2883 0326 C376     		se_lwz %r7,12(%r6)
 2884 0328 4805     		se_li %r5,0
 2885 032a 74A7BA10 		e_rlwimi %r7,%r5,23,8,8
 2886 032e D376     		se_stw %r7,12(%r6)
 2887              		.loc 1 1802 0
 2888 0330 CA71     		se_lwz %r7,40(%r1)
 2889 0332 C167     		se_lwz %r6,4(%r7)
 2890 0334 50E60044 		e_lwz %r7,68(%r6)
 2891 0338 4805     		se_li %r5,0
 2892 033a 74A7825E 		e_rlwimi %r7,%r5,16,9,15
 2893 033e 54E60044 		e_stw %r7,68(%r6)
 2894              		.loc 1 1803 0
 2895 0342 CA71     		se_lwz %r7,40(%r1)
 2896 0344 C167     		se_lwz %r6,4(%r7)
 2897 0346 50E60048 		e_lwz %r7,72(%r6)
 2898 034a 4805     		se_li %r5,0
 2899 034c 74A7446E 		e_rlwimi %r7,%r5,8,17,23
 2900 0350 54E60048 		e_stw %r7,72(%r6)
 2901              		.loc 1 1804 0
GAS LISTING C:\Users\bayra\AppData\Local\Temp\ccA56S3H.s 			page 52


 2902 0354 CA71     		se_lwz %r7,40(%r1)
 2903 0356 C167     		se_lwz %r6,4(%r7)
 2904 0358 50E60048 		e_lwz %r7,72(%r6)
 2905 035c 4805     		se_li %r5,0
 2906 035e 74A7067E 		e_rlwimi %r7,%r5,0,25,31
 2907 0362 54E60048 		e_stw %r7,72(%r6)
 2908              	.L120:
 2909              		.loc 1 1808 0
 2910 0366 CA71     		se_lwz %r7,40(%r1)
 2911 0368 4C06     		se_li %r6,64
 2912 036a 9C67     		se_stb %r6,12(%r7)
 2913              		.loc 1 1809 0
 2914 036c CA71     		se_lwz %r7,40(%r1)
 2915 036e C167     		se_lwz %r6,4(%r7)
 2916 0370 50E600BC 		e_lwz %r7,188(%r6)
 2917 0374 4875     		se_li %r5,7
 2918 0376 74A7077E 		e_rlwimi %r7,%r5,0,29,31
 2919 037a 54E600BC 		e_stw %r7,188(%r6)
 2920              		.loc 1 1810 0
 2921 037e CA71     		se_lwz %r7,40(%r1)
 2922 0380 C167     		se_lwz %r6,4(%r7)
 2923 0382 50E600BC 		e_lwz %r7,188(%r6)
 2924 0386 4875     		se_li %r5,7
 2925 0388 74A72676 		e_rlwimi %r7,%r5,4,25,27
 2926 038c 54E600BC 		e_stw %r7,188(%r6)
 2927              		.loc 1 1811 0
 2928 0390 CA71     		se_lwz %r7,40(%r1)
 2929 0392 C167     		se_lwz %r6,4(%r7)
 2930 0394 50E600BC 		e_lwz %r7,188(%r6)
 2931 0398 4875     		se_li %r5,7
 2932 039a 74A7456E 		e_rlwimi %r7,%r5,8,21,23
 2933 039e 54E600BC 		e_stw %r7,188(%r6)
 2934              		.loc 1 1812 0
 2935 03a2 CA71     		se_lwz %r7,40(%r1)
 2936 03a4 C167     		se_lwz %r6,4(%r7)
 2937 03a6 50E600C8 		e_lwz %r7,200(%r6)
 2938 03aa 4875     		se_li %r5,7
 2939 03ac 74A7077E 		e_rlwimi %r7,%r5,0,29,31
 2940 03b0 54E600C8 		e_stw %r7,200(%r6)
 2941 03b4 78000052 		e_b .L121
 2942              	.L116:
 2943              		.loc 1 1817 0
 2944 03b8 CA71     		se_lwz %r7,40(%r1)
 2945 03ba 4886     		se_li %r6,8
 2946 03bc 9C67     		se_stb %r6,12(%r7)
 2947              		.loc 1 1818 0
 2948 03be CA71     		se_lwz %r7,40(%r1)
 2949 03c0 C167     		se_lwz %r6,4(%r7)
 2950 03c2 50E600BC 		e_lwz %r7,188(%r6)
 2951 03c6 4805     		se_li %r5,0
 2952 03c8 74A7077E 		e_rlwimi %r7,%r5,0,29,31
 2953 03cc 54E600BC 		e_stw %r7,188(%r6)
 2954              		.loc 1 1819 0
 2955 03d0 CA71     		se_lwz %r7,40(%r1)
 2956 03d2 C167     		se_lwz %r6,4(%r7)
 2957 03d4 50E600BC 		e_lwz %r7,188(%r6)
 2958 03d8 4805     		se_li %r5,0
GAS LISTING C:\Users\bayra\AppData\Local\Temp\ccA56S3H.s 			page 53


 2959 03da 74A72676 		e_rlwimi %r7,%r5,4,25,27
 2960 03de 54E600BC 		e_stw %r7,188(%r6)
 2961              		.loc 1 1820 0
 2962 03e2 CA71     		se_lwz %r7,40(%r1)
 2963 03e4 C167     		se_lwz %r6,4(%r7)
 2964 03e6 50E600BC 		e_lwz %r7,188(%r6)
 2965 03ea 4805     		se_li %r5,0
 2966 03ec 74A7456E 		e_rlwimi %r7,%r5,8,21,23
 2967 03f0 54E600BC 		e_stw %r7,188(%r6)
 2968              		.loc 1 1821 0
 2969 03f4 CA71     		se_lwz %r7,40(%r1)
 2970 03f6 C167     		se_lwz %r6,4(%r7)
 2971 03f8 50E600C8 		e_lwz %r7,200(%r6)
 2972 03fc 4805     		se_li %r5,0
 2973 03fe 74A7077E 		e_rlwimi %r7,%r5,0,29,31
 2974 0402 54E600C8 		e_stw %r7,200(%r6)
 2975              	.L121:
 2976              		.loc 1 1825 0
 2977 0406 CA71     		se_lwz %r7,40(%r1)
 2978 0408 C167     		se_lwz %r6,4(%r7)
 2979 040a 50E60080 		e_lwz %r7,128(%r6)
 2980 040e 4835     		se_li %r5,3
 2981 0410 74A726B6 		e_rlwimi %r7,%r5,4,26,27
 2982 0414 54E60080 		e_stw %r7,128(%r6)
 2983              		.loc 1 1829 0
 2984 0418 CA71     		se_lwz %r7,40(%r1)
 2985 041a C167     		se_lwz %r6,4(%r7)
 2986 041c C371     		se_lwz %r7,12(%r1)
 2987 041e 6827     		se_srwi %r7,2
 2988 0420 00E7     		se_extzh %r7
 2989 0422 74E704BF 		e_rlwinm %r7,%r7,0,18,31
 2990 0426 74E5043F 		e_rlwinm %r5,%r7,0,0xffff
 2991 042a 50E60084 		e_lwz %r7,132(%r6)
 2992 042e 74A7143A 		e_rlwimi %r7,%r5,2,16,29
 2993 0432 54E60084 		e_stw %r7,132(%r6)
 2994              		.loc 1 1830 0
 2995 0436 CA71     		se_lwz %r7,40(%r1)
 2996 0438 C177     		se_lwz %r7,4(%r7)
 2997 043a CA61     		se_lwz %r6,40(%r1)
 2998 043c C066     		se_lwz %r6,0(%r6)
 2999 043e 30C600D0 		e_lbz %r6,208(%r6)
 3000 0442 00C6     		se_extzb %r6
 3001 0444 34C70085 		e_stb %r6,133(%r7)
 3002              		.loc 1 1831 0
 3003 0448 CA71     		se_lwz %r7,40(%r1)
 3004 044a C077     		se_lwz %r7,0(%r7)
 3005 044c 30E700D0 		e_lbz %r7,208(%r7)
 3006 0450 00C7     		se_extzb %r7
 3007 0452 6C27     		se_slwi %r7, 2
 3008 0454 C361     		se_lwz %r6,12(%r1)
 3009 0456 7CE63A14 		add %r7,%r6,%r7
 3010 045a D371     		se_stw %r7,12(%r1)
 3011              		.loc 1 1838 0
 3012 045c CA71     		se_lwz %r7,40(%r1)
 3013 045e C167     		se_lwz %r6,4(%r7)
 3014 0460 C371     		se_lwz %r7,12(%r1)
 3015 0462 6827     		se_srwi %r7,2
GAS LISTING C:\Users\bayra\AppData\Local\Temp\ccA56S3H.s 			page 54


 3016 0464 00E7     		se_extzh %r7
 3017 0466 74E704BF 		e_rlwinm %r7,%r7,0,18,31
 3018 046a 74E5043F 		e_rlwinm %r5,%r7,0,0xffff
 3019 046e 50E60088 		e_lwz %r7,136(%r6)
 3020 0472 74A7143A 		e_rlwimi %r7,%r5,2,16,29
 3021 0476 54E60088 		e_stw %r7,136(%r6)
 3022              		.loc 1 1839 0
 3023 047a CA71     		se_lwz %r7,40(%r1)
 3024 047c C167     		se_lwz %r6,4(%r7)
 3025 047e CA71     		se_lwz %r7,40(%r1)
 3026 0480 C077     		se_lwz %r7,0(%r7)
 3027 0482 30E700D1 		e_lbz %r7,209(%r7)
 3028 0486 00C7     		se_extzb %r7
 3029 0488 18E7C07F 		e_andi %r7,%r7,127
 3030 048c 74E5063F 		e_rlwinm %r5,%r7,0,0xff
 3031 0490 50E60088 		e_lwz %r7,136(%r6)
 3032 0494 74A7825E 		e_rlwimi %r7,%r5,16,9,15
 3033 0498 54E60088 		e_stw %r7,136(%r6)
 3034              		.loc 1 1840 0
 3035 049c CA71     		se_lwz %r7,40(%r1)
 3036 049e C077     		se_lwz %r7,0(%r7)
 3037 04a0 30E700D1 		e_lbz %r7,209(%r7)
 3038 04a4 00C7     		se_extzb %r7
 3039 04a6 6C37     		se_slwi %r7, 3
 3040 04a8 C361     		se_lwz %r6,12(%r1)
 3041 04aa 7CE63A14 		add %r7,%r6,%r7
 3042 04ae D371     		se_stw %r7,12(%r1)
 3043              		.loc 1 1846 0
 3044 04b0 CA71     		se_lwz %r7,40(%r1)
 3045 04b2 C167     		se_lwz %r6,4(%r7)
 3046 04b4 C371     		se_lwz %r7,12(%r1)
 3047 04b6 6827     		se_srwi %r7,2
 3048 04b8 00E7     		se_extzh %r7
 3049 04ba 74E704BF 		e_rlwinm %r7,%r7,0,18,31
 3050 04be 74E5043F 		e_rlwinm %r5,%r7,0,0xffff
 3051 04c2 50E600A0 		e_lwz %r7,160(%r6)
 3052 04c6 74A7143A 		e_rlwimi %r7,%r5,2,16,29
 3053 04ca 54E600A0 		e_stw %r7,160(%r6)
 3054              		.loc 1 1847 0
 3055 04ce CA71     		se_lwz %r7,40(%r1)
 3056 04d0 C167     		se_lwz %r6,4(%r7)
 3057 04d2 CA71     		se_lwz %r7,40(%r1)
 3058 04d4 C077     		se_lwz %r7,0(%r7)
 3059 04d6 30E700D3 		e_lbz %r7,211(%r7)
 3060 04da 00C7     		se_extzb %r7
 3061 04dc 18E7C07F 		e_andi %r7,%r7,127
 3062 04e0 74E5063F 		e_rlwinm %r5,%r7,0,0xff
 3063 04e4 50E600A0 		e_lwz %r7,160(%r6)
 3064 04e8 74A7825E 		e_rlwimi %r7,%r5,16,9,15
 3065 04ec 54E600A0 		e_stw %r7,160(%r6)
 3066              		.loc 1 1849 0
 3067 04f0 CA71     		se_lwz %r7,40(%r1)
 3068 04f2 C077     		se_lwz %r7,0(%r7)
 3069 04f4 30E70030 		e_lbz %r7,48(%r7)
 3070 04f8 00C7     		se_extzb %r7
 3071 04fa 2207     		se_cmpli %r7,1
 3072 04fc 7F800020 		e_mcrf %cr7,%cr0
GAS LISTING C:\Users\bayra\AppData\Local\Temp\ccA56S3H.s 			page 55


 3073 0500 7CE00026 		mfcr %r7
 3074 0504 74E7E007 		e_rlwinm %r7,%r7,28,0xf0000000
 3075 0508 7CE80120 		mtcrf 128,%r7
 3076 050c 7A02001A 		e_bne %cr0,.L122
 3077              		.loc 1 1850 0
 3078 0510 CA71     		se_lwz %r7,40(%r1)
 3079 0512 C167     		se_lwz %r6,4(%r7)
 3080 0514 50E600A0 		e_lwz %r7,160(%r6)
 3081 0518 4805     		se_li %r5,0
 3082 051a 74A7F800 		e_rlwimi %r7,%r5,31,0,0
 3083 051e 54E600A0 		e_stw %r7,160(%r6)
 3084 0522 78000016 		e_b .L123
 3085              	.L122:
 3086              		.loc 1 1853 0
 3087 0526 CA71     		se_lwz %r7,40(%r1)
 3088 0528 C167     		se_lwz %r6,4(%r7)
 3089 052a 50E600A0 		e_lwz %r7,160(%r6)
 3090 052e 4815     		se_li %r5,1
 3091 0530 74A7F800 		e_rlwimi %r7,%r5,31,0,0
 3092 0534 54E600A0 		e_stw %r7,160(%r6)
 3093              	.L123:
 3094              		.loc 1 1855 0
 3095 0538 CA71     		se_lwz %r7,40(%r1)
 3096 053a C077     		se_lwz %r7,0(%r7)
 3097 053c 30E70020 		e_lbz %r7,32(%r7)
 3098 0540 00C7     		se_extzb %r7
 3099 0542 2A07     		se_cmpi %r7,0
 3100 0544 7F800020 		e_mcrf %cr7,%cr0
 3101 0548 7CE00026 		mfcr %r7
 3102 054c 74E7E007 		e_rlwinm %r7,%r7,28,0xf0000000
 3103 0550 7CE80120 		mtcrf 128,%r7
 3104 0554 7A120026 		e_beq %cr0,.L124
 3105              		.loc 1 1856 0
 3106 0558 CA71     		se_lwz %r7,40(%r1)
 3107 055a C167     		se_lwz %r6,4(%r7)
 3108 055c CA71     		se_lwz %r7,40(%r1)
 3109 055e C077     		se_lwz %r7,0(%r7)
 3110 0560 30E70020 		e_lbz %r7,32(%r7)
 3111 0564 00C7     		se_extzb %r7
 3112 0566 18E7C07F 		e_andi %r7,%r7,127
 3113 056a 74E5063F 		e_rlwinm %r5,%r7,0,0xff
 3114 056e 50E600A0 		e_lwz %r7,160(%r6)
 3115 0572 74A7C04E 		e_rlwimi %r7,%r5,24,1,7
 3116 0576 54E600A0 		e_stw %r7,160(%r6)
 3117              	.L124:
 3118              		.loc 1 1858 0
 3119 057a CA71     		se_lwz %r7,40(%r1)
 3120 057c 8C77     		se_lbz %r7,12(%r7)
 3121 057e 00C7     		se_extzb %r7
 3122 0580 2077     		se_addi %r7,8
 3123 0582 CA61     		se_lwz %r6,40(%r1)
 3124 0584 C066     		se_lwz %r6,0(%r6)
 3125 0586 30C600D3 		e_lbz %r6,211(%r6)
 3126 058a 00C6     		se_extzb %r6
 3127 058c 0567     		se_mullw %r7,%r6
 3128 058e C361     		se_lwz %r6,12(%r1)
 3129 0590 7CE63A14 		add %r7,%r6,%r7
GAS LISTING C:\Users\bayra\AppData\Local\Temp\ccA56S3H.s 			page 56


 3130 0594 D371     		se_stw %r7,12(%r1)
 3131              		.loc 1 1864 0
 3132 0596 CA71     		se_lwz %r7,40(%r1)
 3133 0598 C167     		se_lwz %r6,4(%r7)
 3134 059a C371     		se_lwz %r7,12(%r1)
 3135 059c 6827     		se_srwi %r7,2
 3136 059e 00E7     		se_extzh %r7
 3137 05a0 74E704BF 		e_rlwinm %r7,%r7,0,18,31
 3138 05a4 74E5043F 		e_rlwinm %r5,%r7,0,0xffff
 3139 05a8 50E600B0 		e_lwz %r7,176(%r6)
 3140 05ac 74A7143A 		e_rlwimi %r7,%r5,2,16,29
 3141 05b0 54E600B0 		e_stw %r7,176(%r6)
 3142              		.loc 1 1865 0
 3143 05b4 CA71     		se_lwz %r7,40(%r1)
 3144 05b6 C167     		se_lwz %r6,4(%r7)
 3145 05b8 CA71     		se_lwz %r7,40(%r1)
 3146 05ba C077     		se_lwz %r7,0(%r7)
 3147 05bc 30E700D4 		e_lbz %r7,212(%r7)
 3148 05c0 00C7     		se_extzb %r7
 3149 05c2 18E7C07F 		e_andi %r7,%r7,127
 3150 05c6 74E5063F 		e_rlwinm %r5,%r7,0,0xff
 3151 05ca 50E600B0 		e_lwz %r7,176(%r6)
 3152 05ce 74A7825E 		e_rlwimi %r7,%r5,16,9,15
 3153 05d2 54E600B0 		e_stw %r7,176(%r6)
 3154              		.loc 1 1867 0
 3155 05d6 CA71     		se_lwz %r7,40(%r1)
 3156 05d8 C077     		se_lwz %r7,0(%r7)
 3157 05da 30E70050 		e_lbz %r7,80(%r7)
 3158 05de 00C7     		se_extzb %r7
 3159 05e0 2207     		se_cmpli %r7,1
 3160 05e2 7F800020 		e_mcrf %cr7,%cr0
 3161 05e6 7CE00026 		mfcr %r7
 3162 05ea 74E7E007 		e_rlwinm %r7,%r7,28,0xf0000000
 3163 05ee 7CE80120 		mtcrf 128,%r7
 3164 05f2 7A02001A 		e_bne %cr0,.L125
 3165              		.loc 1 1868 0
 3166 05f6 CA71     		se_lwz %r7,40(%r1)
 3167 05f8 C167     		se_lwz %r6,4(%r7)
 3168 05fa 50E600B0 		e_lwz %r7,176(%r6)
 3169 05fe 4805     		se_li %r5,0
 3170 0600 74A7F800 		e_rlwimi %r7,%r5,31,0,0
 3171 0604 54E600B0 		e_stw %r7,176(%r6)
 3172 0608 78000016 		e_b .L126
 3173              	.L125:
 3174              		.loc 1 1871 0
 3175 060c CA71     		se_lwz %r7,40(%r1)
 3176 060e C167     		se_lwz %r6,4(%r7)
 3177 0610 50E600B0 		e_lwz %r7,176(%r6)
 3178 0614 4815     		se_li %r5,1
 3179 0616 74A7F800 		e_rlwimi %r7,%r5,31,0,0
 3180 061a 54E600B0 		e_stw %r7,176(%r6)
 3181              	.L126:
 3182              		.loc 1 1873 0
 3183 061e CA71     		se_lwz %r7,40(%r1)
 3184 0620 C077     		se_lwz %r7,0(%r7)
 3185 0622 30E70040 		e_lbz %r7,64(%r7)
 3186 0626 00C7     		se_extzb %r7
GAS LISTING C:\Users\bayra\AppData\Local\Temp\ccA56S3H.s 			page 57


 3187 0628 2A07     		se_cmpi %r7,0
 3188 062a 7F800020 		e_mcrf %cr7,%cr0
 3189 062e 7CE00026 		mfcr %r7
 3190 0632 74E7E007 		e_rlwinm %r7,%r7,28,0xf0000000
 3191 0636 7CE80120 		mtcrf 128,%r7
 3192 063a 7A120026 		e_beq %cr0,.L127
 3193              		.loc 1 1874 0
 3194 063e CA71     		se_lwz %r7,40(%r1)
 3195 0640 C167     		se_lwz %r6,4(%r7)
 3196 0642 CA71     		se_lwz %r7,40(%r1)
 3197 0644 C077     		se_lwz %r7,0(%r7)
 3198 0646 30E70040 		e_lbz %r7,64(%r7)
 3199 064a 00C7     		se_extzb %r7
 3200 064c 18E7C07F 		e_andi %r7,%r7,127
 3201 0650 74E5063F 		e_rlwinm %r5,%r7,0,0xff
 3202 0654 50E600B0 		e_lwz %r7,176(%r6)
 3203 0658 74A7C04E 		e_rlwimi %r7,%r5,24,1,7
 3204 065c 54E600B0 		e_stw %r7,176(%r6)
 3205              	.L127:
 3206              		.loc 1 1876 0
 3207 0660 CA71     		se_lwz %r7,40(%r1)
 3208 0662 8C77     		se_lbz %r7,12(%r7)
 3209 0664 00C7     		se_extzb %r7
 3210 0666 2077     		se_addi %r7,8
 3211 0668 CA61     		se_lwz %r6,40(%r1)
 3212 066a C066     		se_lwz %r6,0(%r6)
 3213 066c 30C600D4 		e_lbz %r6,212(%r6)
 3214 0670 00C6     		se_extzb %r6
 3215 0672 0567     		se_mullw %r7,%r6
 3216 0674 C361     		se_lwz %r6,12(%r1)
 3217 0676 7CE63A14 		add %r7,%r6,%r7
 3218 067a D371     		se_stw %r7,12(%r1)
 3219              		.loc 1 1882 0
 3220 067c CA71     		se_lwz %r7,40(%r1)
 3221 067e C167     		se_lwz %r6,4(%r7)
 3222 0680 C371     		se_lwz %r7,12(%r1)
 3223 0682 6827     		se_srwi %r7,2
 3224 0684 00E7     		se_extzh %r7
 3225 0686 74E704BF 		e_rlwinm %r7,%r7,0,18,31
 3226 068a 74E5043F 		e_rlwinm %r5,%r7,0,0xffff
 3227 068e 50E600AC 		e_lwz %r7,172(%r6)
 3228 0692 74A7143A 		e_rlwimi %r7,%r5,2,16,29
 3229 0696 54E600AC 		e_stw %r7,172(%r6)
 3230              		.loc 1 1888 0
 3231 069a CA71     		se_lwz %r7,40(%r1)
 3232 069c 8C77     		se_lbz %r7,12(%r7)
 3233 069e 00C7     		se_extzb %r7
 3234 06a0 2077     		se_addi %r7,8
 3235 06a2 CA61     		se_lwz %r6,40(%r1)
 3236 06a4 C066     		se_lwz %r6,0(%r6)
 3237 06a6 30C600D2 		e_lbz %r6,210(%r6)
 3238 06aa 00C6     		se_extzb %r6
 3239 06ac 0567     		se_mullw %r7,%r6
 3240 06ae C361     		se_lwz %r6,12(%r1)
 3241 06b0 7CE63A14 		add %r7,%r6,%r7
 3242 06b4 D371     		se_stw %r7,12(%r1)
 3243              		.loc 1 1895 0
GAS LISTING C:\Users\bayra\AppData\Local\Temp\ccA56S3H.s 			page 58


 3244 06b6 CA71     		se_lwz %r7,40(%r1)
 3245 06b8 C167     		se_lwz %r6,4(%r7)
 3246 06ba C371     		se_lwz %r7,12(%r1)
 3247 06bc 6827     		se_srwi %r7,2
 3248 06be 00E7     		se_extzh %r7
 3249 06c0 74E704BF 		e_rlwinm %r7,%r7,0,18,31
 3250 06c4 74E5043F 		e_rlwinm %r5,%r7,0,0xffff
 3251 06c8 50E600C0 		e_lwz %r7,192(%r6)
 3252 06cc 74A7143A 		e_rlwimi %r7,%r5,2,16,29
 3253 06d0 54E600C0 		e_stw %r7,192(%r6)
 3254              		.loc 1 1896 0
 3255 06d4 CA71     		se_lwz %r7,40(%r1)
 3256 06d6 C167     		se_lwz %r6,4(%r7)
 3257 06d8 CA71     		se_lwz %r7,40(%r1)
 3258 06da C077     		se_lwz %r7,0(%r7)
 3259 06dc 30E700D6 		e_lbz %r7,214(%r7)
 3260 06e0 00C7     		se_extzb %r7
 3261 06e2 18E7C03F 		e_andi %r7,%r7,63
 3262 06e6 74E5063F 		e_rlwinm %r5,%r7,0,0xff
 3263 06ea 50E600C0 		e_lwz %r7,192(%r6)
 3264 06ee 74A7829E 		e_rlwimi %r7,%r5,16,10,15
 3265 06f2 54E600C0 		e_stw %r7,192(%r6)
 3266              		.loc 1 1898 0
 3267 06f6 CA71     		se_lwz %r7,40(%r1)
 3268 06f8 C077     		se_lwz %r7,0(%r7)
 3269 06fa 30E700D5 		e_lbz %r7,213(%r7)
 3270 06fe 00C7     		se_extzb %r7
 3271 0700 7007A8FF 		e_cmpl16i %r7,255
 3272 0704 7F800020 		e_mcrf %cr7,%cr0
 3273 0708 7CE00026 		mfcr %r7
 3274 070c 74E7E007 		e_rlwinm %r7,%r7,28,0xf0000000
 3275 0710 7CE80120 		mtcrf 128,%r7
 3276 0714 7A12007C 		e_beq %cr0,.L128
 3277              		.loc 1 1899 0
 3278 0718 CA71     		se_lwz %r7,40(%r1)
 3279 071a C167     		se_lwz %r6,4(%r7)
 3280 071c CA71     		se_lwz %r7,40(%r1)
 3281 071e C077     		se_lwz %r7,0(%r7)
 3282 0720 30E700D7 		e_lbz %r7,215(%r7)
 3283 0724 00C7     		se_extzb %r7
 3284 0726 18E7C03F 		e_andi %r7,%r7,63
 3285 072a 74E5063F 		e_rlwinm %r5,%r7,0,0xff
 3286 072e 50E600C0 		e_lwz %r7,192(%r6)
 3287 0732 74A7C08E 		e_rlwimi %r7,%r5,24,2,7
 3288 0736 54E600C0 		e_stw %r7,192(%r6)
 3289              		.loc 1 1901 0
 3290 073a CA71     		se_lwz %r7,40(%r1)
 3291 073c C077     		se_lwz %r7,0(%r7)
 3292 073e 30E700D5 		e_lbz %r7,213(%r7)
 3293 0742 00C7     		se_extzb %r7
 3294 0744 7007A8FE 		e_cmpl16i %r7,254
 3295 0748 7F800020 		e_mcrf %cr7,%cr0
 3296 074c 7CE00026 		mfcr %r7
 3297 0750 74E7E007 		e_rlwinm %r7,%r7,28,0xf0000000
 3298 0754 7CE80120 		mtcrf 128,%r7
 3299 0758 7A120026 		e_beq %cr0,.L129
 3300              		.loc 1 1901 0 is_stmt 0 discriminator 1
GAS LISTING C:\Users\bayra\AppData\Local\Temp\ccA56S3H.s 			page 59


 3301 075c CA71     		se_lwz %r7,40(%r1)
 3302 075e C077     		se_lwz %r7,0(%r7)
 3303 0760 30E700D5 		e_lbz %r7,213(%r7)
 3304 0764 00C7     		se_extzb %r7
 3305 0766 7007A8FC 		e_cmpl16i %r7,252
 3306 076a 7F800020 		e_mcrf %cr7,%cr0
 3307 076e 7CE00026 		mfcr %r7
 3308 0772 74E7E007 		e_rlwinm %r7,%r7,28,0xf0000000
 3309 0776 7CE80120 		mtcrf 128,%r7
 3310 077a 7A020016 		e_bne %cr0,.L128
 3311              	.L129:
 3312              		.loc 1 1902 0 is_stmt 1
 3313 077e CA71     		se_lwz %r7,40(%r1)
 3314 0780 C167     		se_lwz %r6,4(%r7)
 3315 0782 50E600C0 		e_lwz %r7,192(%r6)
 3316 0786 4815     		se_li %r5,1
 3317 0788 74A7F042 		e_rlwimi %r7,%r5,30,1,1
 3318 078c 54E600C0 		e_stw %r7,192(%r6)
 3319              	.L128:
 3320              		.loc 1 1908 0
 3321 0790 4807     		se_li %r7,0
 3322 0792 D271     		se_stw %r7,8(%r1)
 3323 0794 780000D2 		e_b .L130
 3324              	.L131:
 3325              	.LBB3:
 3326              		.loc 1 1912 0 discriminator 3
 3327 0798 CA71     		se_lwz %r7,40(%r1)
 3328 079a C057     		se_lwz %r5,0(%r7)
 3329 079c C271     		se_lwz %r7,8(%r1)
 3330 079e 0176     		se_mr %r6,%r7
 3331 07a0 7CC71070 		e_slwi %r7,%r6,2
 3332 07a4 0176     		se_mr %r6,%r7
 3333 07a6 7CC71070 		e_slwi %r7,%r6,2
 3334 07aa 0667     		se_sub %r7, %r6
 3335 07ac 7CE53A14 		add %r7,%r5,%r7
 3336 07b0 18E78050 		e_addi %r7,%r7,80
 3337 07b4 C377     		se_lwz %r7,12(%r7)
 3338 07b6 D471     		se_stw %r7,16(%r1)
 3339              		.loc 1 1913 0 discriminator 3
 3340 07b8 CA71     		se_lwz %r7,40(%r1)
 3341 07ba C057     		se_lwz %r5,0(%r7)
 3342 07bc C271     		se_lwz %r7,8(%r1)
 3343 07be 0176     		se_mr %r6,%r7
 3344 07c0 7CC71070 		e_slwi %r7,%r6,2
 3345 07c4 0176     		se_mr %r6,%r7
 3346 07c6 7CC71070 		e_slwi %r7,%r6,2
 3347 07ca 0667     		se_sub %r7, %r6
 3348 07cc 7CE53A14 		add %r7,%r5,%r7
 3349 07d0 18E78050 		e_addi %r7,%r7,80
 3350 07d4 C277     		se_lwz %r7,8(%r7)
 3351 07d6 6D07     		se_slwi %r7, 16
 3352 07d8 C461     		se_lwz %r6,16(%r1)
 3353 07da 7CE63A14 		add %r7,%r6,%r7
 3354 07de D471     		se_stw %r7,16(%r1)
 3355              		.loc 1 1914 0 discriminator 3
 3356 07e0 CA71     		se_lwz %r7,40(%r1)
 3357 07e2 C057     		se_lwz %r5,0(%r7)
GAS LISTING C:\Users\bayra\AppData\Local\Temp\ccA56S3H.s 			page 60


 3358 07e4 C271     		se_lwz %r7,8(%r1)
 3359 07e6 0176     		se_mr %r6,%r7
 3360 07e8 7CC71070 		e_slwi %r7,%r6,2
 3361 07ec 0176     		se_mr %r6,%r7
 3362 07ee 7CC71070 		e_slwi %r7,%r6,2
 3363 07f2 0667     		se_sub %r7, %r6
 3364 07f4 7CE53A14 		add %r7,%r5,%r7
 3365 07f8 18E78050 		e_addi %r7,%r7,80
 3366 07fc 30E70011 		e_lbz %r7,17(%r7)
 3367 0800 00C7     		se_extzb %r7
 3368 0802 6DB7     		se_slwi %r7, 27
 3369 0804 C461     		se_lwz %r6,16(%r1)
 3370 0806 7CE63A14 		add %r7,%r6,%r7
 3371 080a D471     		se_stw %r7,16(%r1)
 3372              		.loc 1 1915 0 discriminator 3
 3373 080c CA71     		se_lwz %r7,40(%r1)
 3374 080e C057     		se_lwz %r5,0(%r7)
 3375 0810 C271     		se_lwz %r7,8(%r1)
 3376 0812 0176     		se_mr %r6,%r7
 3377 0814 7CC71070 		e_slwi %r7,%r6,2
 3378 0818 0176     		se_mr %r6,%r7
 3379 081a 7CC71070 		e_slwi %r7,%r6,2
 3380 081e 0667     		se_sub %r7, %r6
 3381 0820 7CE53A14 		add %r7,%r5,%r7
 3382 0824 18E78050 		e_addi %r7,%r7,80
 3383 0828 30E70010 		e_lbz %r7,16(%r7)
 3384 082c 00C7     		se_extzb %r7
 3385 082e 6DE7     		se_slwi %r7, 30
 3386 0830 C461     		se_lwz %r6,16(%r1)
 3387 0832 7CE63A14 		add %r7,%r6,%r7
 3388 0836 D471     		se_stw %r7,16(%r1)
 3389              		.loc 1 1916 0 discriminator 3
 3390 0838 CA71     		se_lwz %r7,40(%r1)
 3391 083a C267     		se_lwz %r6,8(%r7)
 3392 083c CA71     		se_lwz %r7,40(%r1)
 3393 083e C177     		se_lwz %r7,4(%r7)
 3394 0840 50E70084 		e_lwz %r7,132(%r7)
 3395 0844 6827     		se_srwi %r7,2
 3396 0846 74E704BF 		e_rlwinm %r7,%r7,0,18,31
 3397 084a 00E7     		se_extzh %r7
 3398 084c 6C27     		se_slwi %r7, 2
 3399 084e 0476     		se_add %r6,%r7
 3400 0850 C271     		se_lwz %r7,8(%r1)
 3401 0852 6C27     		se_slwi %r7, 2
 3402 0854 7CE63A14 		add %r7,%r6,%r7
 3403 0858 D571     		se_stw %r7,20(%r1)
 3404              		.loc 1 1917 0 discriminator 3
 3405 085a C571     		se_lwz %r7,20(%r1)
 3406 085c C461     		se_lwz %r6,16(%r1)
 3407 085e D067     		se_stw %r6,0(%r7)
 3408              	.LBE3:
 3409              		.loc 1 1908 0 discriminator 3
 3410 0860 C271     		se_lwz %r7,8(%r1)
 3411 0862 2007     		se_addi %r7,1
 3412 0864 D271     		se_stw %r7,8(%r1)
 3413              	.L130:
 3414              		.loc 1 1908 0 is_stmt 0 discriminator 1
GAS LISTING C:\Users\bayra\AppData\Local\Temp\ccA56S3H.s 			page 61


 3415 0866 CA71     		se_lwz %r7,40(%r1)
 3416 0868 C077     		se_lwz %r7,0(%r7)
 3417 086a 30E700D0 		e_lbz %r7,208(%r7)
 3418 086e 00C7     		se_extzb %r7
 3419 0870 0176     		se_mr %r6,%r7
 3420 0872 C271     		se_lwz %r7,8(%r1)
 3421 0874 7F863840 		cmpl %cr7,%r6,%r7
 3422 0878 7CE00026 		mfcr %r7
 3423 087c 74E7E007 		e_rlwinm %r7,%r7,28,0xf0000000
 3424 0880 7CE80120 		mtcrf 128,%r7
 3425 0884 7A11FF14 		e_bgt %cr0,.L131
 3426              		.loc 1 1921 0 is_stmt 1
 3427 0888 4807     		se_li %r7,0
 3428 088a D271     		se_stw %r7,8(%r1)
 3429 088c 780000F4 		e_b .L132
 3430              	.L133:
 3431              	.LBB4:
 3432              		.loc 1 1926 0 discriminator 3
 3433 0890 CA71     		se_lwz %r7,40(%r1)
 3434 0892 C057     		se_lwz %r5,0(%r7)
 3435 0894 C271     		se_lwz %r7,8(%r1)
 3436 0896 0176     		se_mr %r6,%r7
 3437 0898 7CC71070 		e_slwi %r7,%r6,2
 3438 089c 0176     		se_mr %r6,%r7
 3439 089e 7CC71070 		e_slwi %r7,%r6,2
 3440 08a2 0667     		se_sub %r7, %r6
 3441 08a4 7CE53A14 		add %r7,%r5,%r7
 3442 08a8 18E780A0 		e_addi %r7,%r7,160
 3443 08ac C377     		se_lwz %r7,12(%r7)
 3444 08ae D671     		se_stw %r7,24(%r1)
 3445              		.loc 1 1927 0 discriminator 3
 3446 08b0 CA71     		se_lwz %r7,40(%r1)
 3447 08b2 C057     		se_lwz %r5,0(%r7)
 3448 08b4 C271     		se_lwz %r7,8(%r1)
 3449 08b6 0176     		se_mr %r6,%r7
 3450 08b8 7CC71070 		e_slwi %r7,%r6,2
 3451 08bc 0176     		se_mr %r6,%r7
 3452 08be 7CC71070 		e_slwi %r7,%r6,2
 3453 08c2 0667     		se_sub %r7, %r6
 3454 08c4 7CE53A14 		add %r7,%r5,%r7
 3455 08c8 18E780A0 		e_addi %r7,%r7,160
 3456 08cc 30E70015 		e_lbz %r7,21(%r7)
 3457 08d0 00C7     		se_extzb %r7
 3458 08d2 6DD7     		se_slwi %r7, 29
 3459 08d4 C661     		se_lwz %r6,24(%r1)
 3460 08d6 7CE63A14 		add %r7,%r6,%r7
 3461 08da D671     		se_stw %r7,24(%r1)
 3462              		.loc 1 1928 0 discriminator 3
 3463 08dc CA71     		se_lwz %r7,40(%r1)
 3464 08de C267     		se_lwz %r6,8(%r7)
 3465 08e0 CA71     		se_lwz %r7,40(%r1)
 3466 08e2 C177     		se_lwz %r7,4(%r7)
 3467 08e4 50E70088 		e_lwz %r7,136(%r7)
 3468 08e8 6827     		se_srwi %r7,2
 3469 08ea 74E704BF 		e_rlwinm %r7,%r7,0,18,31
 3470 08ee 00E7     		se_extzh %r7
 3471 08f0 6C27     		se_slwi %r7, 2
GAS LISTING C:\Users\bayra\AppData\Local\Temp\ccA56S3H.s 			page 62


 3472 08f2 0476     		se_add %r6,%r7
 3473 08f4 C271     		se_lwz %r7,8(%r1)
 3474 08f6 6C37     		se_slwi %r7, 3
 3475 08f8 7CE63A14 		add %r7,%r6,%r7
 3476 08fc D771     		se_stw %r7,28(%r1)
 3477              		.loc 1 1929 0 discriminator 3
 3478 08fe C771     		se_lwz %r7,28(%r1)
 3479 0900 C661     		se_lwz %r6,24(%r1)
 3480 0902 D067     		se_stw %r6,0(%r7)
 3481              		.loc 1 1931 0 discriminator 3
 3482 0904 CA71     		se_lwz %r7,40(%r1)
 3483 0906 C057     		se_lwz %r5,0(%r7)
 3484 0908 C271     		se_lwz %r7,8(%r1)
 3485 090a 0176     		se_mr %r6,%r7
 3486 090c 7CC71070 		e_slwi %r7,%r6,2
 3487 0910 0176     		se_mr %r6,%r7
 3488 0912 7CC71070 		e_slwi %r7,%r6,2
 3489 0916 0667     		se_sub %r7, %r6
 3490 0918 7CE53A14 		add %r7,%r5,%r7
 3491 091c 18E780A0 		e_addi %r7,%r7,160
 3492 0920 C477     		se_lwz %r7,16(%r7)
 3493 0922 D671     		se_stw %r7,24(%r1)
 3494              		.loc 1 1932 0 discriminator 3
 3495 0924 CA71     		se_lwz %r7,40(%r1)
 3496 0926 C057     		se_lwz %r5,0(%r7)
 3497 0928 C271     		se_lwz %r7,8(%r1)
 3498 092a 0176     		se_mr %r6,%r7
 3499 092c 7CC71070 		e_slwi %r7,%r6,2
 3500 0930 0176     		se_mr %r6,%r7
 3501 0932 7CC71070 		e_slwi %r7,%r6,2
 3502 0936 0667     		se_sub %r7, %r6
 3503 0938 7CE53A14 		add %r7,%r5,%r7
 3504 093c 18E780A0 		e_addi %r7,%r7,160
 3505 0940 30E70014 		e_lbz %r7,20(%r7)
 3506 0944 00C7     		se_extzb %r7
 3507 0946 6DE7     		se_slwi %r7, 30
 3508 0948 C661     		se_lwz %r6,24(%r1)
 3509 094a 7CE63A14 		add %r7,%r6,%r7
 3510 094e D671     		se_stw %r7,24(%r1)
 3511              		.loc 1 1933 0 discriminator 3
 3512 0950 CA71     		se_lwz %r7,40(%r1)
 3513 0952 C267     		se_lwz %r6,8(%r7)
 3514 0954 CA71     		se_lwz %r7,40(%r1)
 3515 0956 C177     		se_lwz %r7,4(%r7)
 3516 0958 50E70088 		e_lwz %r7,136(%r7)
 3517 095c 6827     		se_srwi %r7,2
 3518 095e 74E704BF 		e_rlwinm %r7,%r7,0,18,31
 3519 0962 00E7     		se_extzh %r7
 3520 0964 6C27     		se_slwi %r7, 2
 3521 0966 0476     		se_add %r6,%r7
 3522 0968 C271     		se_lwz %r7,8(%r1)
 3523 096a 6C37     		se_slwi %r7, 3
 3524 096c 7CE63A14 		add %r7,%r6,%r7
 3525 0970 2037     		se_addi %r7,4
 3526 0972 D771     		se_stw %r7,28(%r1)
 3527              		.loc 1 1934 0 discriminator 3
 3528 0974 C771     		se_lwz %r7,28(%r1)
GAS LISTING C:\Users\bayra\AppData\Local\Temp\ccA56S3H.s 			page 63


 3529 0976 C661     		se_lwz %r6,24(%r1)
 3530 0978 D067     		se_stw %r6,0(%r7)
 3531              	.LBE4:
 3532              		.loc 1 1921 0 discriminator 3
 3533 097a C271     		se_lwz %r7,8(%r1)
 3534 097c 2007     		se_addi %r7,1
 3535 097e D271     		se_stw %r7,8(%r1)
 3536              	.L132:
 3537              		.loc 1 1921 0 is_stmt 0 discriminator 1
 3538 0980 CA71     		se_lwz %r7,40(%r1)
 3539 0982 C077     		se_lwz %r7,0(%r7)
 3540 0984 30E700D1 		e_lbz %r7,209(%r7)
 3541 0988 00C7     		se_extzb %r7
 3542 098a 0176     		se_mr %r6,%r7
 3543 098c C271     		se_lwz %r7,8(%r1)
 3544 098e 7F863840 		cmpl %cr7,%r6,%r7
 3545 0992 7CE00026 		mfcr %r7
 3546 0996 74E7E007 		e_rlwinm %r7,%r7,28,0xf0000000
 3547 099a 7CE80120 		mtcrf 128,%r7
 3548 099e 7A11FEF2 		e_bgt %cr0,.L133
 3549              		.loc 1 1938 0 is_stmt 1
 3550 09a2 CA71     		se_lwz %r7,40(%r1)
 3551 09a4 C077     		se_lwz %r7,0(%r7)
 3552 09a6 30E70012 		e_lbz %r7,18(%r7)
 3553 09aa 00C7     		se_extzb %r7
 3554 09ac 7007A8FF 		e_cmpl16i %r7,255
 3555 09b0 7F800020 		e_mcrf %cr7,%cr0
 3556 09b4 7CE00026 		mfcr %r7
 3557 09b8 74E7E007 		e_rlwinm %r7,%r7,28,0xf0000000
 3558 09bc 7CE80120 		mtcrf 128,%r7
 3559 09c0 7A120036 		e_beq %cr0,.L134
 3560              		.loc 1 1939 0
 3561 09c4 CA71     		se_lwz %r7,40(%r1)
 3562 09c6 C167     		se_lwz %r6,4(%r7)
 3563 09c8 50E60054 		e_lwz %r7,84(%r6)
 3564 09cc 4815     		se_li %r5,1
 3565 09ce 74A79B18 		e_rlwimi %r7,%r5,19,12,12
 3566 09d2 54E60054 		e_stw %r7,84(%r6)
 3567              		.loc 1 1941 0
 3568 09d6 CA71     		se_lwz %r7,40(%r1)
 3569 09d8 C167     		se_lwz %r6,4(%r7)
 3570 09da CA71     		se_lwz %r7,40(%r1)
 3571 09dc C077     		se_lwz %r7,0(%r7)
 3572 09de 30E70012 		e_lbz %r7,18(%r7)
 3573 09e2 00C7     		se_extzb %r7
 3574 09e4 2E17     		se_andi %r7,1
 3575 09e6 74E5063F 		e_rlwinm %r5,%r7,0,0xff
 3576 09ea 50E60058 		e_lwz %r7,88(%r6)
 3577 09ee 74A79B18 		e_rlwimi %r7,%r5,19,12,12
 3578 09f2 54E60058 		e_stw %r7,88(%r6)
 3579              	.L134:
 3580              		.loc 1 1945 0
 3581 09f6 CA71     		se_lwz %r7,40(%r1)
 3582 09f8 C077     		se_lwz %r7,0(%r7)
 3583 09fa 30E70018 		e_lbz %r7,24(%r7)
 3584 09fe 00C7     		se_extzb %r7
 3585 0a00 7007A8FF 		e_cmpl16i %r7,255
GAS LISTING C:\Users\bayra\AppData\Local\Temp\ccA56S3H.s 			page 64


 3586 0a04 7F800020 		e_mcrf %cr7,%cr0
 3587 0a08 7CE00026 		mfcr %r7
 3588 0a0c 74E7E007 		e_rlwinm %r7,%r7,28,0xf0000000
 3589 0a10 7CE80120 		mtcrf 128,%r7
 3590 0a14 7A12014C 		e_beq %cr0,.L135
 3591              		.loc 1 1946 0
 3592 0a18 CA71     		se_lwz %r7,40(%r1)
 3593 0a1a C077     		se_lwz %r7,0(%r7)
 3594 0a1c 30E70019 		e_lbz %r7,25(%r7)
 3595 0a20 00C7     		se_extzb %r7
 3596 0a22 2207     		se_cmpli %r7,1
 3597 0a24 7F800020 		e_mcrf %cr7,%cr0
 3598 0a28 7CE00026 		mfcr %r7
 3599 0a2c 74E7E007 		e_rlwinm %r7,%r7,28,0xf0000000
 3600 0a30 7CE80120 		mtcrf 128,%r7
 3601 0a34 7A020036 		e_bne %cr0,.L136
 3602              		.loc 1 1947 0
 3603 0a38 CA71     		se_lwz %r7,40(%r1)
 3604 0a3a C167     		se_lwz %r6,4(%r7)
 3605 0a3c 50E60054 		e_lwz %r7,84(%r6)
 3606 0a40 4815     		se_li %r5,1
 3607 0a42 74A707FE 		e_rlwimi %r7,%r5,0,31,31
 3608 0a46 54E60054 		e_stw %r7,84(%r6)
 3609              		.loc 1 1948 0
 3610 0a4a CA71     		se_lwz %r7,40(%r1)
 3611 0a4c C167     		se_lwz %r6,4(%r7)
 3612 0a4e CA71     		se_lwz %r7,40(%r1)
 3613 0a50 C077     		se_lwz %r7,0(%r7)
 3614 0a52 30E70018 		e_lbz %r7,24(%r7)
 3615 0a56 00C7     		se_extzb %r7
 3616 0a58 2E17     		se_andi %r7,1
 3617 0a5a 74E5063F 		e_rlwinm %r5,%r7,0,0xff
 3618 0a5e 50E60058 		e_lwz %r7,88(%r6)
 3619 0a62 74A707FE 		e_rlwimi %r7,%r5,0,31,31
 3620 0a66 54E60058 		e_stw %r7,88(%r6)
 3621              	.L136:
 3622              		.loc 1 1950 0
 3623 0a6a CA71     		se_lwz %r7,40(%r1)
 3624 0a6c C077     		se_lwz %r7,0(%r7)
 3625 0a6e 30E70020 		e_lbz %r7,32(%r7)
 3626 0a72 00C7     		se_extzb %r7
 3627 0a74 2A07     		se_cmpi %r7,0
 3628 0a76 7F800020 		e_mcrf %cr7,%cr0
 3629 0a7a 7CE00026 		mfcr %r7
 3630 0a7e 74E7E007 		e_rlwinm %r7,%r7,28,0xf0000000
 3631 0a82 7CE80120 		mtcrf 128,%r7
 3632 0a86 7A120036 		e_beq %cr0,.L137
 3633              		.loc 1 1951 0
 3634 0a8a CA71     		se_lwz %r7,40(%r1)
 3635 0a8c C167     		se_lwz %r6,4(%r7)
 3636 0a8e 50E60054 		e_lwz %r7,84(%r6)
 3637 0a92 4815     		se_li %r5,1
 3638 0a94 74A70FBC 		e_rlwimi %r7,%r5,1,30,30
 3639 0a98 54E60054 		e_stw %r7,84(%r6)
 3640              		.loc 1 1952 0
 3641 0a9c CA71     		se_lwz %r7,40(%r1)
 3642 0a9e C167     		se_lwz %r6,4(%r7)
GAS LISTING C:\Users\bayra\AppData\Local\Temp\ccA56S3H.s 			page 65


 3643 0aa0 CA71     		se_lwz %r7,40(%r1)
 3644 0aa2 C077     		se_lwz %r7,0(%r7)
 3645 0aa4 30E70018 		e_lbz %r7,24(%r7)
 3646 0aa8 00C7     		se_extzb %r7
 3647 0aaa 2E17     		se_andi %r7,1
 3648 0aac 74E5063F 		e_rlwinm %r5,%r7,0,0xff
 3649 0ab0 50E60058 		e_lwz %r7,88(%r6)
 3650 0ab4 74A70FBC 		e_rlwimi %r7,%r5,1,30,30
 3651 0ab8 54E60058 		e_stw %r7,88(%r6)
 3652              	.L137:
 3653              		.loc 1 1954 0
 3654 0abc CA71     		se_lwz %r7,40(%r1)
 3655 0abe C077     		se_lwz %r7,0(%r7)
 3656 0ac0 30E70028 		e_lbz %r7,40(%r7)
 3657 0ac4 00C7     		se_extzb %r7
 3658 0ac6 2207     		se_cmpli %r7,1
 3659 0ac8 7F800020 		e_mcrf %cr7,%cr0
 3660 0acc 7CE00026 		mfcr %r7
 3661 0ad0 74E7E007 		e_rlwinm %r7,%r7,28,0xf0000000
 3662 0ad4 7CE80120 		mtcrf 128,%r7
 3663 0ad8 7A020036 		e_bne %cr0,.L138
 3664              		.loc 1 1955 0
 3665 0adc CA71     		se_lwz %r7,40(%r1)
 3666 0ade C167     		se_lwz %r6,4(%r7)
 3667 0ae0 50E60054 		e_lwz %r7,84(%r6)
 3668 0ae4 4815     		se_li %r5,1
 3669 0ae6 74A7177A 		e_rlwimi %r7,%r5,2,29,29
 3670 0aea 54E60054 		e_stw %r7,84(%r6)
 3671              		.loc 1 1956 0
 3672 0aee CA71     		se_lwz %r7,40(%r1)
 3673 0af0 C167     		se_lwz %r6,4(%r7)
 3674 0af2 CA71     		se_lwz %r7,40(%r1)
 3675 0af4 C077     		se_lwz %r7,0(%r7)
 3676 0af6 30E70018 		e_lbz %r7,24(%r7)
 3677 0afa 00C7     		se_extzb %r7
 3678 0afc 2E17     		se_andi %r7,1
 3679 0afe 74E5063F 		e_rlwinm %r5,%r7,0,0xff
 3680 0b02 50E60058 		e_lwz %r7,88(%r6)
 3681 0b06 74A7177A 		e_rlwimi %r7,%r5,2,29,29
 3682 0b0a 54E60058 		e_stw %r7,88(%r6)
 3683              	.L138:
 3684              		.loc 1 1958 0
 3685 0b0e CA71     		se_lwz %r7,40(%r1)
 3686 0b10 C077     		se_lwz %r7,0(%r7)
 3687 0b12 30E70030 		e_lbz %r7,48(%r7)
 3688 0b16 00C7     		se_extzb %r7
 3689 0b18 2207     		se_cmpli %r7,1
 3690 0b1a 7F800020 		e_mcrf %cr7,%cr0
 3691 0b1e 7CE00026 		mfcr %r7
 3692 0b22 74E7E007 		e_rlwinm %r7,%r7,28,0xf0000000
 3693 0b26 7CE80120 		mtcrf 128,%r7
 3694 0b2a 7A020036 		e_bne %cr0,.L135
 3695              		.loc 1 1959 0
 3696 0b2e CA71     		se_lwz %r7,40(%r1)
 3697 0b30 C167     		se_lwz %r6,4(%r7)
 3698 0b32 50E60054 		e_lwz %r7,84(%r6)
 3699 0b36 4815     		se_li %r5,1
GAS LISTING C:\Users\bayra\AppData\Local\Temp\ccA56S3H.s 			page 66


 3700 0b38 74A71F38 		e_rlwimi %r7,%r5,3,28,28
 3701 0b3c 54E60054 		e_stw %r7,84(%r6)
 3702              		.loc 1 1960 0
 3703 0b40 CA71     		se_lwz %r7,40(%r1)
 3704 0b42 C167     		se_lwz %r6,4(%r7)
 3705 0b44 CA71     		se_lwz %r7,40(%r1)
 3706 0b46 C077     		se_lwz %r7,0(%r7)
 3707 0b48 30E70018 		e_lbz %r7,24(%r7)
 3708 0b4c 00C7     		se_extzb %r7
 3709 0b4e 2E17     		se_andi %r7,1
 3710 0b50 74E5063F 		e_rlwinm %r5,%r7,0,0xff
 3711 0b54 50E60058 		e_lwz %r7,88(%r6)
 3712 0b58 74A71F38 		e_rlwimi %r7,%r5,3,28,28
 3713 0b5c 54E60058 		e_stw %r7,88(%r6)
 3714              	.L135:
 3715              		.loc 1 1965 0
 3716 0b60 CA71     		se_lwz %r7,40(%r1)
 3717 0b62 C077     		se_lwz %r7,0(%r7)
 3718 0b64 30E70038 		e_lbz %r7,56(%r7)
 3719 0b68 00C7     		se_extzb %r7
 3720 0b6a 7007A8FF 		e_cmpl16i %r7,255
 3721 0b6e 7F800020 		e_mcrf %cr7,%cr0
 3722 0b72 7CE00026 		mfcr %r7
 3723 0b76 74E7E007 		e_rlwinm %r7,%r7,28,0xf0000000
 3724 0b7a 7CE80120 		mtcrf 128,%r7
 3725 0b7e 7A12014C 		e_beq %cr0,.L139
 3726              		.loc 1 1966 0
 3727 0b82 CA71     		se_lwz %r7,40(%r1)
 3728 0b84 C077     		se_lwz %r7,0(%r7)
 3729 0b86 30E70039 		e_lbz %r7,57(%r7)
 3730 0b8a 00C7     		se_extzb %r7
 3731 0b8c 2207     		se_cmpli %r7,1
 3732 0b8e 7F800020 		e_mcrf %cr7,%cr0
 3733 0b92 7CE00026 		mfcr %r7
 3734 0b96 74E7E007 		e_rlwinm %r7,%r7,28,0xf0000000
 3735 0b9a 7CE80120 		mtcrf 128,%r7
 3736 0b9e 7A020036 		e_bne %cr0,.L140
 3737              		.loc 1 1967 0
 3738 0ba2 CA71     		se_lwz %r7,40(%r1)
 3739 0ba4 C167     		se_lwz %r6,4(%r7)
 3740 0ba6 50E60054 		e_lwz %r7,84(%r6)
 3741 0baa 4815     		se_li %r5,1
 3742 0bac 74A726F6 		e_rlwimi %r7,%r5,4,27,27
 3743 0bb0 54E60054 		e_stw %r7,84(%r6)
 3744              		.loc 1 1968 0
 3745 0bb4 CA71     		se_lwz %r7,40(%r1)
 3746 0bb6 C167     		se_lwz %r6,4(%r7)
 3747 0bb8 CA71     		se_lwz %r7,40(%r1)
 3748 0bba C077     		se_lwz %r7,0(%r7)
 3749 0bbc 30E70038 		e_lbz %r7,56(%r7)
 3750 0bc0 00C7     		se_extzb %r7
 3751 0bc2 2E17     		se_andi %r7,1
 3752 0bc4 74E5063F 		e_rlwinm %r5,%r7,0,0xff
 3753 0bc8 50E60058 		e_lwz %r7,88(%r6)
 3754 0bcc 74A726F6 		e_rlwimi %r7,%r5,4,27,27
 3755 0bd0 54E60058 		e_stw %r7,88(%r6)
 3756              	.L140:
GAS LISTING C:\Users\bayra\AppData\Local\Temp\ccA56S3H.s 			page 67


 3757              		.loc 1 1970 0
 3758 0bd4 CA71     		se_lwz %r7,40(%r1)
 3759 0bd6 C077     		se_lwz %r7,0(%r7)
 3760 0bd8 30E70040 		e_lbz %r7,64(%r7)
 3761 0bdc 00C7     		se_extzb %r7
 3762 0bde 2A07     		se_cmpi %r7,0
 3763 0be0 7F800020 		e_mcrf %cr7,%cr0
 3764 0be4 7CE00026 		mfcr %r7
 3765 0be8 74E7E007 		e_rlwinm %r7,%r7,28,0xf0000000
 3766 0bec 7CE80120 		mtcrf 128,%r7
 3767 0bf0 7A120036 		e_beq %cr0,.L141
 3768              		.loc 1 1971 0
 3769 0bf4 CA71     		se_lwz %r7,40(%r1)
 3770 0bf6 C167     		se_lwz %r6,4(%r7)
 3771 0bf8 50E60054 		e_lwz %r7,84(%r6)
 3772 0bfc 4815     		se_li %r5,1
 3773 0bfe 74A72EB4 		e_rlwimi %r7,%r5,5,26,26
 3774 0c02 54E60054 		e_stw %r7,84(%r6)
 3775              		.loc 1 1972 0
 3776 0c06 CA71     		se_lwz %r7,40(%r1)
 3777 0c08 C167     		se_lwz %r6,4(%r7)
 3778 0c0a CA71     		se_lwz %r7,40(%r1)
 3779 0c0c C077     		se_lwz %r7,0(%r7)
 3780 0c0e 30E70038 		e_lbz %r7,56(%r7)
 3781 0c12 00C7     		se_extzb %r7
 3782 0c14 2E17     		se_andi %r7,1
 3783 0c16 74E5063F 		e_rlwinm %r5,%r7,0,0xff
 3784 0c1a 50E60058 		e_lwz %r7,88(%r6)
 3785 0c1e 74A72EB4 		e_rlwimi %r7,%r5,5,26,26
 3786 0c22 54E60058 		e_stw %r7,88(%r6)
 3787              	.L141:
 3788              		.loc 1 1974 0
 3789 0c26 CA71     		se_lwz %r7,40(%r1)
 3790 0c28 C077     		se_lwz %r7,0(%r7)
 3791 0c2a 30E70048 		e_lbz %r7,72(%r7)
 3792 0c2e 00C7     		se_extzb %r7
 3793 0c30 2207     		se_cmpli %r7,1
 3794 0c32 7F800020 		e_mcrf %cr7,%cr0
 3795 0c36 7CE00026 		mfcr %r7
 3796 0c3a 74E7E007 		e_rlwinm %r7,%r7,28,0xf0000000
 3797 0c3e 7CE80120 		mtcrf 128,%r7
 3798 0c42 7A020036 		e_bne %cr0,.L142
 3799              		.loc 1 1975 0
 3800 0c46 CA71     		se_lwz %r7,40(%r1)
 3801 0c48 C167     		se_lwz %r6,4(%r7)
 3802 0c4a 50E60054 		e_lwz %r7,84(%r6)
 3803 0c4e 4815     		se_li %r5,1
 3804 0c50 74A73672 		e_rlwimi %r7,%r5,6,25,25
 3805 0c54 54E60054 		e_stw %r7,84(%r6)
 3806              		.loc 1 1976 0
 3807 0c58 CA71     		se_lwz %r7,40(%r1)
 3808 0c5a C167     		se_lwz %r6,4(%r7)
 3809 0c5c CA71     		se_lwz %r7,40(%r1)
 3810 0c5e C077     		se_lwz %r7,0(%r7)
 3811 0c60 30E70038 		e_lbz %r7,56(%r7)
 3812 0c64 00C7     		se_extzb %r7
 3813 0c66 2E17     		se_andi %r7,1
GAS LISTING C:\Users\bayra\AppData\Local\Temp\ccA56S3H.s 			page 68


 3814 0c68 74E5063F 		e_rlwinm %r5,%r7,0,0xff
 3815 0c6c 50E60058 		e_lwz %r7,88(%r6)
 3816 0c70 74A73672 		e_rlwimi %r7,%r5,6,25,25
 3817 0c74 54E60058 		e_stw %r7,88(%r6)
 3818              	.L142:
 3819              		.loc 1 1978 0
 3820 0c78 CA71     		se_lwz %r7,40(%r1)
 3821 0c7a C077     		se_lwz %r7,0(%r7)
 3822 0c7c 30E70050 		e_lbz %r7,80(%r7)
 3823 0c80 00C7     		se_extzb %r7
 3824 0c82 2207     		se_cmpli %r7,1
 3825 0c84 7F800020 		e_mcrf %cr7,%cr0
 3826 0c88 7CE00026 		mfcr %r7
 3827 0c8c 74E7E007 		e_rlwinm %r7,%r7,28,0xf0000000
 3828 0c90 7CE80120 		mtcrf 128,%r7
 3829 0c94 7A020036 		e_bne %cr0,.L139
 3830              		.loc 1 1979 0
 3831 0c98 CA71     		se_lwz %r7,40(%r1)
 3832 0c9a C167     		se_lwz %r6,4(%r7)
 3833 0c9c 50E60054 		e_lwz %r7,84(%r6)
 3834 0ca0 4815     		se_li %r5,1
 3835 0ca2 74A73E30 		e_rlwimi %r7,%r5,7,24,24
 3836 0ca6 54E60054 		e_stw %r7,84(%r6)
 3837              		.loc 1 1980 0
 3838 0caa CA71     		se_lwz %r7,40(%r1)
 3839 0cac C167     		se_lwz %r6,4(%r7)
 3840 0cae CA71     		se_lwz %r7,40(%r1)
 3841 0cb0 C077     		se_lwz %r7,0(%r7)
 3842 0cb2 30E70038 		e_lbz %r7,56(%r7)
 3843 0cb6 00C7     		se_extzb %r7
 3844 0cb8 2E17     		se_andi %r7,1
 3845 0cba 74E5063F 		e_rlwinm %r5,%r7,0,0xff
 3846 0cbe 50E60058 		e_lwz %r7,88(%r6)
 3847 0cc2 74A73E30 		e_rlwimi %r7,%r5,7,24,24
 3848 0cc6 54E60058 		e_stw %r7,88(%r6)
 3849              	.L139:
 3850              		.loc 1 1985 0
 3851 0cca CA71     		se_lwz %r7,40(%r1)
 3852 0ccc C177     		se_lwz %r7,4(%r7)
 3853 0cce 2C06     		se_bmaski %r6,0
 3854 0cd0 54C70098 		e_stw %r6,152(%r7)
 3855              		.loc 1 1986 0
 3856 0cd4 CA71     		se_lwz %r7,40(%r1)
 3857 0cd6 C177     		se_lwz %r7,4(%r7)
 3858 0cd8 2C06     		se_bmaski %r6,0
 3859 0cda 54C7009C 		e_stw %r6,156(%r7)
 3860              		.loc 1 1988 0
 3861 0cde CA71     		se_lwz %r7,40(%r1)
 3862 0ce0 C167     		se_lwz %r6,4(%r7)
 3863 0ce2 50E60054 		e_lwz %r7,84(%r6)
 3864 0ce6 4815     		se_li %r5,1
 3865 0ce8 74A7C98C 		e_rlwimi %r7,%r5,25,6,6
 3866 0cec 54E60054 		e_stw %r7,84(%r6)
 3867              		.loc 1 1989 0
 3868 0cf0 CA71     		se_lwz %r7,40(%r1)
 3869 0cf2 C167     		se_lwz %r6,4(%r7)
 3870 0cf4 50E60058 		e_lwz %r7,88(%r6)
GAS LISTING C:\Users\bayra\AppData\Local\Temp\ccA56S3H.s 			page 69


 3871 0cf8 4805     		se_li %r5,0
 3872 0cfa 74A7C98C 		e_rlwimi %r7,%r5,25,6,6
 3873 0cfe 54E60058 		e_stw %r7,88(%r6)
 3874              		.loc 1 2014 0
 3875 0d02 CA71     		se_lwz %r7,40(%r1)
 3876 0d04 C077     		se_lwz %r7,0(%r7)
 3877 0d06 50E700D8 		e_lwz %r7,216(%r7)
 3878 0d0a 2A07     		se_cmpi %r7,0
 3879 0d0c 7F800020 		e_mcrf %cr7,%cr0
 3880 0d10 7CE00026 		mfcr %r7
 3881 0d14 74E7E007 		e_rlwinm %r7,%r7,28,0xf0000000
 3882 0d18 7CE80120 		mtcrf 128,%r7
 3883 0d1c 7A120018 		e_beq %cr0,.L143
 3884              		.loc 1 2015 0
 3885 0d20 CA71     		se_lwz %r7,40(%r1)
 3886 0d22 C177     		se_lwz %r7,4(%r7)
 3887 0d24 CA61     		se_lwz %r6,40(%r1)
 3888 0d26 C166     		se_lwz %r6,4(%r6)
 3889 0d28 50C60054 		e_lwz %r6,84(%r6)
 3890 0d2c 70C7D7F6 		e_or2is %r6,0x3ff6
 3891 0d30 54C70054 		e_stw %r6,84(%r7)
 3892              	.L143:
 3893              		.loc 1 2019 0
 3894 0d34 CA71     		se_lwz %r7,40(%r1)
 3895 0d36 C177     		se_lwz %r7,4(%r7)
 3896 0d38 4836     		se_li %r6,3
 3897 0d3a 54C7005C 		e_stw %r6,92(%r7)
 3898              		.loc 1 2022 0
 3899 0d3e CA71     		se_lwz %r7,40(%r1)
 3900 0d40 C167     		se_lwz %r6,4(%r7)
 3901 0d42 C676     		se_lwz %r7,24(%r6)
 3902 0d44 4805     		se_li %r5,0
 3903 0d46 74A7177A 		e_rlwimi %r7,%r5,2,29,29
 3904 0d4a D676     		se_stw %r7,24(%r6)
 3905              		.loc 1 2023 0
 3906 0d4c CA71     		se_lwz %r7,40(%r1)
 3907 0d4e C167     		se_lwz %r6,4(%r7)
 3908 0d50 C676     		se_lwz %r7,24(%r6)
 3909 0d52 4805     		se_li %r5,0
 3910 0d54 74A707FE 		e_rlwimi %r7,%r5,0,31,31
 3911 0d58 D676     		se_stw %r7,24(%r6)
 3912              		.loc 1 2024 0
 3913 0d5a 4400     		se_nop
 3914              	.L144:
 3915              		.loc 1 2024 0 is_stmt 0 discriminator 1
 3916 0d5c CA71     		se_lwz %r7,40(%r1)
 3917 0d5e C177     		se_lwz %r7,4(%r7)
 3918 0d60 C677     		se_lwz %r7,24(%r7)
 3919 0d62 2E17     		se_andi %r7,1
 3920 0d64 00C7     		se_extzb %r7
 3921 0d66 2207     		se_cmpli %r7,1
 3922 0d68 7F800020 		e_mcrf %cr7,%cr0
 3923 0d6c 7CE00026 		mfcr %r7
 3924 0d70 74E7E007 		e_rlwinm %r7,%r7,28,0xf0000000
 3925 0d74 7CE80120 		mtcrf 128,%r7
 3926 0d78 7A12FFE4 		e_beq %cr0,.L144
 3927              		.loc 1 2027 0 is_stmt 1
GAS LISTING C:\Users\bayra\AppData\Local\Temp\ccA56S3H.s 			page 70


 3928 0d7c CD01     		se_lwz %r0,52(%r1)
 3929 0d7e 0090     		se_mtlr %r0
 3930 0d80 18218030 		e_addi %r1,%r1,48
 3931              	.LCFI23:
 3932              		.cfi_def_cfa_offset 0
 3933 0d84 0004     		se_blr
 3934              		.cfi_endproc
 3935              	.LFE14:
 3936              		.size	can_lld_start, .-can_lld_start
 3937              		.section	.text.can_lld_stop,"axv",@progbits
 3938              		.align 1
 3939              		.p2align 4,,15
 3940              		.globl can_lld_stop
 3941              		.type	can_lld_stop, @function
 3942              	can_lld_stop:
 3943              	.LFB15:
 3944              		.loc 1 2036 0
 3945              		.cfi_startproc
 3946 0000 182106E0 		e_stwu %r1,-32(%r1)
 3947              	.LCFI24:
 3948              		.cfi_def_cfa_offset 32
 3949 0004 0080     		se_mflr %r0
 3950 0006 D901     		se_stw %r0,36(%r1)
 3951              		.cfi_offset 65, 4
 3952 0008 D631     		se_stw %r3,24(%r1)
 3953              		.loc 1 2038 0
 3954 000a 4807     		se_li %r7,0
 3955 000c D371     		se_stw %r7,12(%r1)
 3956              		.loc 1 2039 0
 3957 000e 4807     		se_li %r7,0
 3958 0010 D471     		se_stw %r7,16(%r1)
 3959              		.loc 1 2043 0
 3960 0012 C671     		se_lwz %r7,24(%r1)
 3961 0014 C167     		se_lwz %r6,4(%r7)
 3962 0016 C676     		se_lwz %r7,24(%r6)
 3963 0018 4815     		se_li %r5,1
 3964 001a 74A707FE 		e_rlwimi %r7,%r5,0,31,31
 3965 001e D676     		se_stw %r7,24(%r6)
 3966              		.loc 1 2046 0
 3967 0020 C671     		se_lwz %r7,24(%r1)
 3968 0022 C177     		se_lwz %r7,4(%r7)
 3969 0024 4806     		se_li %r6,0
 3970 0026 54C70054 		e_stw %r6,84(%r7)
 3971              		.loc 1 2047 0
 3972 002a C671     		se_lwz %r7,24(%r1)
 3973 002c C177     		se_lwz %r7,4(%r7)
 3974 002e 4806     		se_li %r6,0
 3975 0030 54C7005C 		e_stw %r6,92(%r7)
 3976              		.loc 1 2048 0
 3977 0034 C671     		se_lwz %r7,24(%r1)
 3978 0036 C177     		se_lwz %r7,4(%r7)
 3979 0038 4806     		se_li %r6,0
 3980 003a 54C70058 		e_stw %r6,88(%r7)
 3981              		.loc 1 2059 0
 3982 003e C661     		se_lwz %r6,24(%r1)
 3983 0040 70E0E000 		e_lis %r7,CAND2@ha
 3984 0044 1CE70000 		e_la %r7,CAND2@l(%r7)
GAS LISTING C:\Users\bayra\AppData\Local\Temp\ccA56S3H.s 			page 71


 3985 0048 7F863800 		cmp %cr7,%r6,%r7
 3986 004c 7CE00026 		mfcr %r7
 3987 0050 74E7E007 		e_rlwinm %r7,%r7,28,0xf0000000
 3988 0054 7CE80120 		mtcrf 128,%r7
 3989 0058 7A02001A 		e_bne %cr0,.L146
 3990              		.loc 1 2060 0
 3991 005c 70FEE7ED 		e_lis %r7,0xf7ed
 3992 0060 6517     		se_bseti %r7,17
 3993 0062 D371     		se_stw %r7,12(%r1)
 3994              		.loc 1 2061 0
 3995 0064 70E10780 		e_li %r7,3968
 3996 0068 D471     		se_stw %r7,16(%r1)
 3997              		.loc 1 2062 0
 3998 006a 4C53     		se_li %r3,69
 3999 006c 4804     		se_li %r4,0
 4000 006e 78000001 		e_bl SPCSetPeripheralClockMode
 4001              	.L146:
 4002              		.loc 1 2094 0
 4003 0072 C661     		se_lwz %r6,24(%r1)
 4004 0074 70E0E000 		e_lis %r7,CAND7@ha
 4005 0078 1CE70000 		e_la %r7,CAND7@l(%r7)
 4006 007c 7F863800 		cmp %cr7,%r6,%r7
 4007 0080 7CE00026 		mfcr %r7
 4008 0084 74E7E007 		e_rlwinm %r7,%r7,28,0xf0000000
 4009 0088 7CE80120 		mtcrf 128,%r7
 4010 008c 7A02001C 		e_bne %cr0,.L147
 4011              		.loc 1 2095 0
 4012 0090 70FFE3ED 		e_lis %r7,0xfbed
 4013 0094 6517     		se_bseti %r7,17
 4014 0096 D371     		se_stw %r7,12(%r1)
 4015              		.loc 1 2096 0
 4016 0098 70E10780 		e_li %r7,3968
 4017 009c D471     		se_stw %r7,16(%r1)
 4018              		.loc 1 2097 0
 4019 009e 706000C6 		e_li %r3,198
 4020 00a2 4804     		se_li %r4,0
 4021 00a4 78000001 		e_bl SPCSetPeripheralClockMode
 4022              	.L147:
 4023              		.loc 1 2193 0
 4024 00a8 4807     		se_li %r7,0
 4025 00aa D271     		se_stw %r7,8(%r1)
 4026 00ac 7800001A 		e_b .L148
 4027              	.L149:
 4028              		.loc 1 2194 0 discriminator 3
 4029 00b0 C361     		se_lwz %r6,12(%r1)
 4030 00b2 C271     		se_lwz %r7,8(%r1)
 4031 00b4 7CE63A14 		add %r7,%r6,%r7
 4032 00b8 D571     		se_stw %r7,20(%r1)
 4033              		.loc 1 2195 0 discriminator 3
 4034 00ba C571     		se_lwz %r7,20(%r1)
 4035 00bc 4806     		se_li %r6,0
 4036 00be D067     		se_stw %r6,0(%r7)
 4037              		.loc 1 2193 0 discriminator 3
 4038 00c0 C271     		se_lwz %r7,8(%r1)
 4039 00c2 2037     		se_addi %r7,4
 4040 00c4 D271     		se_stw %r7,8(%r1)
 4041              	.L148:
GAS LISTING C:\Users\bayra\AppData\Local\Temp\ccA56S3H.s 			page 72


 4042              		.loc 1 2193 0 is_stmt 0 discriminator 1
 4043 00c6 C261     		se_lwz %r6,8(%r1)
 4044 00c8 C471     		se_lwz %r7,16(%r1)
 4045 00ca 7F863840 		cmpl %cr7,%r6,%r7
 4046 00ce 7CE00026 		mfcr %r7
 4047 00d2 74E7E007 		e_rlwinm %r7,%r7,28,0xf0000000
 4048 00d6 7CE80120 		mtcrf 128,%r7
 4049 00da 7A10FFD6 		e_blt %cr0,.L149
 4050              		.loc 1 2199 0 is_stmt 1
 4051 00de C671     		se_lwz %r7,24(%r1)
 4052 00e0 4806     		se_li %r6,0
 4053 00e2 D067     		se_stw %r6,0(%r7)
 4054              		.loc 1 2200 0
 4055 00e4 C901     		se_lwz %r0,36(%r1)
 4056 00e6 0090     		se_mtlr %r0
 4057 00e8 21F1     		se_addi %r1,32
 4058              	.LCFI25:
 4059              		.cfi_def_cfa_offset 0
 4060 00ea 0004     		se_blr
 4061              		.cfi_endproc
 4062              	.LFE15:
 4063              		.size	can_lld_stop, .-can_lld_stop
 4064              		.section	.text.can_lld_transmit,"axv",@progbits
 4065              		.align 1
 4066              		.p2align 4,,15
 4067              		.globl can_lld_transmit
 4068              		.type	can_lld_transmit, @function
 4069              	can_lld_transmit:
 4070              	.LFB16:
 4071              		.loc 1 2213 0
 4072              		.cfi_startproc
 4073 0000 182106D8 		e_stwu %r1,-40(%r1)
 4074              	.LCFI26:
 4075              		.cfi_def_cfa_offset 40
 4076 0004 0080     		se_mflr %r0
 4077 0006 DB01     		se_stw %r0,44(%r1)
 4078              		.cfi_offset 65, 4
 4079 0008 D631     		se_stw %r3,24(%r1)
 4080 000a D741     		se_stw %r4,28(%r1)
 4081 000c D851     		se_stw %r5,32(%r1)
 4082              		.loc 1 2218 0
 4083 000e 2C07     		se_bmaski %r7,0
 4084 0010 9C71     		se_stb %r7,12(%r1)
 4085              		.loc 1 2221 0
 4086 0012 C871     		se_lwz %r7,32(%r1)
 4087 0014 8877     		se_lbz %r7,8(%r7)
 4088 0016 00C7     		se_extzb %r7
 4089 0018 2277     		se_cmpli %r7,8
 4090 001a 7F800020 		e_mcrf %cr7,%cr0
 4091 001e 7CE00026 		mfcr %r7
 4092 0022 74E7E007 		e_rlwinm %r7,%r7,28,0xf0000000
 4093 0026 7CE80120 		mtcrf 128,%r7
 4094 002a 7A010028 		e_ble %cr0,.L151
 4095              		.loc 1 2221 0 is_stmt 0 discriminator 1
 4096 002e C671     		se_lwz %r7,24(%r1)
 4097 0030 C077     		se_lwz %r7,0(%r7)
 4098 0032 8877     		se_lbz %r7,8(%r7)
GAS LISTING C:\Users\bayra\AppData\Local\Temp\ccA56S3H.s 			page 73


 4099 0034 00C7     		se_extzb %r7
 4100 0036 2A07     		se_cmpi %r7,0
 4101 0038 7F800020 		e_mcrf %cr7,%cr0
 4102 003c 7CE00026 		mfcr %r7
 4103 0040 74E7E007 		e_rlwinm %r7,%r7,28,0xf0000000
 4104 0044 7CE80120 		mtcrf 128,%r7
 4105 0048 7A02000A 		e_bne %cr0,.L151
 4106              		.loc 1 2222 0 is_stmt 1
 4107 004c 4837     		se_li %r7,3
 4108 004e 7800029C 		e_b .L152
 4109              	.L151:
 4110              		.loc 1 2226 0
 4111 0052 C871     		se_lwz %r7,32(%r1)
 4112 0054 8877     		se_lbz %r7,8(%r7)
 4113 0056 00C7     		se_extzb %r7
 4114 0058 0173     		se_mr %r3,%r7
 4115 005a 78000001 		e_bl can_lld_getDLC
 4116 005e 0137     		se_mr %r7,%r3
 4117 0060 2A07     		se_cmpi %r7,0
 4118 0062 7F800020 		e_mcrf %cr7,%cr0
 4119 0066 7CE00026 		mfcr %r7
 4120 006a 74E7E007 		e_rlwinm %r7,%r7,28,0xf0000000
 4121 006e 7CE80120 		mtcrf 128,%r7
 4122 0072 7A02000A 		e_bne %cr0,.L153
 4123              		.loc 1 2227 0
 4124 0076 4837     		se_li %r7,3
 4125 0078 78000272 		e_b .L152
 4126              	.L153:
 4127              		.loc 1 2231 0
 4128 007c C771     		se_lwz %r7,28(%r1)
 4129 007e 700798FB 		e_cmp16i %r7,251
 4130 0082 7F800020 		e_mcrf %cr7,%cr0
 4131 0086 7CE00026 		mfcr %r7
 4132 008a 74E7E007 		e_rlwinm %r7,%r7,28,0xf0000000
 4133 008e 7CE80120 		mtcrf 128,%r7
 4134 0092 7A020086 		e_bne %cr0,.L154
 4135              		.loc 1 2232 0
 4136 0096 C671     		se_lwz %r7,24(%r1)
 4137 0098 C077     		se_lwz %r7,0(%r7)
 4138 009a 30E700D5 		e_lbz %r7,213(%r7)
 4139 009e 00C7     		se_extzb %r7
 4140 00a0 7007A8FB 		e_cmpl16i %r7,251
 4141 00a4 7F800020 		e_mcrf %cr7,%cr0
 4142 00a8 7CE00026 		mfcr %r7
 4143 00ac 74E7E007 		e_rlwinm %r7,%r7,28,0xf0000000
 4144 00b0 7CE80120 		mtcrf 128,%r7
 4145 00b4 7A12002C 		e_beq %cr0,.L155
 4146              		.loc 1 2232 0 is_stmt 0 discriminator 1
 4147 00b8 C671     		se_lwz %r7,24(%r1)
 4148 00ba C077     		se_lwz %r7,0(%r7)
 4149 00bc 30E700D5 		e_lbz %r7,213(%r7)
 4150 00c0 00C7     		se_extzb %r7
 4151 00c2 7007A8FD 		e_cmpl16i %r7,253
 4152 00c6 7F800020 		e_mcrf %cr7,%cr0
 4153 00ca 7CE00026 		mfcr %r7
 4154 00ce 74E7E007 		e_rlwinm %r7,%r7,28,0xf0000000
 4155 00d2 7CE80120 		mtcrf 128,%r7
GAS LISTING C:\Users\bayra\AppData\Local\Temp\ccA56S3H.s 			page 74


 4156 00d6 7A12000A 		e_beq %cr0,.L155
 4157              		.loc 1 2233 0 is_stmt 1
 4158 00da 4827     		se_li %r7,2
 4159 00dc 7800020E 		e_b .L152
 4160              	.L155:
 4161              		.loc 1 2239 0
 4162 00e0 C671     		se_lwz %r7,24(%r1)
 4163 00e2 C177     		se_lwz %r7,4(%r7)
 4164 00e4 50E700C4 		e_lwz %r7,196(%r7)
 4165 00e8 6957     		se_srwi %r7,21
 4166 00ea 2E17     		se_andi %r7,1
 4167 00ec 00C7     		se_extzb %r7
 4168 00ee 2A07     		se_cmpi %r7,0
 4169 00f0 7F800020 		e_mcrf %cr7,%cr0
 4170 00f4 7CE00026 		mfcr %r7
 4171 00f8 74E7E007 		e_rlwinm %r7,%r7,28,0xf0000000
 4172 00fc 7CE80120 		mtcrf 128,%r7
 4173 0100 7A0201A6 		e_bne %cr0,.L157
 4174              		.loc 1 2240 0
 4175 0104 C671     		se_lwz %r7,24(%r1)
 4176 0106 C177     		se_lwz %r7,4(%r7)
 4177 0108 50E700C4 		e_lwz %r7,196(%r7)
 4178 010c 6907     		se_srwi %r7,16
 4179 010e 2FF7     		se_andi %r7,31
 4180 0110 00C7     		se_extzb %r7
 4181 0112 9C71     		se_stb %r7,12(%r1)
 4182 0114 78000192 		e_b .L157
 4183              	.L154:
 4184              		.loc 1 2245 0
 4185 0118 C771     		se_lwz %r7,28(%r1)
 4186 011a 700798FC 		e_cmp16i %r7,252
 4187 011e 7F800020 		e_mcrf %cr7,%cr0
 4188 0122 7CE00026 		mfcr %r7
 4189 0126 74E7E007 		e_rlwinm %r7,%r7,28,0xf0000000
 4190 012a 7CE80120 		mtcrf 128,%r7
 4191 012e 7A020086 		e_bne %cr0,.L158
 4192              		.loc 1 2246 0
 4193 0132 C671     		se_lwz %r7,24(%r1)
 4194 0134 C077     		se_lwz %r7,0(%r7)
 4195 0136 30E700D5 		e_lbz %r7,213(%r7)
 4196 013a 00C7     		se_extzb %r7
 4197 013c 7007A8FC 		e_cmpl16i %r7,252
 4198 0140 7F800020 		e_mcrf %cr7,%cr0
 4199 0144 7CE00026 		mfcr %r7
 4200 0148 74E7E007 		e_rlwinm %r7,%r7,28,0xf0000000
 4201 014c 7CE80120 		mtcrf 128,%r7
 4202 0150 7A12002C 		e_beq %cr0,.L159
 4203              		.loc 1 2246 0 is_stmt 0 discriminator 1
 4204 0154 C671     		se_lwz %r7,24(%r1)
 4205 0156 C077     		se_lwz %r7,0(%r7)
 4206 0158 30E700D5 		e_lbz %r7,213(%r7)
 4207 015c 00C7     		se_extzb %r7
 4208 015e 7007A8FE 		e_cmpl16i %r7,254
 4209 0162 7F800020 		e_mcrf %cr7,%cr0
 4210 0166 7CE00026 		mfcr %r7
 4211 016a 74E7E007 		e_rlwinm %r7,%r7,28,0xf0000000
 4212 016e 7CE80120 		mtcrf 128,%r7
GAS LISTING C:\Users\bayra\AppData\Local\Temp\ccA56S3H.s 			page 75


 4213 0172 7A12000A 		e_beq %cr0,.L159
 4214              		.loc 1 2247 0 is_stmt 1
 4215 0176 4827     		se_li %r7,2
 4216 0178 78000172 		e_b .L152
 4217              	.L159:
 4218              		.loc 1 2253 0
 4219 017c C671     		se_lwz %r7,24(%r1)
 4220 017e C177     		se_lwz %r7,4(%r7)
 4221 0180 50E700C4 		e_lwz %r7,196(%r7)
 4222 0184 6957     		se_srwi %r7,21
 4223 0186 2E17     		se_andi %r7,1
 4224 0188 00C7     		se_extzb %r7
 4225 018a 2A07     		se_cmpi %r7,0
 4226 018c 7F800020 		e_mcrf %cr7,%cr0
 4227 0190 7CE00026 		mfcr %r7
 4228 0194 74E7E007 		e_rlwinm %r7,%r7,28,0xf0000000
 4229 0198 7CE80120 		mtcrf 128,%r7
 4230 019c 7A02010A 		e_bne %cr0,.L157
 4231              		.loc 1 2254 0
 4232 01a0 C671     		se_lwz %r7,24(%r1)
 4233 01a2 C177     		se_lwz %r7,4(%r7)
 4234 01a4 50E700C4 		e_lwz %r7,196(%r7)
 4235 01a8 6907     		se_srwi %r7,16
 4236 01aa 2FF7     		se_andi %r7,31
 4237 01ac 00C7     		se_extzb %r7
 4238 01ae 9C71     		se_stb %r7,12(%r1)
 4239 01b0 780000F6 		e_b .L157
 4240              	.L158:
 4241              		.loc 1 2260 0
 4242 01b4 C671     		se_lwz %r7,24(%r1)
 4243 01b6 C077     		se_lwz %r7,0(%r7)
 4244 01b8 30E700D5 		e_lbz %r7,213(%r7)
 4245 01bc 00C7     		se_extzb %r7
 4246 01be 7007A8FB 		e_cmpl16i %r7,251
 4247 01c2 7F800020 		e_mcrf %cr7,%cr0
 4248 01c6 7CE00026 		mfcr %r7
 4249 01ca 74E7E007 		e_rlwinm %r7,%r7,28,0xf0000000
 4250 01ce 7CE80120 		mtcrf 128,%r7
 4251 01d2 7A120026 		e_beq %cr0,.L161
 4252              		.loc 1 2260 0 is_stmt 0 discriminator 1
 4253 01d6 C671     		se_lwz %r7,24(%r1)
 4254 01d8 C077     		se_lwz %r7,0(%r7)
 4255 01da 30E700D5 		e_lbz %r7,213(%r7)
 4256 01de 00C7     		se_extzb %r7
 4257 01e0 7007A8FC 		e_cmpl16i %r7,252
 4258 01e4 7F800020 		e_mcrf %cr7,%cr0
 4259 01e8 7CE00026 		mfcr %r7
 4260 01ec 74E7E007 		e_rlwinm %r7,%r7,28,0xf0000000
 4261 01f0 7CE80120 		mtcrf 128,%r7
 4262 01f4 7A02000A 		e_bne %cr0,.L162
 4263              	.L161:
 4264              		.loc 1 2261 0 is_stmt 1
 4265 01f8 4827     		se_li %r7,2
 4266 01fa 780000F0 		e_b .L152
 4267              	.L162:
 4268              		.loc 1 2264 0
 4269 01fe C771     		se_lwz %r7,28(%r1)
GAS LISTING C:\Users\bayra\AppData\Local\Temp\ccA56S3H.s 			page 76


 4270 0200 700798FF 		e_cmp16i %r7,255
 4271 0204 7F800020 		e_mcrf %cr7,%cr0
 4272 0208 7CE00026 		mfcr %r7
 4273 020c 74E7E007 		e_rlwinm %r7,%r7,28,0xf0000000
 4274 0210 7CE80120 		mtcrf 128,%r7
 4275 0214 7A020068 		e_bne %cr0,.L163
 4276              		.loc 1 2265 0
 4277 0218 4807     		se_li %r7,0
 4278 021a D271     		se_stw %r7,8(%r1)
 4279 021c 7800003A 		e_b .L164
 4280              	.L167:
 4281              		.loc 1 2266 0
 4282 0220 C671     		se_lwz %r7,24(%r1)
 4283 0222 C177     		se_lwz %r7,4(%r7)
 4284 0224 50C700CC 		e_lwz %r6,204(%r7)
 4285 0228 C271     		se_lwz %r7,8(%r1)
 4286 022a 7CC73C30 		srw %r7,%r6,%r7
 4287 022e 2E17     		se_andi %r7,1
 4288 0230 2A07     		se_cmpi %r7,0
 4289 0232 7F800020 		e_mcrf %cr7,%cr0
 4290 0236 7CE00026 		mfcr %r7
 4291 023a 74E7E007 		e_rlwinm %r7,%r7,28,0xf0000000
 4292 023e 7CE80120 		mtcrf 128,%r7
 4293 0242 7A02000E 		e_bne %cr0,.L165
 4294              		.loc 1 2267 0
 4295 0246 C271     		se_lwz %r7,8(%r1)
 4296 0248 9C71     		se_stb %r7,12(%r1)
 4297              		.loc 1 2268 0
 4298 024a 4400     		se_nop
 4299 024c 7800005A 		e_b .L157
 4300              	.L165:
 4301              		.loc 1 2265 0 discriminator 2
 4302 0250 C271     		se_lwz %r7,8(%r1)
 4303 0252 2007     		se_addi %r7,1
 4304 0254 D271     		se_stw %r7,8(%r1)
 4305              	.L164:
 4306              		.loc 1 2265 0 is_stmt 0 discriminator 1
 4307 0256 C671     		se_lwz %r7,24(%r1)
 4308 0258 C077     		se_lwz %r7,0(%r7)
 4309 025a 30E700D6 		e_lbz %r7,214(%r7)
 4310 025e 00C7     		se_extzb %r7
 4311 0260 0176     		se_mr %r6,%r7
 4312 0262 C271     		se_lwz %r7,8(%r1)
 4313 0264 7F863840 		cmpl %cr7,%r6,%r7
 4314 0268 7CE00026 		mfcr %r7
 4315 026c 74E7E007 		e_rlwinm %r7,%r7,28,0xf0000000
 4316 0270 7CE80120 		mtcrf 128,%r7
 4317 0274 7A11FFAC 		e_bgt %cr0,.L167
 4318 0278 7800002E 		e_b .L157
 4319              	.L163:
 4320              		.loc 1 2274 0 is_stmt 1
 4321 027c C671     		se_lwz %r7,24(%r1)
 4322 027e C177     		se_lwz %r7,4(%r7)
 4323 0280 50C700CC 		e_lwz %r6,204(%r7)
 4324 0284 C771     		se_lwz %r7,28(%r1)
 4325 0286 7CC73C30 		srw %r7,%r6,%r7
 4326 028a 2E17     		se_andi %r7,1
GAS LISTING C:\Users\bayra\AppData\Local\Temp\ccA56S3H.s 			page 77


 4327 028c 2A07     		se_cmpi %r7,0
 4328 028e 7F800020 		e_mcrf %cr7,%cr0
 4329 0292 7CE00026 		mfcr %r7
 4330 0296 74E7E007 		e_rlwinm %r7,%r7,28,0xf0000000
 4331 029a 7CE80120 		mtcrf 128,%r7
 4332 029e 7A020008 		e_bne %cr0,.L157
 4333              		.loc 1 2275 0
 4334 02a2 C771     		se_lwz %r7,28(%r1)
 4335 02a4 9C71     		se_stb %r7,12(%r1)
 4336              	.L157:
 4337              		.loc 1 2281 0
 4338 02a6 8C71     		se_lbz %r7,12(%r1)
 4339 02a8 00C7     		se_extzb %r7
 4340 02aa 700798FF 		e_cmp16i %r7,255
 4341 02ae 7F800020 		e_mcrf %cr7,%cr0
 4342 02b2 7CE00026 		mfcr %r7
 4343 02b6 74E7E007 		e_rlwinm %r7,%r7,28,0xf0000000
 4344 02ba 7CE80120 		mtcrf 128,%r7
 4345 02be 7A02000A 		e_bne %cr0,.L168
 4346              		.loc 1 2282 0
 4347 02c2 4817     		se_li %r7,1
 4348 02c4 78000026 		e_b .L152
 4349              	.L168:
 4350              		.loc 1 2287 0
 4351 02c8 8C71     		se_lbz %r7,12(%r1)
 4352 02ca 00C7     		se_extzb %r7
 4353 02cc C631     		se_lwz %r3,24(%r1)
 4354 02ce 0174     		se_mr %r4,%r7
 4355 02d0 C851     		se_lwz %r5,32(%r1)
 4356 02d2 78000001 		e_bl can_lld_writeTxBuffer
 4357              		.loc 1 2290 0
 4358 02d6 C671     		se_lwz %r7,24(%r1)
 4359 02d8 C177     		se_lwz %r7,4(%r7)
 4360 02da 8C61     		se_lbz %r6,12(%r1)
 4361 02dc 00C6     		se_extzb %r6
 4362 02de 4815     		se_li %r5,1
 4363 02e0 7CA63030 		slw %r6,%r5,%r6
 4364 02e4 54C700D0 		e_stw %r6,208(%r7)
 4365              		.loc 1 2294 0
 4366 02e8 4807     		se_li %r7,0
 4367              	.L152:
 4368              		.loc 1 2295 0
 4369 02ea 0173     		se_mr %r3,%r7
 4370 02ec CB01     		se_lwz %r0,44(%r1)
 4371 02ee 0090     		se_mtlr %r0
 4372 02f0 18218028 		e_addi %r1,%r1,40
 4373              	.LCFI27:
 4374              		.cfi_def_cfa_offset 0
 4375 02f4 0004     		se_blr
 4376              		.cfi_endproc
 4377              	.LFE16:
 4378              		.size	can_lld_transmit, .-can_lld_transmit
 4379              		.section	.text.can_lld_receive,"axv",@progbits
 4380              		.align 1
 4381              		.p2align 4,,15
 4382              		.globl can_lld_receive
 4383              		.type	can_lld_receive, @function
GAS LISTING C:\Users\bayra\AppData\Local\Temp\ccA56S3H.s 			page 78


 4384              	can_lld_receive:
 4385              	.LFB17:
 4386              		.loc 1 2308 0
 4387              		.cfi_startproc
 4388 0000 182106D8 		e_stwu %r1,-40(%r1)
 4389              	.LCFI28:
 4390              		.cfi_def_cfa_offset 40
 4391 0004 0080     		se_mflr %r0
 4392 0006 DB01     		se_stw %r0,44(%r1)
 4393              		.cfi_offset 65, 4
 4394 0008 D631     		se_stw %r3,24(%r1)
 4395 000a D741     		se_stw %r4,28(%r1)
 4396 000c D851     		se_stw %r5,32(%r1)
 4397              		.loc 1 2313 0
 4398 000e 2C07     		se_bmaski %r7,0
 4399 0010 9C71     		se_stb %r7,12(%r1)
 4400              		.loc 1 2315 0
 4401 0012 C771     		se_lwz %r7,28(%r1)
 4402 0014 700798FD 		e_cmp16i %r7,253
 4403 0018 7F800020 		e_mcrf %cr7,%cr0
 4404 001c 7CE00026 		mfcr %r7
 4405 0020 74E7E007 		e_rlwinm %r7,%r7,28,0xf0000000
 4406 0024 7CE80120 		mtcrf 128,%r7
 4407 0028 7A020088 		e_bne %cr0,.L170
 4408              		.loc 1 2316 0
 4409 002c C671     		se_lwz %r7,24(%r1)
 4410 002e C177     		se_lwz %r7,4(%r7)
 4411 0030 50E70050 		e_lwz %r7,80(%r7)
 4412 0034 2E17     		se_andi %r7,1
 4413 0036 00C7     		se_extzb %r7
 4414 0038 2207     		se_cmpli %r7,1
 4415 003a 7F800020 		e_mcrf %cr7,%cr0
 4416 003e 7CE00026 		mfcr %r7
 4417 0042 74E7E007 		e_rlwinm %r7,%r7,28,0xf0000000
 4418 0046 7CE80120 		mtcrf 128,%r7
 4419 004a 7A020060 		e_bne %cr0,.L171
 4420              		.loc 1 2317 0
 4421 004e C671     		se_lwz %r7,24(%r1)
 4422 0050 C177     		se_lwz %r7,4(%r7)
 4423 0052 50E700A4 		e_lwz %r7,164(%r7)
 4424 0056 6887     		se_srwi %r7,8
 4425 0058 18E7C03F 		e_andi %r7,%r7,63
 4426 005c 00C7     		se_extzb %r7
 4427 005e 9C71     		se_stb %r7,12(%r1)
 4428              		.loc 1 2319 0
 4429 0060 8C71     		se_lbz %r7,12(%r1)
 4430 0062 00C7     		se_extzb %r7
 4431 0064 C631     		se_lwz %r3,24(%r1)
 4432 0066 708000FD 		e_li %r4,253
 4433 006a 0175     		se_mr %r5,%r7
 4434 006c C861     		se_lwz %r6,32(%r1)
 4435 006e 78000001 		e_bl can_lld_readBuffer
 4436              		.loc 1 2321 0
 4437 0072 C671     		se_lwz %r7,24(%r1)
 4438 0074 C167     		se_lwz %r6,4(%r7)
 4439 0076 C671     		se_lwz %r7,24(%r1)
 4440 0078 C177     		se_lwz %r7,4(%r7)
GAS LISTING C:\Users\bayra\AppData\Local\Temp\ccA56S3H.s 			page 79


 4441 007a 50E700A4 		e_lwz %r7,164(%r7)
 4442 007e 6887     		se_srwi %r7,8
 4443 0080 18E7C03F 		e_andi %r7,%r7,63
 4444 0084 74E5063F 		e_rlwinm %r5,%r7,0,0xff
 4445 0088 50E600A8 		e_lwz %r7,168(%r6)
 4446 008c 74A706BE 		e_rlwimi %r7,%r5,0,26,31
 4447 0090 54E600A8 		e_stw %r7,168(%r6)
 4448              		.loc 1 2323 0
 4449 0094 C671     		se_lwz %r7,24(%r1)
 4450 0096 C167     		se_lwz %r6,4(%r7)
 4451 0098 50E60050 		e_lwz %r7,80(%r6)
 4452 009c 4815     		se_li %r5,1
 4453 009e 74A707FE 		e_rlwimi %r7,%r5,0,31,31
 4454 00a2 54E60050 		e_stw %r7,80(%r6)
 4455 00a6 78000294 		e_b .L172
 4456              	.L171:
 4457              		.loc 1 2325 0
 4458 00aa 4817     		se_li %r7,1
 4459 00ac 78000290 		e_b .L173
 4460              	.L170:
 4461              		.loc 1 2330 0
 4462 00b0 C771     		se_lwz %r7,28(%r1)
 4463 00b2 700798FE 		e_cmp16i %r7,254
 4464 00b6 7F800020 		e_mcrf %cr7,%cr0
 4465 00ba 7CE00026 		mfcr %r7
 4466 00be 74E7E007 		e_rlwinm %r7,%r7,28,0xf0000000
 4467 00c2 7CE80120 		mtcrf 128,%r7
 4468 00c6 7A02008A 		e_bne %cr0,.L174
 4469              		.loc 1 2331 0
 4470 00ca C671     		se_lwz %r7,24(%r1)
 4471 00cc C177     		se_lwz %r7,4(%r7)
 4472 00ce 50E70050 		e_lwz %r7,80(%r7)
 4473 00d2 6847     		se_srwi %r7,4
 4474 00d4 2E17     		se_andi %r7,1
 4475 00d6 00C7     		se_extzb %r7
 4476 00d8 2207     		se_cmpli %r7,1
 4477 00da 7F800020 		e_mcrf %cr7,%cr0
 4478 00de 7CE00026 		mfcr %r7
 4479 00e2 74E7E007 		e_rlwinm %r7,%r7,28,0xf0000000
 4480 00e6 7CE80120 		mtcrf 128,%r7
 4481 00ea 7A020060 		e_bne %cr0,.L175
 4482              		.loc 1 2332 0
 4483 00ee C671     		se_lwz %r7,24(%r1)
 4484 00f0 C177     		se_lwz %r7,4(%r7)
 4485 00f2 50E700B4 		e_lwz %r7,180(%r7)
 4486 00f6 6887     		se_srwi %r7,8
 4487 00f8 18E7C03F 		e_andi %r7,%r7,63
 4488 00fc 00C7     		se_extzb %r7
 4489 00fe 9C71     		se_stb %r7,12(%r1)
 4490              		.loc 1 2334 0
 4491 0100 8C71     		se_lbz %r7,12(%r1)
 4492 0102 00C7     		se_extzb %r7
 4493 0104 C631     		se_lwz %r3,24(%r1)
 4494 0106 708000FE 		e_li %r4,254
 4495 010a 0175     		se_mr %r5,%r7
 4496 010c C861     		se_lwz %r6,32(%r1)
 4497 010e 78000001 		e_bl can_lld_readBuffer
GAS LISTING C:\Users\bayra\AppData\Local\Temp\ccA56S3H.s 			page 80


 4498              		.loc 1 2336 0
 4499 0112 C671     		se_lwz %r7,24(%r1)
 4500 0114 C167     		se_lwz %r6,4(%r7)
 4501 0116 C671     		se_lwz %r7,24(%r1)
 4502 0118 C177     		se_lwz %r7,4(%r7)
 4503 011a 50E700B4 		e_lwz %r7,180(%r7)
 4504 011e 6887     		se_srwi %r7,8
 4505 0120 18E7C03F 		e_andi %r7,%r7,63
 4506 0124 74E5063F 		e_rlwinm %r5,%r7,0,0xff
 4507 0128 50E600B8 		e_lwz %r7,184(%r6)
 4508 012c 74A706BE 		e_rlwimi %r7,%r5,0,26,31
 4509 0130 54E600B8 		e_stw %r7,184(%r6)
 4510              		.loc 1 2338 0
 4511 0134 C671     		se_lwz %r7,24(%r1)
 4512 0136 C167     		se_lwz %r6,4(%r7)
 4513 0138 50E60050 		e_lwz %r7,80(%r6)
 4514 013c 4815     		se_li %r5,1
 4515 013e 74A726F6 		e_rlwimi %r7,%r5,4,27,27
 4516 0142 54E60050 		e_stw %r7,80(%r6)
 4517 0146 780001F4 		e_b .L172
 4518              	.L175:
 4519              		.loc 1 2340 0
 4520 014a 4817     		se_li %r7,1
 4521 014c 780001F0 		e_b .L173
 4522              	.L174:
 4523              		.loc 1 2346 0
 4524 0150 C671     		se_lwz %r7,24(%r1)
 4525 0152 C177     		se_lwz %r7,4(%r7)
 4526 0154 50E70050 		e_lwz %r7,80(%r7)
 4527 0158 6937     		se_srwi %r7,19
 4528 015a 2E17     		se_andi %r7,1
 4529 015c 00C7     		se_extzb %r7
 4530 015e 2207     		se_cmpli %r7,1
 4531 0160 7F800020 		e_mcrf %cr7,%cr0
 4532 0164 7CE00026 		mfcr %r7
 4533 0168 74E7E007 		e_rlwinm %r7,%r7,28,0xf0000000
 4534 016c 7CE80120 		mtcrf 128,%r7
 4535 0170 7A020150 		e_bne %cr0,.L176
 4536              		.loc 1 2347 0
 4537 0174 C771     		se_lwz %r7,28(%r1)
 4538 0176 700798FF 		e_cmp16i %r7,255
 4539 017a 7F800020 		e_mcrf %cr7,%cr0
 4540 017e 7CE00026 		mfcr %r7
 4541 0182 74E7E007 		e_rlwinm %r7,%r7,28,0xf0000000
 4542 0186 7CE80120 		mtcrf 128,%r7
 4543 018a 7A0200B2 		e_bne %cr0,.L177
 4544              		.loc 1 2348 0
 4545 018e 4807     		se_li %r7,0
 4546 0190 D271     		se_stw %r7,8(%r1)
 4547 0192 78000080 		e_b .L178
 4548              	.L182:
 4549              		.loc 1 2349 0
 4550 0196 C271     		se_lwz %r7,8(%r1)
 4551 0198 23E7     		se_cmpli %r7,31
 4552 019a 7F800020 		e_mcrf %cr7,%cr0
 4553 019e 7CE00026 		mfcr %r7
 4554 01a2 74E7E007 		e_rlwinm %r7,%r7,28,0xf0000000
GAS LISTING C:\Users\bayra\AppData\Local\Temp\ccA56S3H.s 			page 81


 4555 01a6 7CE80120 		mtcrf 128,%r7
 4556 01aa 7A110032 		e_bgt %cr0,.L179
 4557              		.loc 1 2350 0
 4558 01ae C671     		se_lwz %r7,24(%r1)
 4559 01b0 C177     		se_lwz %r7,4(%r7)
 4560 01b2 50C70098 		e_lwz %r6,152(%r7)
 4561 01b6 C271     		se_lwz %r7,8(%r1)
 4562 01b8 7CC73C30 		srw %r7,%r6,%r7
 4563 01bc 2E17     		se_andi %r7,1
 4564 01be 2A07     		se_cmpi %r7,0
 4565 01c0 7F800020 		e_mcrf %cr7,%cr0
 4566 01c4 7CE00026 		mfcr %r7
 4567 01c8 74E7E007 		e_rlwinm %r7,%r7,28,0xf0000000
 4568 01cc 7CE80120 		mtcrf 128,%r7
 4569 01d0 7A12003C 		e_beq %cr0,.L180
 4570              		.loc 1 2351 0
 4571 01d4 C271     		se_lwz %r7,8(%r1)
 4572 01d6 9C71     		se_stb %r7,12(%r1)
 4573              		.loc 1 2352 0
 4574 01d8 78000060 		e_b .L181
 4575              	.L179:
 4576              		.loc 1 2355 0
 4577 01dc C671     		se_lwz %r7,24(%r1)
 4578 01de C177     		se_lwz %r7,4(%r7)
 4579 01e0 50E7009C 		e_lwz %r7,156(%r7)
 4580 01e4 C261     		se_lwz %r6,8(%r1)
 4581 01e6 18C684E0 		e_addi %r6,%r6,-32
 4582 01ea 4067     		se_srw %r7,%r6
 4583 01ec 2E17     		se_andi %r7,1
 4584 01ee 2A07     		se_cmpi %r7,0
 4585 01f0 7F800020 		e_mcrf %cr7,%cr0
 4586 01f4 7CE00026 		mfcr %r7
 4587 01f8 74E7E007 		e_rlwinm %r7,%r7,28,0xf0000000
 4588 01fc 7CE80120 		mtcrf 128,%r7
 4589 0200 7A12000C 		e_beq %cr0,.L180
 4590              		.loc 1 2356 0
 4591 0204 C271     		se_lwz %r7,8(%r1)
 4592 0206 9C71     		se_stb %r7,12(%r1)
 4593              		.loc 1 2357 0
 4594 0208 78000030 		e_b .L181
 4595              	.L180:
 4596              		.loc 1 2348 0 discriminator 2
 4597 020c C271     		se_lwz %r7,8(%r1)
 4598 020e 2007     		se_addi %r7,1
 4599 0210 D271     		se_stw %r7,8(%r1)
 4600              	.L178:
 4601              		.loc 1 2348 0 is_stmt 0 discriminator 1
 4602 0212 C671     		se_lwz %r7,24(%r1)
 4603 0214 C077     		se_lwz %r7,0(%r7)
 4604 0216 30E700D2 		e_lbz %r7,210(%r7)
 4605 021a 00C7     		se_extzb %r7
 4606 021c 0176     		se_mr %r6,%r7
 4607 021e C271     		se_lwz %r7,8(%r1)
 4608 0220 7F863840 		cmpl %cr7,%r6,%r7
 4609 0224 7CE00026 		mfcr %r7
 4610 0228 74E7E007 		e_rlwinm %r7,%r7,28,0xf0000000
 4611 022c 7CE80120 		mtcrf 128,%r7
GAS LISTING C:\Users\bayra\AppData\Local\Temp\ccA56S3H.s 			page 82


 4612 0230 7A11FF66 		e_bgt %cr0,.L182
 4613 0234 7800007A 		e_b .L183
 4614              	.L181:
 4615 0238 78000076 		e_b .L183
 4616              	.L177:
 4617              		.loc 1 2364 0 is_stmt 1
 4618 023c C771     		se_lwz %r7,28(%r1)
 4619 023e 23E7     		se_cmpli %r7,31
 4620 0240 7F800020 		e_mcrf %cr7,%cr0
 4621 0244 7CE00026 		mfcr %r7
 4622 0248 74E7E007 		e_rlwinm %r7,%r7,28,0xf0000000
 4623 024c 7CE80120 		mtcrf 128,%r7
 4624 0250 7A110032 		e_bgt %cr0,.L184
 4625              		.loc 1 2365 0
 4626 0254 C671     		se_lwz %r7,24(%r1)
 4627 0256 C177     		se_lwz %r7,4(%r7)
 4628 0258 50C70098 		e_lwz %r6,152(%r7)
 4629 025c C771     		se_lwz %r7,28(%r1)
 4630 025e 7CC73C30 		srw %r7,%r6,%r7
 4631 0262 2E17     		se_andi %r7,1
 4632 0264 2A07     		se_cmpi %r7,0
 4633 0266 7F800020 		e_mcrf %cr7,%cr0
 4634 026a 7CE00026 		mfcr %r7
 4635 026e 74E7E007 		e_rlwinm %r7,%r7,28,0xf0000000
 4636 0272 7CE80120 		mtcrf 128,%r7
 4637 0276 7A120038 		e_beq %cr0,.L183
 4638              		.loc 1 2366 0
 4639 027a C771     		se_lwz %r7,28(%r1)
 4640 027c 9C71     		se_stb %r7,12(%r1)
 4641 027e 78000030 		e_b .L183
 4642              	.L184:
 4643              		.loc 1 2369 0
 4644 0282 C671     		se_lwz %r7,24(%r1)
 4645 0284 C177     		se_lwz %r7,4(%r7)
 4646 0286 50E7009C 		e_lwz %r7,156(%r7)
 4647 028a C761     		se_lwz %r6,28(%r1)
 4648 028c 18C684E0 		e_addi %r6,%r6,-32
 4649 0290 4067     		se_srw %r7,%r6
 4650 0292 2E17     		se_andi %r7,1
 4651 0294 2A07     		se_cmpi %r7,0
 4652 0296 7F800020 		e_mcrf %cr7,%cr0
 4653 029a 7CE00026 		mfcr %r7
 4654 029e 74E7E007 		e_rlwinm %r7,%r7,28,0xf0000000
 4655 02a2 7CE80120 		mtcrf 128,%r7
 4656 02a6 7A120008 		e_beq %cr0,.L183
 4657              		.loc 1 2370 0
 4658 02aa C771     		se_lwz %r7,28(%r1)
 4659 02ac 9C71     		se_stb %r7,12(%r1)
 4660              	.L183:
 4661              		.loc 1 2375 0
 4662 02ae C671     		se_lwz %r7,24(%r1)
 4663 02b0 C167     		se_lwz %r6,4(%r7)
 4664 02b2 50E60050 		e_lwz %r7,80(%r6)
 4665 02b6 4815     		se_li %r5,1
 4666 02b8 74A79B18 		e_rlwimi %r7,%r5,19,12,12
 4667 02bc 54E60050 		e_stw %r7,80(%r6)
 4668              	.L176:
GAS LISTING C:\Users\bayra\AppData\Local\Temp\ccA56S3H.s 			page 83


 4669              		.loc 1 2379 0
 4670 02c0 8C71     		se_lbz %r7,12(%r1)
 4671 02c2 00C7     		se_extzb %r7
 4672 02c4 700798FF 		e_cmp16i %r7,255
 4673 02c8 7F800020 		e_mcrf %cr7,%cr0
 4674 02cc 7CE00026 		mfcr %r7
 4675 02d0 74E7E007 		e_rlwinm %r7,%r7,28,0xf0000000
 4676 02d4 7CE80120 		mtcrf 128,%r7
 4677 02d8 7A02000A 		e_bne %cr0,.L186
 4678              		.loc 1 2380 0
 4679 02dc 4817     		se_li %r7,1
 4680 02de 7800005E 		e_b .L173
 4681              	.L186:
 4682              		.loc 1 2385 0
 4683 02e2 8C71     		se_lbz %r7,12(%r1)
 4684 02e4 00C7     		se_extzb %r7
 4685 02e6 C631     		se_lwz %r3,24(%r1)
 4686 02e8 708000FC 		e_li %r4,252
 4687 02ec 0175     		se_mr %r5,%r7
 4688 02ee C861     		se_lwz %r6,32(%r1)
 4689 02f0 78000001 		e_bl can_lld_readBuffer
 4690              		.loc 1 2388 0
 4691 02f4 8C71     		se_lbz %r7,12(%r1)
 4692 02f6 00C7     		se_extzb %r7
 4693 02f8 23E7     		se_cmpli %r7,31
 4694 02fa 7F800020 		e_mcrf %cr7,%cr0
 4695 02fe 7CE00026 		mfcr %r7
 4696 0302 74E7E007 		e_rlwinm %r7,%r7,28,0xf0000000
 4697 0306 7CE80120 		mtcrf 128,%r7
 4698 030a 7A11001A 		e_bgt %cr0,.L187
 4699              		.loc 1 2389 0
 4700 030e C671     		se_lwz %r7,24(%r1)
 4701 0310 C177     		se_lwz %r7,4(%r7)
 4702 0312 8C61     		se_lbz %r6,12(%r1)
 4703 0314 00C6     		se_extzb %r6
 4704 0316 4815     		se_li %r5,1
 4705 0318 7CA63030 		slw %r6,%r5,%r6
 4706 031c 54C70098 		e_stw %r6,152(%r7)
 4707 0320 7800001A 		e_b .L172
 4708              	.L187:
 4709              		.loc 1 2391 0
 4710 0324 C671     		se_lwz %r7,24(%r1)
 4711 0326 C177     		se_lwz %r7,4(%r7)
 4712 0328 8C61     		se_lbz %r6,12(%r1)
 4713 032a 00C6     		se_extzb %r6
 4714 032c 18C684E0 		e_addi %r6,%r6,-32
 4715 0330 4815     		se_li %r5,1
 4716 0332 7CA63030 		slw %r6,%r5,%r6
 4717 0336 54C7009C 		e_stw %r6,156(%r7)
 4718              	.L172:
 4719              		.loc 1 2396 0
 4720 033a 4807     		se_li %r7,0
 4721              	.L173:
 4722              		.loc 1 2397 0
 4723 033c 0173     		se_mr %r3,%r7
 4724 033e CB01     		se_lwz %r0,44(%r1)
 4725 0340 0090     		se_mtlr %r0
GAS LISTING C:\Users\bayra\AppData\Local\Temp\ccA56S3H.s 			page 84


 4726 0342 18218028 		e_addi %r1,%r1,40
 4727              	.LCFI29:
 4728              		.cfi_def_cfa_offset 0
 4729 0346 0004     		se_blr
 4730              		.cfi_endproc
 4731              	.LFE17:
 4732              		.size	can_lld_receive, .-can_lld_receive
 4733              		.section	".text","axv"
 4734              	.Letext0:
 4735              		.file 2 "c:\\spc5studio-6.0\\eclipse\\plugins\\com.st.tools.spc5.tools.gnu.gcc.ppcvle.win32_4.9.4.
 4736              		.file 3 "c:\\spc5studio-6.0\\eclipse\\plugins\\com.st.tools.spc5.tools.gnu.gcc.ppcvle.win32_4.9.4.
 4737              		.file 4 "./components/spc58ecxx_platform_component_rla/lib/include/typedefs.h"
 4738              		.file 5 "./components/spc58ecxx_platform_component_rla/lib/include/spc58xcxx.h"
 4739              		.file 6 "./components/spc58ecxx_low_level_drivers_component_rla/lib/include/can_lld.h"