GAS LISTING C:\Users\bayra\AppData\Local\Temp\ccH8ui3D.s 			page 1


   1              		.file	"CANparse.c"
   2              		.section	".text","axv"
   3              	.Ltext0:
   4              		.cfi_sections	.debug_frame
   5              		.globl __floatunsisf
   6              		.globl __mulsf3
   7              		.section	.text.GetSteeringWheelAngle,"axv",@progbits
   8              		.align 1
   9              		.p2align 4,,15
  10              		.globl GetSteeringWheelAngle
  11              		.type	GetSteeringWheelAngle, @function
  12              	GetSteeringWheelAngle:
  13              	.LFB0:
  14              		.file 1 "./source/src/CANparse.c"
  15              		.loc 1 14 0
  16              		.cfi_startproc
  17              	.LVL0:
  18 0000 182106F0 		e_stwu %r1,-16(%r1)
  19              	.LCFI0:
  20              		.cfi_def_cfa_offset 16
  21 0004 0080     		se_mflr %r0
  22 0006 D3F1     		se_stw %r31,12(%r1)
  23 0008 D501     		se_stw %r0,20(%r1)
  24              		.cfi_offset 65, 4
  25              		.cfi_offset 31, -4
  26              		.loc 1 16 0
  27 000a 83F3     		se_lbz %r31,3(%r3)
  28              	.LVL1:
  29              		.loc 1 18 0
  30 000c 8233     		se_lbz %r3,2(%r3)
  31              	.LVL2:
  32 000e 77E744EF 		e_rlwinm %r7,%r31,8,19,23
  33              		.loc 1 21 0
  34 0012 4473     		se_or %r3,%r7
  35              	.LVL3:
  36 0014 78000001 		e_bl __floatunsisf
  37              	.LVL4:
  38 0018 7087E5CC 		e_lis %r4,0x3dcc
  39 001c 7099C4CD 		e_or2i %r4,52429
  40 0020 78000001 		e_bl __mulsf3
  41              	.LVL5:
  42              		.loc 1 22 0
  43 0024 67AF     		se_btsti %r31,26
  44 0026 7A120008 		e_beq %cr0,.L2
  45              		.loc 1 22 0 is_stmt 0 discriminator 1
  46 002a 18638380 		e_addi %r3,%r3,-2147483648
  47              	.LVL6:
  48              	.L2:
  49              		.loc 1 25 0 is_stmt 1 discriminator 4
  50 002e C501     		se_lwz %r0,20(%r1)
  51 0030 0090     		se_mtlr %r0
  52              		.cfi_restore 65
  53 0032 C3F1     		se_lwz %r31,12(%r1)
  54              	.LVL7:
  55 0034 20F1     		se_addi %r1,16
  56              	.LCFI1:
  57              		.cfi_restore 31
GAS LISTING C:\Users\bayra\AppData\Local\Temp\ccH8ui3D.s 			page 2


  58              		.cfi_def_cfa_offset 0
  59 0036 0004     		se_blr
  60              		.cfi_endproc
  61              	.LFE0:
  62              		.size	GetSteeringWheelAngle, .-GetSteeringWheelAngle
  63              		.section	.text.GetSteeringWheelRate,"axv",@progbits
  64              		.align 1
  65              		.p2align 4,,15
  66              		.globl GetSteeringWheelRate
  67              		.type	GetSteeringWheelRate, @function
  68              	GetSteeringWheelRate:
  69              	.LFB1:
  70              		.loc 1 31 0
  71              		.cfi_startproc
  72              	.LVL8:
  73              		.loc 1 33 0
  74 0000 8363     		se_lbz %r6,3(%r3)
  75              	.LVL9:
  76              		.loc 1 36 0
  77 0002 8473     		se_lbz %r7,4(%r3)
  78              		.loc 1 39 0
  79 0004 6796     		se_btsti %r6,25
  80              		.loc 1 36 0
  81 0006 7CC33C70 		e_srwi %r3,%r6,7
  82              	.LVL10:
  83 000a 6C17     		se_slwi %r7, 1
  84 000c 4437     		se_or %r7,%r3
  85              	.LVL11:
  86              		.loc 1 39 0
  87 000e 7A120006 		e_beq %cr0,.L5
  88              		.loc 1 39 0 is_stmt 0 discriminator 1
  89 0012 0037     		se_neg %r7
  90              	.LVL12:
  91              	.L5:
  92              		.loc 1 41 0 is_stmt 1 discriminator 4
  93 0014 7CE31070 		e_slwi %r3,%r7,2
  94              	.LVL13:
  95 0018 7C671A14 		add %r3,%r7,%r3
  96              		.loc 1 42 0 discriminator 4
  97 001c 00F3     		se_extsh %r3
  98 001e 0004     		se_blr
  99              		.cfi_endproc
 100              	.LFE1:
 101              		.size	GetSteeringWheelRate, .-GetSteeringWheelRate
 102              		.section	.text.GetTargetMotorTorqueFiltered,"axv",@progbits
 103              		.align 1
 104              		.p2align 4,,15
 105              		.globl GetTargetMotorTorqueFiltered
 106              		.type	GetTargetMotorTorqueFiltered, @function
 107              	GetTargetMotorTorqueFiltered:
 108              	.LFB2:
 109              		.loc 1 50 0
 110              		.cfi_startproc
 111              	.LVL14:
 112              		.loc 1 53 0
 113 0000 8673     		se_lbz %r7,6(%r3)
 114 0002 8533     		se_lbz %r3,5(%r3)
GAS LISTING C:\Users\bayra\AppData\Local\Temp\ccH8ui3D.s 			page 3


 115              	.LVL15:
 116 0004 74E735B3 		e_rlwinm %r7,%r7,6,22,25
 117              	.LVL16:
 118 0008 6823     		se_srwi %r3,2
 119 000a 4473     		se_or %r3,%r7
 120              		.loc 1 56 0
 121 000c 1C63FE03 		e_add16i %r3,%r3,-509
 122 0010 0004     		se_blr
 123              		.cfi_endproc
 124              	.LFE2:
 125              		.size	GetTargetMotorTorqueFiltered, .-GetTargetMotorTorqueFiltered
 126              		.section	.text.GetTargetMotorTorqueRaw,"axv",@progbits
 127              		.align 1
 128              		.p2align 4,,15
 129              		.globl GetTargetMotorTorqueRaw
 130              		.type	GetTargetMotorTorqueRaw, @function
 131              	GetTargetMotorTorqueRaw:
 132              	.LFB3:
 133              		.loc 1 60 0
 134              		.cfi_startproc
 135              	.LVL17:
 136              		.loc 1 63 0
 137 0000 8273     		se_lbz %r7,2(%r3)
 138 0002 8133     		se_lbz %r3,1(%r3)
 139              	.LVL18:
 140 0004 74E725B7 		e_rlwinm %r7,%r7,4,22,27
 141              	.LVL19:
 142 0008 6843     		se_srwi %r3,4
 143 000a 4473     		se_or %r3,%r7
 144              		.loc 1 65 0
 145 000c 1C63FE03 		e_add16i %r3,%r3,-509
 146 0010 0004     		se_blr
 147              		.cfi_endproc
 148              	.LFE3:
 149              		.size	GetTargetMotorTorqueRaw, .-GetTargetMotorTorqueRaw
 150              		.section	.text.GetTargetMotorTorqueTotal,"axv",@progbits
 151              		.align 1
 152              		.p2align 4,,15
 153              		.globl GetTargetMotorTorqueTotal
 154              		.type	GetTargetMotorTorqueTotal, @function
 155              	GetTargetMotorTorqueTotal:
 156              	.LFB4:
 157              		.loc 1 68 0
 158              		.cfi_startproc
 159              	.LVL20:
 160              		.loc 1 71 0
 161 0000 8373     		se_lbz %r7,3(%r3)
 162 0002 8233     		se_lbz %r3,2(%r3)
 163              	.LVL21:
 164 0004 6C27     		se_slwi %r7, 2
 165              	.LVL22:
 166 0006 6863     		se_srwi %r3,6
 167 0008 4473     		se_or %r3,%r7
 168              		.loc 1 73 0
 169 000a 1C63FE03 		e_add16i %r3,%r3,-509
 170 000e 0004     		se_blr
 171              		.cfi_endproc
GAS LISTING C:\Users\bayra\AppData\Local\Temp\ccH8ui3D.s 			page 4


 172              	.LFE4:
 173              		.size	GetTargetMotorTorqueTotal, .-GetTargetMotorTorqueTotal
 174              		.globl __floatsidf
 175              		.globl __muldf3
 176              		.globl __fixunsdfsi
 177              		.section	.text.GetMotorRPM,"axv",@progbits
 178              		.align 1
 179              		.p2align 4,,15
 180              		.globl GetMotorRPM
 181              		.type	GetMotorRPM, @function
 182              	GetMotorRPM:
 183              	.LFB5:
 184              		.loc 1 79 0
 185              		.cfi_startproc
 186              	.LVL23:
 187 0000 182106F8 		e_stwu %r1,-8(%r1)
 188              	.LCFI2:
 189              		.cfi_def_cfa_offset 8
 190              	.LVL24:
 191 0004 0080     		se_mflr %r0
 192 0006 D301     		se_stw %r0,12(%r1)
 193              		.cfi_offset 65, 4
 194              		.loc 1 81 0
 195 0008 8773     		se_lbz %r7,7(%r3)
 196 000a 8633     		se_lbz %r3,6(%r3)
 197              	.LVL25:
 198 000c 6C87     		se_slwi %r7, 8
 199              		.loc 1 83 0
 200 000e 4473     		se_or %r3,%r7
 201 0010 78000001 		e_bl __floatsidf
 202              	.LVL26:
 203 0014 70A7E7D0 		e_lis %r5,0x3fd0
 204 0018 4806     		se_li %r6,0
 205 001a 78000001 		e_bl __muldf3
 206              	.LVL27:
 207 001e 78000001 		e_bl __fixunsdfsi
 208              	.LVL28:
 209              		.loc 1 84 0
 210 0022 C301     		se_lwz %r0,12(%r1)
 211 0024 0090     		se_mtlr %r0
 212              		.cfi_restore 65
 213 0026 00E3     		se_extzh %r3
 214 0028 2071     		se_addi %r1,8
 215              	.LCFI3:
 216              		.cfi_def_cfa_offset 0
 217 002a 0004     		se_blr
 218              		.cfi_endproc
 219              	.LFE5:
 220              		.size	GetMotorRPM, .-GetMotorRPM
 221              		.section	.text.GetTargetGearLevel,"axv",@progbits
 222              		.align 1
 223              		.p2align 4,,15
 224              		.globl GetTargetGearLevel
 225              		.type	GetTargetGearLevel, @function
 226              	GetTargetGearLevel:
 227              	.LFB6:
 228              		.loc 1 89 0
GAS LISTING C:\Users\bayra\AppData\Local\Temp\ccH8ui3D.s 			page 5


 229              		.cfi_startproc
 230              	.LVL29:
 231              		.loc 1 91 0
 232 0000 8733     		se_lbz %r3,7(%r3)
 233              	.LVL30:
 234              		.loc 1 95 0
 235 0002 6843     		se_srwi %r3,4
 236              	.LVL31:
 237 0004 0004     		se_blr
 238              		.cfi_endproc
 239              	.LFE6:
 240              		.size	GetTargetGearLevel, .-GetTargetGearLevel
 241              		.section	.text.Get_WheelSpeed_FR,"axv",@progbits
 242              		.align 1
 243              		.p2align 4,,15
 244              		.globl Get_WheelSpeed_FR
 245              		.type	Get_WheelSpeed_FR, @function
 246              	Get_WheelSpeed_FR:
 247              	.LFB7:
 248              		.loc 1 101 0
 249              		.cfi_startproc
 250              	.LVL32:
 251 0000 182106F8 		e_stwu %r1,-8(%r1)
 252              	.LCFI4:
 253              		.cfi_def_cfa_offset 8
 254              	.LVL33:
 255 0004 0080     		se_mflr %r0
 256 0006 D301     		se_stw %r0,12(%r1)
 257              		.cfi_offset 65, 4
 258              		.loc 1 104 0
 259 0008 8773     		se_lbz %r7,7(%r3)
 260 000a 8633     		se_lbz %r3,6(%r3)
 261              	.LVL34:
 262 000c 6C87     		se_slwi %r7, 8
 263              		.loc 1 107 0
 264 000e 4473     		se_or %r3,%r7
 265 0010 78000001 		e_bl __floatunsisf
 266              	.LVL35:
 267 0014 7087E3F5 		e_lis %r4,0x3bf5
 268 0018 7098C28F 		e_or2i %r4,49807
 269 001c 78000001 		e_bl __mulsf3
 270              	.LVL36:
 271              		.loc 1 109 0
 272 0020 C301     		se_lwz %r0,12(%r1)
 273 0022 0090     		se_mtlr %r0
 274              		.cfi_restore 65
 275 0024 2071     		se_addi %r1,8
 276              	.LCFI5:
 277              		.cfi_def_cfa_offset 0
 278 0026 0004     		se_blr
 279              		.cfi_endproc
 280              	.LFE7:
 281              		.size	Get_WheelSpeed_FR, .-Get_WheelSpeed_FR
 282              		.section	.text.Get_WheelSpeed_FL,"axv",@progbits
 283              		.align 1
 284              		.p2align 4,,15
 285              		.globl Get_WheelSpeed_FL
GAS LISTING C:\Users\bayra\AppData\Local\Temp\ccH8ui3D.s 			page 6


 286              		.type	Get_WheelSpeed_FL, @function
 287              	Get_WheelSpeed_FL:
 288              	.LFB8:
 289              		.loc 1 115 0
 290              		.cfi_startproc
 291              	.LVL37:
 292 0000 182106F8 		e_stwu %r1,-8(%r1)
 293              	.LCFI6:
 294              		.cfi_def_cfa_offset 8
 295              	.LVL38:
 296 0004 0080     		se_mflr %r0
 297 0006 D301     		se_stw %r0,12(%r1)
 298              		.cfi_offset 65, 4
 299              		.loc 1 118 0
 300 0008 8573     		se_lbz %r7,5(%r3)
 301 000a 8433     		se_lbz %r3,4(%r3)
 302              	.LVL39:
 303 000c 6C87     		se_slwi %r7, 8
 304              		.loc 1 121 0
 305 000e 4473     		se_or %r3,%r7
 306 0010 78000001 		e_bl __floatunsisf
 307              	.LVL40:
 308 0014 7087E3F5 		e_lis %r4,0x3bf5
 309 0018 7098C28F 		e_or2i %r4,49807
 310 001c 78000001 		e_bl __mulsf3
 311              	.LVL41:
 312              		.loc 1 123 0
 313 0020 C301     		se_lwz %r0,12(%r1)
 314 0022 0090     		se_mtlr %r0
 315              		.cfi_restore 65
 316 0024 2071     		se_addi %r1,8
 317              	.LCFI7:
 318              		.cfi_def_cfa_offset 0
 319 0026 0004     		se_blr
 320              		.cfi_endproc
 321              	.LFE8:
 322              		.size	Get_WheelSpeed_FL, .-Get_WheelSpeed_FL
 323              		.section	.text.Get_WheelSpeed_BR,"axv",@progbits
 324              		.align 1
 325              		.p2align 4,,15
 326              		.globl Get_WheelSpeed_BR
 327              		.type	Get_WheelSpeed_BR, @function
 328              	Get_WheelSpeed_BR:
 329              	.LFB9:
 330              		.loc 1 129 0
 331              		.cfi_startproc
 332              	.LVL42:
 333 0000 182106F8 		e_stwu %r1,-8(%r1)
 334              	.LCFI8:
 335              		.cfi_def_cfa_offset 8
 336              	.LVL43:
 337 0004 0080     		se_mflr %r0
 338 0006 D301     		se_stw %r0,12(%r1)
 339              		.cfi_offset 65, 4
 340              		.loc 1 132 0
 341 0008 8373     		se_lbz %r7,3(%r3)
 342 000a 8233     		se_lbz %r3,2(%r3)
GAS LISTING C:\Users\bayra\AppData\Local\Temp\ccH8ui3D.s 			page 7


 343              	.LVL44:
 344 000c 6C87     		se_slwi %r7, 8
 345              		.loc 1 135 0
 346 000e 4473     		se_or %r3,%r7
 347 0010 78000001 		e_bl __floatunsisf
 348              	.LVL45:
 349 0014 7087E3F5 		e_lis %r4,0x3bf5
 350 0018 7098C28F 		e_or2i %r4,49807
 351 001c 78000001 		e_bl __mulsf3
 352              	.LVL46:
 353              		.loc 1 137 0
 354 0020 C301     		se_lwz %r0,12(%r1)
 355 0022 0090     		se_mtlr %r0
 356              		.cfi_restore 65
 357 0024 2071     		se_addi %r1,8
 358              	.LCFI9:
 359              		.cfi_def_cfa_offset 0
 360 0026 0004     		se_blr
 361              		.cfi_endproc
 362              	.LFE9:
 363              		.size	Get_WheelSpeed_BR, .-Get_WheelSpeed_BR
 364              		.section	.text.Get_WheelSpeed_BL,"axv",@progbits
 365              		.align 1
 366              		.p2align 4,,15
 367              		.globl Get_WheelSpeed_BL
 368              		.type	Get_WheelSpeed_BL, @function
 369              	Get_WheelSpeed_BL:
 370              	.LFB10:
 371              		.loc 1 143 0
 372              		.cfi_startproc
 373              	.LVL47:
 374 0000 182106F8 		e_stwu %r1,-8(%r1)
 375              	.LCFI10:
 376              		.cfi_def_cfa_offset 8
 377              	.LVL48:
 378 0004 0080     		se_mflr %r0
 379 0006 D301     		se_stw %r0,12(%r1)
 380              		.cfi_offset 65, 4
 381              		.loc 1 146 0
 382 0008 8173     		se_lbz %r7,1(%r3)
 383 000a 8033     		se_lbz %r3,0(%r3)
 384              	.LVL49:
 385 000c 6C87     		se_slwi %r7, 8
 386              		.loc 1 149 0
 387 000e 4473     		se_or %r3,%r7
 388 0010 78000001 		e_bl __floatunsisf
 389              	.LVL50:
 390 0014 7087E3F5 		e_lis %r4,0x3bf5
 391 0018 7098C28F 		e_or2i %r4,49807
 392 001c 78000001 		e_bl __mulsf3
 393              	.LVL51:
 394              		.loc 1 151 0
 395 0020 C301     		se_lwz %r0,12(%r1)
 396 0022 0090     		se_mtlr %r0
 397              		.cfi_restore 65
 398 0024 2071     		se_addi %r1,8
 399              	.LCFI11:
GAS LISTING C:\Users\bayra\AppData\Local\Temp\ccH8ui3D.s 			page 8


 400              		.cfi_def_cfa_offset 0
 401 0026 0004     		se_blr
 402              		.cfi_endproc
 403              	.LFE10:
 404              		.size	Get_WheelSpeed_BL, .-Get_WheelSpeed_BL
 405              		.globl __extendsfdf2
 406              		.globl __subdf3
 407              		.globl __truncdfsf2
 408              		.section	.text.GetLateralACC,"axv",@progbits
 409              		.align 1
 410              		.p2align 4,,15
 411              		.globl GetLateralACC
 412              		.type	GetLateralACC, @function
 413              	GetLateralACC:
 414              	.LFB11:
 415              		.loc 1 157 0
 416              		.cfi_startproc
 417              	.LVL52:
 418 0000 182106F8 		e_stwu %r1,-8(%r1)
 419              	.LCFI12:
 420              		.cfi_def_cfa_offset 8
 421              	.LVL53:
 422 0004 0080     		se_mflr %r0
 423 0006 D301     		se_stw %r0,12(%r1)
 424              		.cfi_offset 65, 4
 425              		.loc 1 160 0
 426 0008 8233     		se_lbz %r3,2(%r3)
 427              	.LVL54:
 428 000a 78000001 		e_bl __floatunsisf
 429              	.LVL55:
 430 000e 78000001 		e_bl __extendsfdf2
 431              	.LVL56:
 432 0012 70A7E784 		e_lis %r5,0x3f84
 433 0016 70C8E7AE 		e_lis %r6,0x47ae
 434 001a 70AFC2E1 		e_or2i %r5,31457
 435 001e 70C2C47B 		e_or2i %r6,5243
 436 0022 78000001 		e_bl __muldf3
 437              	.LVL57:
 438 0026 6206     		se_bgeni %r6,0
 439 0028 70A7E7F4 		e_lis %r5,0x3ff4
 440 002c 70AAC1EB 		e_or2i %r5,20971
 441 0030 78000001 		e_bl __subdf3
 442              	.LVL58:
 443 0034 78000001 		e_bl __truncdfsf2
 444              	.LVL59:
 445              		.loc 1 163 0
 446 0038 C301     		se_lwz %r0,12(%r1)
 447 003a 0090     		se_mtlr %r0
 448              		.cfi_restore 65
 449 003c 2071     		se_addi %r1,8
 450              	.LCFI13:
 451              		.cfi_def_cfa_offset 0
 452 003e 0004     		se_blr
 453              		.cfi_endproc
 454              	.LFE11:
 455              		.size	GetLateralACC, .-GetLateralACC
 456              		.globl __subsf3
GAS LISTING C:\Users\bayra\AppData\Local\Temp\ccH8ui3D.s 			page 9


 457              		.section	.text.GetLongitudinalACC,"axv",@progbits
 458              		.align 1
 459              		.p2align 4,,15
 460              		.globl GetLongitudinalACC
 461              		.type	GetLongitudinalACC, @function
 462              	GetLongitudinalACC:
 463              	.LFB12:
 464              		.loc 1 168 0
 465              		.cfi_startproc
 466              	.LVL60:
 467 0000 182106F8 		e_stwu %r1,-8(%r1)
 468              	.LCFI14:
 469              		.cfi_def_cfa_offset 8
 470              	.LVL61:
 471 0004 0080     		se_mflr %r0
 472 0006 D301     		se_stw %r0,12(%r1)
 473              		.cfi_offset 65, 4
 474              		.loc 1 170 0
 475 0008 8473     		se_lbz %r7,4(%r3)
 476 000a 8333     		se_lbz %r3,3(%r3)
 477              	.LVL62:
 478 000c 74E745AF 		e_rlwinm %r7,%r7,8,22,23
 479              		.loc 1 173 0
 480 0010 4473     		se_or %r3,%r7
 481 0012 78000001 		e_bl __floatunsisf
 482              	.LVL63:
 483 0016 7087E500 		e_lis %r4,0x3d00
 484 001a 78000001 		e_bl __mulsf3
 485              	.LVL64:
 486 001e 7088E180 		e_lis %r4,0x4180
 487 0022 78000001 		e_bl __subsf3
 488              	.LVL65:
 489              		.loc 1 175 0
 490 0026 C301     		se_lwz %r0,12(%r1)
 491 0028 0090     		se_mtlr %r0
 492              		.cfi_restore 65
 493 002a 2071     		se_addi %r1,8
 494              	.LCFI15:
 495              		.cfi_def_cfa_offset 0
 496 002c 0004     		se_blr
 497              		.cfi_endproc
 498              	.LFE12:
 499              		.size	GetLongitudinalACC, .-GetLongitudinalACC
 500              		.section	.text.GetBrakePressure,"axv",@progbits
 501              		.align 1
 502              		.p2align 4,,15
 503              		.globl GetBrakePressure
 504              		.type	GetBrakePressure, @function
 505              	GetBrakePressure:
 506              	.LFB13:
 507              		.loc 1 182 0
 508              		.cfi_startproc
 509              	.LVL66:
 510 0000 182106F8 		e_stwu %r1,-8(%r1)
 511              	.LCFI16:
 512              		.cfi_def_cfa_offset 8
 513              	.LVL67:
GAS LISTING C:\Users\bayra\AppData\Local\Temp\ccH8ui3D.s 			page 10


 514 0004 0080     		se_mflr %r0
 515 0006 D301     		se_stw %r0,12(%r1)
 516              		.cfi_offset 65, 4
 517              		.loc 1 184 0
 518 0008 8373     		se_lbz %r7,3(%r3)
 519 000a 8233     		se_lbz %r3,2(%r3)
 520              	.LVL68:
 521 000c 74E745AF 		e_rlwinm %r7,%r7,8,22,23
 522              		.loc 1 187 0
 523 0010 4473     		se_or %r3,%r7
 524 0012 78000001 		e_bl __floatunsisf
 525              	.LVL69:
 526 0016 7087E699 		e_lis %r4,0x3e99
 527 001a 7093C19A 		e_or2i %r4,39322
 528 001e 78000001 		e_bl __mulsf3
 529              	.LVL70:
 530 0022 7088E1F0 		e_lis %r4,0x41f0
 531 0026 78000001 		e_bl __subsf3
 532              	.LVL71:
 533              		.loc 1 189 0
 534 002a C301     		se_lwz %r0,12(%r1)
 535 002c 0090     		se_mtlr %r0
 536              		.cfi_restore 65
 537 002e 2071     		se_addi %r1,8
 538              	.LCFI17:
 539              		.cfi_def_cfa_offset 0
 540 0030 0004     		se_blr
 541              		.cfi_endproc
 542              	.LFE13:
 543              		.size	GetBrakePressure, .-GetBrakePressure
 544              		.section	.text.GetDriverBrake,"axv",@progbits
 545              		.align 1
 546              		.p2align 4,,15
 547              		.globl GetDriverBrake
 548              		.type	GetDriverBrake, @function
 549              	GetDriverBrake:
 550              	.LFB14:
 551              		.loc 1 195 0
 552              		.cfi_startproc
 553              	.LVL72:
 554              		.loc 1 196 0
 555 0000 8333     		se_lbz %r3,3(%r3)
 556              	.LVL73:
 557              		.loc 1 197 0
 558 0002 7463F7FF 		e_rlwinm %r3,%r3,30,31,31
 559 0006 0004     		se_blr
 560              		.cfi_endproc
 561              	.LFE14:
 562              		.size	GetDriverBrake, .-GetDriverBrake
 563              		.section	.text.GetEPBStatus,"axv",@progbits
 564              		.align 1
 565              		.p2align 4,,15
 566              		.globl GetEPBStatus
 567              		.type	GetEPBStatus, @function
 568              	GetEPBStatus:
 569              	.LFB15:
 570              		.loc 1 203 0
GAS LISTING C:\Users\bayra\AppData\Local\Temp\ccH8ui3D.s 			page 11


 571              		.cfi_startproc
 572              	.LVL74:
 573              		.loc 1 204 0
 574 0000 8733     		se_lbz %r3,7(%r3)
 575              	.LVL75:
 576              		.loc 1 205 0
 577 0002 7463DFBF 		e_rlwinm %r3,%r3,27,30,31
 578 0006 0004     		se_blr
 579              		.cfi_endproc
 580              	.LFE15:
 581              		.size	GetEPBStatus, .-GetEPBStatus
 582              		.section	.text.GetThrottlePedalRawValue,"axv",@progbits
 583              		.align 1
 584              		.p2align 4,,15
 585              		.globl GetThrottlePedalRawValue
 586              		.type	GetThrottlePedalRawValue, @function
 587              	GetThrottlePedalRawValue:
 588              	.LFB16:
 589              		.loc 1 212 0
 590              		.cfi_startproc
 591              	.LVL76:
 592 0000 182106F8 		e_stwu %r1,-8(%r1)
 593              	.LCFI18:
 594              		.cfi_def_cfa_offset 8
 595              	.LVL77:
 596 0004 0080     		se_mflr %r0
 597 0006 D301     		se_stw %r0,12(%r1)
 598              		.cfi_offset 65, 4
 599              		.loc 1 214 0
 600 0008 8263     		se_lbz %r6,2(%r3)
 601 000a 8173     		se_lbz %r7,1(%r3)
 602 000c 74C32637 		e_rlwinm %r3,%r6,4,24,27
 603              	.LVL78:
 604 0010 6847     		se_srwi %r7,4
 605              		.loc 1 215 0
 606 0012 4473     		se_or %r3,%r7
 607 0014 78000001 		e_bl __floatunsisf
 608              	.LVL79:
 609 0018 7087E6CC 		e_lis %r4,0x3ecc
 610 001c 7099C4CD 		e_or2i %r4,52429
 611 0020 78000001 		e_bl __mulsf3
 612              	.LVL80:
 613              		.loc 1 216 0
 614 0024 C301     		se_lwz %r0,12(%r1)
 615 0026 0090     		se_mtlr %r0
 616              		.cfi_restore 65
 617 0028 2071     		se_addi %r1,8
 618              	.LCFI19:
 619              		.cfi_def_cfa_offset 0
 620 002a 0004     		se_blr
 621              		.cfi_endproc
 622              	.LFE16:
 623              		.size	GetThrottlePedalRawValue, .-GetThrottlePedalRawValue
 624              		.section	.text.GetBrakePedalPos,"axv",@progbits
 625              		.align 1
 626              		.p2align 4,,15
 627              		.globl GetBrakePedalPos
GAS LISTING C:\Users\bayra\AppData\Local\Temp\ccH8ui3D.s 			page 12


 628              		.type	GetBrakePedalPos, @function
 629              	GetBrakePedalPos:
 630              	.LFB17:
 631              		.loc 1 222 0
 632              		.cfi_startproc
 633              	.LVL81:
 634              		.loc 1 224 0
 635 0000 8533     		se_lbz %r3,5(%r3)
 636              	.LVL82:
 637 0002 0004     		se_blr
 638              		.cfi_endproc
 639              	.LFE17:
 640              		.size	GetBrakePedalPos, .-GetBrakePedalPos
 641              		.section	.text.GetGear,"axv",@progbits
 642              		.align 1
 643              		.p2align 4,,15
 644              		.globl GetGear
 645              		.type	GetGear, @function
 646              	GetGear:
 647              	.LFB18:
 648              		.loc 1 231 0
 649              		.cfi_startproc
 650              	.LVL83:
 651              		.loc 1 234 0
 652 0000 8133     		se_lbz %r3,1(%r3)
 653              	.LVL84:
 654              		.loc 1 236 0
 655 0002 6843     		se_srwi %r3,4
 656              	.LVL85:
 657 0004 0004     		se_blr
 658              		.cfi_endproc
 659              	.LFE18:
 660              		.size	GetGear, .-GetGear
 661              		.section	.text.GetGearLevel,"axv",@progbits
 662              		.align 1
 663              		.p2align 4,,15
 664              		.globl GetGearLevel
 665              		.type	GetGearLevel, @function
 666              	GetGearLevel:
 667              	.LFB19:
 668              		.loc 1 239 0
 669              		.cfi_startproc
 670              	.LVL86:
 671              		.loc 1 241 0
 672 0000 8333     		se_lbz %r3,3(%r3)
 673              	.LVL87:
 674              		.loc 1 244 0
 675 0002 2EF3     		se_andi %r3,15
 676              	.LVL88:
 677 0004 0004     		se_blr
 678              		.cfi_endproc
 679              	.LFE19:
 680              		.size	GetGearLevel, .-GetGearLevel
 681              		.section	.text.GetKL75status,"axv",@progbits
 682              		.align 1
 683              		.p2align 4,,15
 684              		.globl GetKL75status
GAS LISTING C:\Users\bayra\AppData\Local\Temp\ccH8ui3D.s 			page 13


 685              		.type	GetKL75status, @function
 686              	GetKL75status:
 687              	.LFB20:
 688              		.loc 1 253 0
 689              		.cfi_startproc
 690              	.LVL89:
 691              		.loc 1 255 0
 692 0000 8233     		se_lbz %r3,2(%r3)
 693              	.LVL90:
 694              		.loc 1 257 0
 695 0002 7463F7FF 		e_rlwinm %r3,%r3,30,31,31
 696              	.LVL91:
 697 0006 0004     		se_blr
 698              		.cfi_endproc
 699              	.LFE20:
 700              		.size	GetKL75status, .-GetKL75status
 701              		.section	.text.GetVehicleMassEst,"axv",@progbits
 702              		.align 1
 703              		.p2align 4,,15
 704              		.globl GetVehicleMassEst
 705              		.type	GetVehicleMassEst, @function
 706              	GetVehicleMassEst:
 707              	.LFB21:
 708              		.loc 1 264 0
 709              		.cfi_startproc
 710              	.LVL92:
 711              		.loc 1 266 0
 712 0000 8633     		se_lbz %r3,6(%r3)
 713              	.LVL93:
 714              		.loc 1 268 0
 715 0002 6C53     		se_slwi %r3, 5
 716              	.LVL94:
 717 0004 0004     		se_blr
 718              		.cfi_endproc
 719              	.LFE21:
 720              		.size	GetVehicleMassEst, .-GetVehicleMassEst
 721              		.section	.text.GetPitchVal,"axv",@progbits
 722              		.align 1
 723              		.p2align 4,,15
 724              		.globl GetPitchVal
 725              		.type	GetPitchVal, @function
 726              	GetPitchVal:
 727              	.LFB22:
 728              		.loc 1 271 0
 729              		.cfi_startproc
 730              	.LVL95:
 731 0000 182106F8 		e_stwu %r1,-8(%r1)
 732              	.LCFI20:
 733              		.cfi_def_cfa_offset 8
 734              	.LVL96:
 735 0004 0080     		se_mflr %r0
 736 0006 D301     		se_stw %r0,12(%r1)
 737              		.cfi_offset 65, 4
 738              		.loc 1 273 0
 739 0008 8733     		se_lbz %r3,7(%r3)
 740              	.LVL97:
 741 000a 78000001 		e_bl __floatunsisf
GAS LISTING C:\Users\bayra\AppData\Local\Temp\ccH8ui3D.s 			page 14


 742              	.LVL98:
 743 000e 7087E74C 		e_lis %r4,0x3f4c
 744 0012 7099C4CD 		e_or2i %r4,52429
 745 0016 78000001 		e_bl __mulsf3
 746              	.LVL99:
 747 001a 7088E2CB 		e_lis %r4,0x42cb
 748 001e 7086C333 		e_or2i %r4,13107
 749 0022 78000001 		e_bl __subsf3
 750              	.LVL100:
 751              		.loc 1 276 0
 752 0026 C301     		se_lwz %r0,12(%r1)
 753 0028 0090     		se_mtlr %r0
 754              		.cfi_restore 65
 755 002a 2071     		se_addi %r1,8
 756              	.LCFI21:
 757              		.cfi_def_cfa_offset 0
 758 002c 0004     		se_blr
 759              		.cfi_endproc
 760              	.LFE22:
 761              		.size	GetPitchVal, .-GetPitchVal
 762              		.section	.text.GetFuelLevel,"axv",@progbits
 763              		.align 1
 764              		.p2align 4,,15
 765              		.globl GetFuelLevel
 766              		.type	GetFuelLevel, @function
 767              	GetFuelLevel:
 768              	.LFB23:
 769              		.loc 1 282 0
 770              		.cfi_startproc
 771              	.LVL101:
 772              		.loc 1 284 0
 773 0000 8533     		se_lbz %r3,5(%r3)
 774              	.LVL102:
 775              		.loc 1 286 0
 776 0002 1863C07F 		e_andi %r3,%r3,127
 777              	.LVL103:
 778 0006 0004     		se_blr
 779              		.cfi_endproc
 780              	.LFE23:
 781              		.size	GetFuelLevel, .-GetFuelLevel
 782              		.section	".text","axv"
 783              	.Letext0:
 784              		.file 2 "c:\\spc5studio-6.0\\eclipse\\plugins\\com.st.tools.spc5.tools.gnu.gcc.ppcvle.win32_4.9.4.
 785              		.file 3 "c:\\spc5studio-6.0\\eclipse\\plugins\\com.st.tools.spc5.tools.gnu.gcc.ppcvle.win32_4.9.4.