GAS LISTING C:\Users\bayra\AppData\Local\Temp\cc44mmEg.s 			page 1


   1              		.file	"clock.c"
   2              		.section	".text","axv"
   3              	.Ltext0:
   4              		.cfi_sections	.debug_frame
   5              		.section	.text.spc_clear_fccu_rgm,"axv",@progbits
   6              		.align 1
   7              		.p2align 4,,15
   8              		.type	spc_clear_fccu_rgm, @function
   9              	spc_clear_fccu_rgm:
  10              	.LFB2:
  11              		.file 1 "./components/spc58ecxx_clock_component_rla/lib/src/clock.c"
  12              		.loc 1 41 0
  13              		.cfi_startproc
  14              		.loc 1 44 0
  15 0000 70FFE3F5 		e_lis %r7,0xfbf5
  16 0004 6507     		se_bseti %r7,16
  17 0006 70D5E334 		e_lis %r6,0xab34
  18 000a 70D3C0FE 		e_or2i %r6,39166
  19 000e 54C70090 		e_stw %r6,144(%r7)
  20              		.loc 1 45 0
  21 0012 70FFE3F5 		e_lis %r7,0xfbf5
  22 0016 6507     		se_bseti %r7,16
  23 0018 2C06     		se_bmaski %r6,0
  24 001a 54C70080 		e_stw %r6,128(%r7)
  25              		.loc 1 46 0
  26 001e 4400     		se_nop
  27              	.L2:
  28              		.loc 1 46 0 is_stmt 0 discriminator 1
  29 0020 70FFE3F5 		e_lis %r7,0xfbf5
  30 0024 6507     		se_bseti %r7,16
  31 0026 C077     		se_lwz %r7,0(%r7)
  32 0028 6867     		se_srwi %r7,6
  33 002a 2E37     		se_andi %r7,3
  34 002c 00C7     		se_extzb %r7
  35 002e 2227     		se_cmpli %r7,3
  36 0030 7F800020 		e_mcrf %cr7,%cr0
  37 0034 7CE00026 		mfcr %r7
  38 0038 74E7E007 		e_rlwinm %r7,%r7,28,0xf0000000
  39 003c 7CE80120 		mtcrf 128,%r7
  40 0040 7A02FFE0 		e_bne %cr0,.L2
  41              		.loc 1 50 0 is_stmt 1
  42 0044 70FFE3F5 		e_lis %r7,0xfbf5
  43 0048 6507     		se_bseti %r7,16
  44 004a 70D5E334 		e_lis %r6,0xab34
  45 004e 70D3C0FE 		e_or2i %r6,39166
  46 0052 54C70090 		e_stw %r6,144(%r7)
  47              		.loc 1 51 0
  48 0056 70FFE3F5 		e_lis %r7,0xfbf5
  49 005a 6507     		se_bseti %r7,16
  50 005c 2C06     		se_bmaski %r6,0
  51 005e 54C70084 		e_stw %r6,132(%r7)
  52              		.loc 1 52 0
  53 0062 4400     		se_nop
  54              	.L3:
  55              		.loc 1 52 0 is_stmt 0 discriminator 1
  56 0064 70FFE3F5 		e_lis %r7,0xfbf5
  57 0068 6507     		se_bseti %r7,16
GAS LISTING C:\Users\bayra\AppData\Local\Temp\cc44mmEg.s 			page 2


  58 006a C077     		se_lwz %r7,0(%r7)
  59 006c 6867     		se_srwi %r7,6
  60 006e 2E37     		se_andi %r7,3
  61 0070 00C7     		se_extzb %r7
  62 0072 2227     		se_cmpli %r7,3
  63 0074 7F800020 		e_mcrf %cr7,%cr0
  64 0078 7CE00026 		mfcr %r7
  65 007c 74E7E007 		e_rlwinm %r7,%r7,28,0xf0000000
  66 0080 7CE80120 		mtcrf 128,%r7
  67 0084 7A02FFE0 		e_bne %cr0,.L3
  68              		.loc 1 56 0 is_stmt 1
  69 0088 70FFE3F5 		e_lis %r7,0xfbf5
  70 008c 6507     		se_bseti %r7,16
  71 008e 70D5E334 		e_lis %r6,0xab34
  72 0092 70D3C0FE 		e_or2i %r6,39166
  73 0096 54C70090 		e_stw %r6,144(%r7)
  74              		.loc 1 57 0
  75 009a 70FFE3F5 		e_lis %r7,0xfbf5
  76 009e 6507     		se_bseti %r7,16
  77 00a0 2C06     		se_bmaski %r6,0
  78 00a2 54C70088 		e_stw %r6,136(%r7)
  79              		.loc 1 58 0
  80 00a6 4400     		se_nop
  81              	.L4:
  82              		.loc 1 58 0 is_stmt 0 discriminator 1
  83 00a8 70FFE3F5 		e_lis %r7,0xfbf5
  84 00ac 6507     		se_bseti %r7,16
  85 00ae C077     		se_lwz %r7,0(%r7)
  86 00b0 6867     		se_srwi %r7,6
  87 00b2 2E37     		se_andi %r7,3
  88 00b4 00C7     		se_extzb %r7
  89 00b6 2227     		se_cmpli %r7,3
  90 00b8 7F800020 		e_mcrf %cr7,%cr0
  91 00bc 7CE00026 		mfcr %r7
  92 00c0 74E7E007 		e_rlwinm %r7,%r7,28,0xf0000000
  93 00c4 7CE80120 		mtcrf 128,%r7
  94 00c8 7A02FFE0 		e_bne %cr0,.L4
  95              		.loc 1 62 0 is_stmt 1
  96 00cc 70FFE3F5 		e_lis %r7,0xfbf5
  97 00d0 6507     		se_bseti %r7,16
  98 00d2 70D5E334 		e_lis %r6,0xab34
  99 00d6 70D3C0FE 		e_or2i %r6,39166
 100 00da 54C70090 		e_stw %r6,144(%r7)
 101              		.loc 1 63 0
 102 00de 70FFE3F5 		e_lis %r7,0xfbf5
 103 00e2 6507     		se_bseti %r7,16
 104 00e4 2C06     		se_bmaski %r6,0
 105 00e6 54C7008C 		e_stw %r6,140(%r7)
 106              		.loc 1 64 0
 107 00ea 4400     		se_nop
 108              	.L5:
 109              		.loc 1 64 0 is_stmt 0 discriminator 1
 110 00ec 70FFE3F5 		e_lis %r7,0xfbf5
 111 00f0 6507     		se_bseti %r7,16
 112 00f2 C077     		se_lwz %r7,0(%r7)
 113 00f4 6867     		se_srwi %r7,6
 114 00f6 2E37     		se_andi %r7,3
GAS LISTING C:\Users\bayra\AppData\Local\Temp\cc44mmEg.s 			page 3


 115 00f8 00C7     		se_extzb %r7
 116 00fa 2227     		se_cmpli %r7,3
 117 00fc 7F800020 		e_mcrf %cr7,%cr0
 118 0100 7CE00026 		mfcr %r7
 119 0104 74E7E007 		e_rlwinm %r7,%r7,28,0xf0000000
 120 0108 7CE80120 		mtcrf 128,%r7
 121 010c 7A02FFE0 		e_bne %cr0,.L5
 122              		.loc 1 68 0 is_stmt 1
 123 0110 70FEE7FA 		e_lis %r7,0xf7fa
 124 0114 6507     		se_bseti %r7,16
 125 0116 2D06     		se_bmaski %r6,16
 126 0118 54C70300 		e_stw %r6,768(%r7)
 127              		.loc 1 69 0
 128 011c 70FEE7FA 		e_lis %r7,0xf7fa
 129 0120 6507     		se_bseti %r7,16
 130 0122 2D06     		se_bmaski %r6,16
 131 0124 D067     		se_stw %r6,0(%r7)
 132              		.loc 1 70 0
 133 0126 0004     		se_blr
 134              		.cfi_endproc
 135              	.LFE2:
 136              		.size	spc_clear_fccu_rgm, .-spc_clear_fccu_rgm
 137              		.section	.text.SPCSetPFlashController,"axv",@progbits
 138              		.align 1
 139              		.p2align 4,,15
 140              		.type	SPCSetPFlashController, @function
 141              	SPCSetPFlashController:
 142              	.LFB3:
 143              		.loc 1 80 0
 144              		.cfi_startproc
 145 0000 182106F0 		e_stwu %r1,-16(%r1)
 146              	.LCFI0:
 147              		.cfi_def_cfa_offset 16
 148 0004 D231     		se_stw %r3,8(%r1)
 149              		.loc 1 82 0
 150 0006 C271     		se_lwz %r7,8(%r1)
 151 0008 2A07     		se_cmpi %r7,0
 152 000a 7F800020 		e_mcrf %cr7,%cr0
 153 000e 7CE00026 		mfcr %r7
 154 0012 74E7E007 		e_rlwinm %r7,%r7,28,0xf0000000
 155 0016 7CE80120 		mtcrf 128,%r7
 156 001a 7A12016E 		e_beq %cr0,.L6
 157              		.loc 1 82 0 is_stmt 0 discriminator 1
 158 001e C261     		se_lwz %r6,8(%r1)
 159 0020 70E1E2BA 		e_lis %r7,0xaba
 160 0024 18E7D195 		e_ori %r7,%r7,38144
 161 0028 7F863840 		cmpl %cr7,%r6,%r7
 162 002c 7CE00026 		mfcr %r7
 163 0030 74E7E007 		e_rlwinm %r7,%r7,28,0xf0000000
 164 0034 7CE80120 		mtcrf 128,%r7
 165 0038 7A110150 		e_bgt %cr0,.L6
 166              		.loc 1 83 0 is_stmt 1
 167 003c 70FEE403 		e_lis %r7,0xf403
 168 0040 18E6D140 		e_ori %r6,%r7,16384
 169 0044 C076     		se_lwz %r7,0(%r6)
 170 0046 4805     		se_li %r5,0
 171 0048 74A76C24 		e_rlwimi %r7,%r5,13,16,18
GAS LISTING C:\Users\bayra\AppData\Local\Temp\cc44mmEg.s 			page 4


 172 004c D076     		se_stw %r7,0(%r6)
 173              		.loc 1 84 0
 174 004e 70FEE403 		e_lis %r7,0xf403
 175 0052 18E6D140 		e_ori %r6,%r7,16384
 176 0056 C076     		se_lwz %r7,0(%r6)
 177 0058 4815     		se_li %r5,1
 178 005a 74A707FE 		e_rlwimi %r7,%r5,0,31,31
 179 005e D076     		se_stw %r7,0(%r6)
 180              		.loc 1 85 0
 181 0060 70FEE403 		e_lis %r7,0xf403
 182 0064 18E6D140 		e_ori %r6,%r7,16384
 183 0068 C176     		se_lwz %r7,4(%r6)
 184 006a 4815     		se_li %r5,1
 185 006c 74A707FE 		e_rlwimi %r7,%r5,0,31,31
 186 0070 D176     		se_stw %r7,4(%r6)
 187              		.loc 1 86 0
 188 0072 C261     		se_lwz %r6,8(%r1)
 189 0074 70E0E1C9 		e_lis %r7,0x1c9
 190 0078 70F8C380 		e_or2i %r7,50048
 191 007c 7F863840 		cmpl %cr7,%r6,%r7
 192 0080 7CE00026 		mfcr %r7
 193 0084 74E7E007 		e_rlwinm %r7,%r7,28,0xf0000000
 194 0088 7CE80120 		mtcrf 128,%r7
 195 008c 7A11001A 		e_bgt %cr0,.L8
 196              		.loc 1 88 0
 197 0090 70FEE403 		e_lis %r7,0xf403
 198 0094 18E6D140 		e_ori %r6,%r7,16384
 199 0098 C076     		se_lwz %r7,0(%r6)
 200 009a 4805     		se_li %r5,0
 201 009c 74A744EE 		e_rlwimi %r7,%r5,8,19,23
 202 00a0 D076     		se_stw %r7,0(%r6)
 203 00a2 780000E6 		e_b .L6
 204              	.L8:
 205              		.loc 1 89 0
 206 00a6 C261     		se_lwz %r6,8(%r1)
 207 00a8 70E0E393 		e_lis %r7,0x393
 208 00ac 18E7D187 		e_ori %r7,%r7,34560
 209 00b0 7F863840 		cmpl %cr7,%r6,%r7
 210 00b4 7CE00026 		mfcr %r7
 211 00b8 74E7E007 		e_rlwinm %r7,%r7,28,0xf0000000
 212 00bc 7CE80120 		mtcrf 128,%r7
 213 00c0 7A11001A 		e_bgt %cr0,.L9
 214              		.loc 1 91 0
 215 00c4 70FEE403 		e_lis %r7,0xf403
 216 00c8 18E6D140 		e_ori %r6,%r7,16384
 217 00cc C076     		se_lwz %r7,0(%r6)
 218 00ce 4815     		se_li %r5,1
 219 00d0 74A744EE 		e_rlwimi %r7,%r5,8,19,23
 220 00d4 D076     		se_stw %r7,0(%r6)
 221 00d6 780000B2 		e_b .L6
 222              	.L9:
 223              		.loc 1 92 0
 224 00da C261     		se_lwz %r6,8(%r1)
 225 00dc 70E0E55D 		e_lis %r7,0x55d
 226 00e0 70E9C280 		e_or2i %r7,19072
 227 00e4 7F863840 		cmpl %cr7,%r6,%r7
 228 00e8 7CE00026 		mfcr %r7
GAS LISTING C:\Users\bayra\AppData\Local\Temp\cc44mmEg.s 			page 5


 229 00ec 74E7E007 		e_rlwinm %r7,%r7,28,0xf0000000
 230 00f0 7CE80120 		mtcrf 128,%r7
 231 00f4 7A11001A 		e_bgt %cr0,.L10
 232              		.loc 1 94 0
 233 00f8 70FEE403 		e_lis %r7,0xf403
 234 00fc 18E6D140 		e_ori %r6,%r7,16384
 235 0100 C076     		se_lwz %r7,0(%r6)
 236 0102 4825     		se_li %r5,2
 237 0104 74A744EE 		e_rlwimi %r7,%r5,8,19,23
 238 0108 D076     		se_stw %r7,0(%r6)
 239 010a 7800007E 		e_b .L6
 240              	.L10:
 241              		.loc 1 95 0
 242 010e C261     		se_lwz %r6,8(%r1)
 243 0110 70E0E727 		e_lis %r7,0x727
 244 0114 18E7D10E 		e_ori %r7,%r7,3584
 245 0118 7F863840 		cmpl %cr7,%r6,%r7
 246 011c 7CE00026 		mfcr %r7
 247 0120 74E7E007 		e_rlwinm %r7,%r7,28,0xf0000000
 248 0124 7CE80120 		mtcrf 128,%r7
 249 0128 7A11001A 		e_bgt %cr0,.L11
 250              		.loc 1 97 0
 251 012c 70FEE403 		e_lis %r7,0xf403
 252 0130 18E6D140 		e_ori %r6,%r7,16384
 253 0134 C076     		se_lwz %r7,0(%r6)
 254 0136 4835     		se_li %r5,3
 255 0138 74A744EE 		e_rlwimi %r7,%r5,8,19,23
 256 013c D076     		se_stw %r7,0(%r6)
 257 013e 7800004A 		e_b .L6
 258              	.L11:
 259              		.loc 1 98 0
 260 0142 C261     		se_lwz %r6,8(%r1)
 261 0144 70E1E0F0 		e_lis %r7,0x8f0
 262 0148 70FAC180 		e_or2i %r7,53632
 263 014c 7F863840 		cmpl %cr7,%r6,%r7
 264 0150 7CE00026 		mfcr %r7
 265 0154 74E7E007 		e_rlwinm %r7,%r7,28,0xf0000000
 266 0158 7CE80120 		mtcrf 128,%r7
 267 015c 7A11001A 		e_bgt %cr0,.L12
 268              		.loc 1 100 0
 269 0160 70FEE403 		e_lis %r7,0xf403
 270 0164 18E6D140 		e_ori %r6,%r7,16384
 271 0168 C076     		se_lwz %r7,0(%r6)
 272 016a 4845     		se_li %r5,4
 273 016c 74A744EE 		e_rlwimi %r7,%r5,8,19,23
 274 0170 D076     		se_stw %r7,0(%r6)
 275 0172 78000016 		e_b .L6
 276              	.L12:
 277              		.loc 1 103 0
 278 0176 70FEE403 		e_lis %r7,0xf403
 279 017a 18E6D140 		e_ori %r6,%r7,16384
 280 017e C076     		se_lwz %r7,0(%r6)
 281 0180 4855     		se_li %r5,5
 282 0182 74A744EE 		e_rlwimi %r7,%r5,8,19,23
 283 0186 D076     		se_stw %r7,0(%r6)
 284              	.L6:
 285              		.loc 1 106 0
GAS LISTING C:\Users\bayra\AppData\Local\Temp\cc44mmEg.s 			page 6


 286 0188 20F1     		se_addi %r1,16
 287              	.LCFI1:
 288              		.cfi_def_cfa_offset 0
 289 018a 0004     		se_blr
 290              		.cfi_endproc
 291              	.LFE3:
 292              		.size	SPCSetPFlashController, .-SPCSetPFlashController
 293              		.section	.text.SPCSetPRamController,"axv",@progbits
 294              		.align 1
 295              		.p2align 4,,15
 296              		.type	SPCSetPRamController, @function
 297              	SPCSetPRamController:
 298              	.LFB4:
 299              		.loc 1 115 0
 300              		.cfi_startproc
 301 0000 182106F0 		e_stwu %r1,-16(%r1)
 302              	.LCFI2:
 303              		.cfi_def_cfa_offset 16
 304 0004 D231     		se_stw %r3,8(%r1)
 305              		.loc 1 117 0
 306 0006 C271     		se_lwz %r7,8(%r1)
 307 0008 2A07     		se_cmpi %r7,0
 308 000a 7F800020 		e_mcrf %cr7,%cr0
 309 000e 7CE00026 		mfcr %r7
 310 0012 74E7E007 		e_rlwinm %r7,%r7,28,0xf0000000
 311 0016 7CE80120 		mtcrf 128,%r7
 312 001a 7A1200A4 		e_beq %cr0,.L13
 313              		.loc 1 117 0 is_stmt 0 discriminator 1
 314 001e C261     		se_lwz %r6,8(%r1)
 315 0020 70E1E2BA 		e_lis %r7,0xaba
 316 0024 18E7D195 		e_ori %r7,%r7,38144
 317 0028 7F863840 		cmpl %cr7,%r6,%r7
 318 002c 7CE00026 		mfcr %r7
 319 0030 74E7E007 		e_rlwinm %r7,%r7,28,0xf0000000
 320 0034 7CE80120 		mtcrf 128,%r7
 321 0038 7A110086 		e_bgt %cr0,.L13
 322              		.loc 1 118 0 is_stmt 1
 323 003c C271     		se_lwz %r7,8(%r1)
 324 003e 2A07     		se_cmpi %r7,0
 325 0040 7F800020 		e_mcrf %cr7,%cr0
 326 0044 7CE00026 		mfcr %r7
 327 0048 74E7E007 		e_rlwinm %r7,%r7,28,0xf0000000
 328 004c 7CE80120 		mtcrf 128,%r7
 329 0050 7A12004A 		e_beq %cr0,.L15
 330              		.loc 1 118 0 is_stmt 0 discriminator 1
 331 0054 C261     		se_lwz %r6,8(%r1)
 332 0056 70E0E727 		e_lis %r7,0x727
 333 005a 18E7D10E 		e_ori %r7,%r7,3584
 334 005e 7F863840 		cmpl %cr7,%r6,%r7
 335 0062 7CE00026 		mfcr %r7
 336 0066 74E7E007 		e_rlwinm %r7,%r7,28,0xf0000000
 337 006a 7CE80120 		mtcrf 128,%r7
 338 006e 7A11002C 		e_bgt %cr0,.L15
 339              		.loc 1 120 0 is_stmt 1
 340 0072 70FEE40A 		e_lis %r7,0xf40a
 341 0076 18E6D180 		e_ori %r6,%r7,32768
 342 007a C076     		se_lwz %r7,0(%r6)
GAS LISTING C:\Users\bayra\AppData\Local\Temp\cc44mmEg.s 			page 7


 343 007c 4805     		se_li %r5,0
 344 007e 74A707FE 		e_rlwimi %r7,%r5,0,31,31
 345 0082 D076     		se_stw %r7,0(%r6)
 346              		.loc 1 121 0
 347 0084 70FEE40A 		e_lis %r7,0xf40a
 348 0088 18E6D1C0 		e_ori %r6,%r7,49152
 349 008c C076     		se_lwz %r7,0(%r6)
 350 008e 4805     		se_li %r5,0
 351 0090 74A707FE 		e_rlwimi %r7,%r5,0,31,31
 352 0094 D076     		se_stw %r7,0(%r6)
 353 0096 78000028 		e_b .L13
 354              	.L15:
 355              		.loc 1 124 0
 356 009a 70FEE40A 		e_lis %r7,0xf40a
 357 009e 18E6D180 		e_ori %r6,%r7,32768
 358 00a2 C076     		se_lwz %r7,0(%r6)
 359 00a4 4815     		se_li %r5,1
 360 00a6 74A707FE 		e_rlwimi %r7,%r5,0,31,31
 361 00aa D076     		se_stw %r7,0(%r6)
 362              		.loc 1 125 0
 363 00ac 70FEE40A 		e_lis %r7,0xf40a
 364 00b0 18E6D1C0 		e_ori %r6,%r7,49152
 365 00b4 C076     		se_lwz %r7,0(%r6)
 366 00b6 4815     		se_li %r5,1
 367 00b8 74A707FE 		e_rlwimi %r7,%r5,0,31,31
 368 00bc D076     		se_stw %r7,0(%r6)
 369              	.L13:
 370              		.loc 1 128 0
 371 00be 20F1     		se_addi %r1,16
 372              	.LCFI3:
 373              		.cfi_def_cfa_offset 0
 374 00c0 0004     		se_blr
 375              		.cfi_endproc
 376              	.LFE4:
 377              		.size	SPCSetPRamController, .-SPCSetPRamController
 378              		.section	.text.clockInit,"axv",@progbits
 379              		.align 1
 380              		.p2align 4,,15
 381              		.globl clockInit
 382              		.type	clockInit, @function
 383              	clockInit:
 384              	.LFB5:
 385              		.loc 1 143 0
 386              		.cfi_startproc
 387 0000 182106F8 		e_stwu %r1,-8(%r1)
 388              	.LCFI4:
 389              		.cfi_def_cfa_offset 8
 390 0004 0080     		se_mflr %r0
 391 0006 D301     		se_stw %r0,12(%r1)
 392              		.cfi_offset 65, 4
 393              		.loc 1 146 0
 394 0008 4843     		se_li %r3,4
 395 000a 78000001 		e_bl SPCSetRunMode
 396 000e 0137     		se_mr %r7,%r3
 397 0010 2207     		se_cmpli %r7,1
 398 0012 7F800020 		e_mcrf %cr7,%cr0
 399 0016 7CE00026 		mfcr %r7
GAS LISTING C:\Users\bayra\AppData\Local\Temp\cc44mmEg.s 			page 8


 400 001a 74E7E007 		e_rlwinm %r7,%r7,28,0xf0000000
 401 001e 7CE80120 		mtcrf 128,%r7
 402 0022 7A020008 		e_bne %cr0,.L16
 403              		.loc 1 147 0
 404 0026 78000001 		e_bl irqSysHalt
 405              	.L16:
 406              		.loc 1 149 0
 407 002a C301     		se_lwz %r0,12(%r1)
 408 002c 0090     		se_mtlr %r0
 409 002e 2071     		se_addi %r1,8
 410              	.LCFI5:
 411              		.cfi_def_cfa_offset 0
 412 0030 0004     		se_blr
 413              		.cfi_endproc
 414              	.LFE5:
 415              		.size	clockInit, .-clockInit
 416              		.section	.text.spc_clock_init,"axv",@progbits
 417              		.align 1
 418              		.p2align 4,,15
 419              		.globl spc_clock_init
 420              		.type	spc_clock_init, @function
 421              	spc_clock_init:
 422              	.LFB6:
 423              		.loc 1 158 0
 424              		.cfi_startproc
 425 0000 182106F8 		e_stwu %r1,-8(%r1)
 426              	.LCFI6:
 427              		.cfi_def_cfa_offset 8
 428 0004 0080     		se_mflr %r0
 429 0006 D301     		se_stw %r0,12(%r1)
 430              		.cfi_offset 65, 4
 431              		.loc 1 161 0
 432 0008 4400     		se_nop
 433              	.L19:
 434              		.loc 1 161 0 is_stmt 0 discriminator 1
 435 000a 70FEE7FB 		e_lis %r7,0xf7fb
 436 000e 6507     		se_bseti %r7,16
 437 0010 C077     		se_lwz %r7,0(%r7)
 438 0012 6847     		se_srwi %r7,4
 439 0014 2E17     		se_andi %r7,1
 440 0016 00C7     		se_extzb %r7
 441 0018 2A07     		se_cmpi %r7,0
 442 001a 7F800020 		e_mcrf %cr7,%cr0
 443 001e 7CE00026 		mfcr %r7
 444 0022 74E7E007 		e_rlwinm %r7,%r7,28,0xf0000000
 445 0026 7CE80120 		mtcrf 128,%r7
 446 002a 7A12FFE0 		e_beq %cr0,.L19
 447              		.loc 1 166 0 is_stmt 1
 448 002e 70FEE7FF 		e_lis %r7,0xf7ff
 449 0032 6507     		se_bseti %r7,16
 450 0034 4836     		se_li %r6,3
 451 0036 B367     		se_sth %r6,6(%r7)
 452              		.loc 1 171 0
 453 0038 78000001 		e_bl spc_clear_fccu_rgm
 454              		.loc 1 176 0
 455 003c 70FEE7FB 		e_lis %r7,0xf7fb
 456 0040 6507     		se_bseti %r7,16
GAS LISTING C:\Users\bayra\AppData\Local\Temp\cc44mmEg.s 			page 9


 457 0042 C077     		se_lwz %r7,0(%r7)
 458 0044 69C7     		se_srwi %r7,28
 459 0046 00C7     		se_extzb %r7
 460 0048 2227     		se_cmpli %r7,3
 461 004a 7F800020 		e_mcrf %cr7,%cr0
 462 004e 7CE00026 		mfcr %r7
 463 0052 74E7E007 		e_rlwinm %r7,%r7,28,0xf0000000
 464 0056 7CE80120 		mtcrf 128,%r7
 465 005a 7A120008 		e_beq %cr0,.L20
 466              		.loc 1 177 0
 467 005e 78000001 		e_bl irqSysHalt
 468              	.L20:
 469              		.loc 1 190 0
 470 0062 70FEE7FB 		e_lis %r7,0xf7fb
 471 0066 18E6D102 		e_ori %r6,%r7,512
 472 006a C076     		se_lwz %r7,0(%r6)
 473 006c 4835     		se_li %r5,3
 474 006e 74A70F7C 		e_rlwimi %r7,%r5,1,29,30
 475 0072 D076     		se_stw %r7,0(%r6)
 476              		.loc 1 199 0
 477 0074 70FEE7FB 		e_lis %r7,0xf7fb
 478 0078 18E7D106 		e_ori %r7,%r7,1536
 479 007c 6206     		se_bgeni %r6,0
 480 007e 54C701E8 		e_stw %r6,488(%r7)
 481              		.loc 1 200 0
 482 0082 70FEE7FB 		e_lis %r7,0xf7fb
 483 0086 18E7D106 		e_ori %r7,%r7,1536
 484 008a 70D0E001 		e_lis %r6,0x8001
 485 008e 54C701EC 		e_stw %r6,492(%r7)
 486              		.loc 1 201 0
 487 0092 70FEE7FB 		e_lis %r7,0xf7fb
 488 0096 18E7D106 		e_ori %r7,%r7,1536
 489 009a 70D0E003 		e_lis %r6,0x8003
 490 009e 54C701F0 		e_stw %r6,496(%r7)
 491              		.loc 1 202 0
 492 00a2 70FEE7FB 		e_lis %r7,0xf7fb
 493 00a6 18E7D106 		e_ori %r7,%r7,1536
 494 00aa 6206     		se_bgeni %r6,0
 495 00ac 54C701F4 		e_stw %r6,500(%r7)
 496              		.loc 1 203 0
 497 00b0 70FEE7FB 		e_lis %r7,0xf7fb
 498 00b4 18E7D106 		e_ori %r7,%r7,1536
 499 00b8 70D0E003 		e_lis %r6,0x8003
 500 00bc 54C701F8 		e_stw %r6,504(%r7)
 501              		.loc 1 206 0
 502 00c0 70FEE7FB 		e_lis %r7,0xf7fb
 503 00c4 18E7D106 		e_ori %r7,%r7,1536
 504 00c8 70D0E018 		e_lis %r6,0x8018
 505 00cc 54C70208 		e_stw %r6,520(%r7)
 506              		.loc 1 207 0
 507 00d0 70FEE7FB 		e_lis %r7,0xf7fb
 508 00d4 18E7D106 		e_ori %r7,%r7,1536
 509 00d8 70D0E003 		e_lis %r6,0x8003
 510 00dc 54C7020C 		e_stw %r6,524(%r7)
 511              		.loc 1 208 0
 512 00e0 70FEE7FB 		e_lis %r7,0xf7fb
 513 00e4 18E7D106 		e_ori %r7,%r7,1536
GAS LISTING C:\Users\bayra\AppData\Local\Temp\cc44mmEg.s 			page 10


 514 00e8 70D0E009 		e_lis %r6,0x8009
 515 00ec 54C70248 		e_stw %r6,584(%r7)
 516              		.loc 1 209 0
 517 00f0 70FEE7FB 		e_lis %r7,0xf7fb
 518 00f4 18E7D106 		e_ori %r7,%r7,1536
 519 00f8 4806     		se_li %r6,0
 520 00fa 54C702C8 		e_stw %r6,712(%r7)
 521              		.loc 1 210 0
 522 00fe 70FEE7FB 		e_lis %r7,0xf7fb
 523 0102 18E7D106 		e_ori %r7,%r7,1536
 524 0106 70D0E004 		e_lis %r6,0x8004
 525 010a 54C70308 		e_stw %r6,776(%r7)
 526              		.loc 1 211 0
 527 010e 70FEE7FB 		e_lis %r7,0xf7fb
 528 0112 18E7D106 		e_ori %r7,%r7,1536
 529 0116 70D0E004 		e_lis %r6,0x8004
 530 011a 54C70328 		e_stw %r6,808(%r7)
 531              		.loc 1 212 0
 532 011e 70FEE7FB 		e_lis %r7,0xf7fb
 533 0122 18E7D106 		e_ori %r7,%r7,1536
 534 0126 70D0E004 		e_lis %r6,0x8004
 535 012a 54C70368 		e_stw %r6,872(%r7)
 536              		.loc 1 213 0
 537 012e 70FEE7FB 		e_lis %r7,0xf7fb
 538 0132 18E7D106 		e_ori %r7,%r7,1536
 539 0136 70D0E003 		e_lis %r6,0x8003
 540 013a 54C70388 		e_stw %r6,904(%r7)
 541              		.loc 1 214 0
 542 013e 70FEE7FB 		e_lis %r7,0xf7fb
 543 0142 18E7D106 		e_ori %r7,%r7,1536
 544 0146 70D0E003 		e_lis %r6,0x8003
 545 014a 54C7038C 		e_stw %r6,908(%r7)
 546              		.loc 1 215 0
 547 014e 70FEE7FB 		e_lis %r7,0xf7fb
 548 0152 18E7D106 		e_ori %r7,%r7,1536
 549 0156 70D0E001 		e_lis %r6,0x8001
 550 015a 54C70390 		e_stw %r6,912(%r7)
 551              		.loc 1 216 0
 552 015e 70FEE7FB 		e_lis %r7,0xf7fb
 553 0162 18E7D106 		e_ori %r7,%r7,1536
 554 0166 70D0E001 		e_lis %r6,0x8001
 555 016a 54C70394 		e_stw %r6,916(%r7)
 556              		.loc 1 217 0
 557 016e 70FEE7FB 		e_lis %r7,0xf7fb
 558 0172 18E7D106 		e_ori %r7,%r7,1536
 559 0176 70D0E001 		e_lis %r6,0x8001
 560 017a 54C70398 		e_stw %r6,920(%r7)
 561              		.loc 1 220 0
 562 017e 70FEE7FB 		e_lis %r7,0xf7fb
 563 0182 18E7D106 		e_ori %r7,%r7,1536
 564 0186 6266     		se_bgeni %r6,6
 565 0188 54C70200 		e_stw %r6,512(%r7)
 566              		.loc 1 221 0
 567 018c 70FEE7FB 		e_lis %r7,0xf7fb
 568 0190 18E7D106 		e_ori %r7,%r7,1536
 569 0194 6276     		se_bgeni %r6,7
 570 0196 54C70260 		e_stw %r6,608(%r7)
GAS LISTING C:\Users\bayra\AppData\Local\Temp\cc44mmEg.s 			page 11


 571              		.loc 1 222 0
 572 019a 70FEE7FB 		e_lis %r7,0xf7fb
 573 019e 18E7D106 		e_ori %r7,%r7,1536
 574 01a2 6276     		se_bgeni %r6,7
 575 01a4 54C70280 		e_stw %r6,640(%r7)
 576              		.loc 1 223 0
 577 01a8 70FEE7F9 		e_lis %r7,0xf7f9
 578 01ac 18E6D140 		e_ori %r6,%r7,16384
 579 01b0 C176     		se_lwz %r7,4(%r6)
 580 01b2 4805     		se_li %r5,0
 581 01b4 74A764A6 		e_rlwimi %r7,%r5,12,18,19
 582 01b8 D176     		se_stw %r7,4(%r6)
 583              		.loc 1 224 0
 584 01ba 70FEE7FB 		e_lis %r7,0xf7fb
 585 01be 18E7D106 		e_ori %r7,%r7,1536
 586 01c2 6266     		se_bgeni %r6,6
 587 01c4 54C702C0 		e_stw %r6,704(%r7)
 588              		.loc 1 225 0
 589 01c8 70FEE7FB 		e_lis %r7,0xf7fb
 590 01cc 18E7D106 		e_ori %r7,%r7,1536
 591 01d0 6276     		se_bgeni %r6,7
 592 01d2 54C70300 		e_stw %r6,768(%r7)
 593              		.loc 1 226 0
 594 01d6 70FEE7FB 		e_lis %r7,0xf7fb
 595 01da 18E7D106 		e_ori %r7,%r7,1536
 596 01de 6276     		se_bgeni %r6,7
 597 01e0 54C70320 		e_stw %r6,800(%r7)
 598              		.loc 1 227 0
 599 01e4 70FEE7FB 		e_lis %r7,0xf7fb
 600 01e8 18E7D106 		e_ori %r7,%r7,1536
 601 01ec 6276     		se_bgeni %r6,7
 602 01ee 54C70360 		e_stw %r6,864(%r7)
 603              		.loc 1 228 0
 604 01f2 70FEE7FB 		e_lis %r7,0xf7fb
 605 01f6 18E7D106 		e_ori %r7,%r7,1536
 606 01fa 6266     		se_bgeni %r6,6
 607 01fc 54C70380 		e_stw %r6,896(%r7)
 608              		.loc 1 233 0
 609 0200 70FEE7FB 		e_lis %r7,0xf7fb
 610 0204 6507     		se_bseti %r7,16
 611 0206 70C0E013 		e_lis %r6,0x13
 612 020a 18C6D030 		e_ori %r6,%r6,48
 613 020e DB67     		se_stw %r6,44(%r7)
 614              		.loc 1 236 0
 615 0210 4833     		se_li %r3,3
 616 0212 78000001 		e_bl SPCSetRunMode
 617 0216 0137     		se_mr %r7,%r3
 618 0218 2207     		se_cmpli %r7,1
 619 021a 7F800020 		e_mcrf %cr7,%cr0
 620 021e 7CE00026 		mfcr %r7
 621 0222 74E7E007 		e_rlwinm %r7,%r7,28,0xf0000000
 622 0226 7CE80120 		mtcrf 128,%r7
 623 022a 7A020008 		e_bne %cr0,.L21
 624              		.loc 1 237 0
 625 022e 78000001 		e_bl irqSysHalt
 626              	.L21:
 627              		.loc 1 242 0
GAS LISTING C:\Users\bayra\AppData\Local\Temp\cc44mmEg.s 			page 12


 628 0232 70FEE7FB 		e_lis %r7,0xf7fb
 629 0236 6577     		se_bseti %r7,23
 630 0238 4806     		se_li %r6,0
 631 023a D067     		se_stw %r6,0(%r7)
 632              		.loc 1 243 0
 633 023c 70FEE7FB 		e_lis %r7,0xf7fb
 634 0240 6577     		se_bseti %r7,23
 635 0242 70CAE004 		e_lis %r6,0x5004
 636 0246 70C2C010 		e_or2i %r6,4112
 637 024a D267     		se_stw %r6,8(%r7)
 638              		.loc 1 247 0
 639 024c 70FEE7FB 		e_lis %r7,0xf7fb
 640 0250 6577     		se_bseti %r7,23
 641 0252 4806     		se_li %r6,0
 642 0254 D867     		se_stw %r6,32(%r7)
 643              		.loc 1 248 0
 644 0256 70FEE7FB 		e_lis %r7,0xf7fb
 645 025a 6577     		se_bseti %r7,23
 646 025c 70C01012 		e_li %r6,131090
 647 0260 DA67     		se_stw %r6,40(%r7)
 648              		.loc 1 254 0
 649 0262 70FEE7FB 		e_lis %r7,0xf7fb
 650 0266 6507     		se_bseti %r7,16
 651 0268 4886     		se_li %r6,8
 652 026a D367     		se_stw %r6,12(%r7)
 653              		.loc 1 255 0
 654 026c 70FEE7FB 		e_lis %r7,0xf7fb
 655 0270 6507     		se_bseti %r7,16
 656 0272 70C405FD 		e_li %r6,9725
 657 0276 D267     		se_stw %r6,8(%r7)
 658              		.loc 1 256 0
 659 0278 70FEE7FB 		e_lis %r7,0xf7fb
 660 027c 6507     		se_bseti %r7,16
 661 027e 70C0E093 		e_lis %r6,0x93
 662 0282 65B6     		se_bseti %r6,27
 663 0284 DA67     		se_stw %r6,40(%r7)
 664              		.loc 1 257 0
 665 0286 70FEE7FB 		e_lis %r7,0xf7fb
 666 028a 6507     		se_bseti %r7,16
 667 028c 70C0E013 		e_lis %r6,0x13
 668 0290 18C6D0F4 		e_ori %r6,%r6,244
 669 0294 DB67     		se_stw %r6,44(%r7)
 670              		.loc 1 258 0
 671 0296 70FEE7FB 		e_lis %r7,0xf7fb
 672 029a 6507     		se_bseti %r7,16
 673 029c 70C0E013 		e_lis %r6,0x13
 674 02a0 18C6D0F4 		e_ori %r6,%r6,244
 675 02a4 DC67     		se_stw %r6,48(%r7)
 676              		.loc 1 259 0
 677 02a6 70FEE7FB 		e_lis %r7,0xf7fb
 678 02aa 6507     		se_bseti %r7,16
 679 02ac 70C0E013 		e_lis %r6,0x13
 680 02b0 65B6     		se_bseti %r6,27
 681 02b2 DD67     		se_stw %r6,52(%r7)
 682              		.loc 1 260 0
 683 02b4 70FEE7FB 		e_lis %r7,0xf7fb
 684 02b8 6507     		se_bseti %r7,16
GAS LISTING C:\Users\bayra\AppData\Local\Temp\cc44mmEg.s 			page 13


 685 02ba 70C0E013 		e_lis %r6,0x13
 686 02be 65B6     		se_bseti %r6,27
 687 02c0 DE67     		se_stw %r6,56(%r7)
 688              		.loc 1 261 0
 689 02c2 70FEE7FB 		e_lis %r7,0xf7fb
 690 02c6 6507     		se_bseti %r7,16
 691 02c8 70C0E013 		e_lis %r6,0x13
 692 02cc 65B6     		se_bseti %r6,27
 693 02ce DF67     		se_stw %r6,60(%r7)
 694              		.loc 1 262 0
 695 02d0 70FEE7FB 		e_lis %r7,0xf7fb
 696 02d4 6507     		se_bseti %r7,16
 697 02d6 70C0E012 		e_lis %r6,0x12
 698 02da 65B6     		se_bseti %r6,27
 699 02dc 54C70040 		e_stw %r6,64(%r7)
 700              		.loc 1 263 0
 701 02e0 70FEE7FB 		e_lis %r7,0xf7fb
 702 02e4 6507     		se_bseti %r7,16
 703 02e6 70C0E011 		e_lis %r6,0x11
 704 02ea 65B6     		se_bseti %r6,27
 705 02ec 54C70048 		e_stw %r6,72(%r7)
 706              		.loc 1 264 0
 707 02f0 70FEE7FB 		e_lis %r7,0xf7fb
 708 02f4 6507     		se_bseti %r7,16
 709 02f6 70C0E081 		e_lis %r6,0x81
 710 02fa 18C6D01F 		e_ori %r6,%r6,31
 711 02fe 54C70054 		e_stw %r6,84(%r7)
 712              		.loc 1 265 0
 713 0302 70FEE7FB 		e_lis %r7,0xf7fb
 714 0306 6507     		se_bseti %r7,16
 715 0308 C377     		se_lwz %r7,12(%r7)
 716 030a 6837     		se_srwi %r7,3
 717 030c 2E17     		se_andi %r7,1
 718 030e 00C7     		se_extzb %r7
 719 0310 2207     		se_cmpli %r7,1
 720 0312 7F800020 		e_mcrf %cr7,%cr0
 721 0316 7CE00026 		mfcr %r7
 722 031a 74E7E007 		e_rlwinm %r7,%r7,28,0xf0000000
 723 031e 7CE80120 		mtcrf 128,%r7
 724 0322 7A020008 		e_bne %cr0,.L22
 725              		.loc 1 267 0
 726 0326 78000001 		e_bl irqSysHalt
 727              	.L22:
 728              		.loc 1 271 0
 729 032a 70FEE7FB 		e_lis %r7,0xf7fb
 730 032e 6507     		se_bseti %r7,16
 731 0330 4806     		se_li %r6,0
 732 0332 54C70080 		e_stw %r6,128(%r7)
 733              		.loc 1 272 0
 734 0336 70FEE7FB 		e_lis %r7,0xf7fb
 735 033a 6507     		se_bseti %r7,16
 736 033c 70C000FC 		e_li %r6,252
 737 0340 54C70084 		e_stw %r6,132(%r7)
 738              		.loc 1 273 0
 739 0344 70FEE7FB 		e_lis %r7,0xf7fb
 740 0348 6507     		se_bseti %r7,16
 741 034a 70C000F8 		e_li %r6,248
GAS LISTING C:\Users\bayra\AppData\Local\Temp\cc44mmEg.s 			page 14


 742 034e 54C70088 		e_stw %r6,136(%r7)
 743              		.loc 1 274 0
 744 0352 70FEE7FB 		e_lis %r7,0xf7fb
 745 0356 6507     		se_bseti %r7,16
 746 0358 4806     		se_li %r6,0
 747 035a 54C7008C 		e_stw %r6,140(%r7)
 748              		.loc 1 275 0
 749 035e 70FEE7FB 		e_lis %r7,0xf7fb
 750 0362 6507     		se_bseti %r7,16
 751 0364 4806     		se_li %r6,0
 752 0366 54C70090 		e_stw %r6,144(%r7)
 753              		.loc 1 276 0
 754 036a 70FEE7FB 		e_lis %r7,0xf7fb
 755 036e 6507     		se_bseti %r7,16
 756 0370 4806     		se_li %r6,0
 757 0372 54C70094 		e_stw %r6,148(%r7)
 758              		.loc 1 277 0
 759 0376 70FEE7FB 		e_lis %r7,0xf7fb
 760 037a 6507     		se_bseti %r7,16
 761 037c 4806     		se_li %r6,0
 762 037e 54C70098 		e_stw %r6,152(%r7)
 763              		.loc 1 278 0
 764 0382 70FEE7FB 		e_lis %r7,0xf7fb
 765 0386 6507     		se_bseti %r7,16
 766 0388 4806     		se_li %r6,0
 767 038a 54C7009C 		e_stw %r6,156(%r7)
 768              		.loc 1 279 0
 769 038e 70FEE7FB 		e_lis %r7,0xf7fb
 770 0392 6507     		se_bseti %r7,16
 771 0394 4806     		se_li %r6,0
 772 0396 54C700A0 		e_stw %r6,160(%r7)
 773              		.loc 1 280 0
 774 039a 70FEE7FB 		e_lis %r7,0xf7fb
 775 039e 6507     		se_bseti %r7,16
 776 03a0 70C40500 		e_li %r6,9472
 777 03a4 54C700A4 		e_stw %r6,164(%r7)
 778              		.loc 1 281 0
 779 03a8 70FEE7FB 		e_lis %r7,0xf7fb
 780 03ac 6507     		se_bseti %r7,16
 781 03ae 6376     		se_bgeni %r6,23
 782 03b0 54C700A8 		e_stw %r6,168(%r7)
 783              		.loc 1 282 0
 784 03b4 70FEE7FB 		e_lis %r7,0xf7fb
 785 03b8 6507     		se_bseti %r7,16
 786 03ba 6356     		se_bgeni %r6,21
 787 03bc 54C700AC 		e_stw %r6,172(%r7)
 788              		.loc 1 283 0
 789 03c0 70FEE7FB 		e_lis %r7,0xf7fb
 790 03c4 6507     		se_bseti %r7,16
 791 03c6 4806     		se_li %r6,0
 792 03c8 54C700B0 		e_stw %r6,176(%r7)
 793              		.loc 1 284 0
 794 03cc 70FEE7FB 		e_lis %r7,0xf7fb
 795 03d0 6507     		se_bseti %r7,16
 796 03d2 4806     		se_li %r6,0
 797 03d4 54C700B4 		e_stw %r6,180(%r7)
 798              		.loc 1 285 0
GAS LISTING C:\Users\bayra\AppData\Local\Temp\cc44mmEg.s 			page 15


 799 03d8 70FEE7FB 		e_lis %r7,0xf7fb
 800 03dc 6507     		se_bseti %r7,16
 801 03de 4806     		se_li %r6,0
 802 03e0 54C700B8 		e_stw %r6,184(%r7)
 803              		.loc 1 286 0
 804 03e4 70FEE7FB 		e_lis %r7,0xf7fb
 805 03e8 6507     		se_bseti %r7,16
 806 03ea 4806     		se_li %r6,0
 807 03ec 54C700BC 		e_stw %r6,188(%r7)
 808              		.loc 1 289 0
 809 03f0 70E1E2BA 		e_lis %r7,0xaba
 810 03f4 18E3D195 		e_ori %r3,%r7,38144
 811 03f8 78000001 		e_bl SPCSetPFlashController
 812              		.loc 1 292 0
 813 03fc 70E1E2BA 		e_lis %r7,0xaba
 814 0400 18E3D195 		e_ori %r3,%r7,38144
 815 0404 78000001 		e_bl SPCSetPRamController
 816              		.loc 1 296 0
 817 0408 4833     		se_li %r3,3
 818 040a 78000001 		e_bl SPCSetRunMode
 819 040e 0137     		se_mr %r7,%r3
 820 0410 2207     		se_cmpli %r7,1
 821 0412 7F800020 		e_mcrf %cr7,%cr0
 822 0416 7CE00026 		mfcr %r7
 823 041a 74E7E007 		e_rlwinm %r7,%r7,28,0xf0000000
 824 041e 7CE80120 		mtcrf 128,%r7
 825 0422 7A020008 		e_bne %cr0,.L18
 826              		.loc 1 297 0
 827 0426 78000001 		e_bl irqSysHalt
 828              	.L18:
 829              		.loc 1 301 0
 830 042a C301     		se_lwz %r0,12(%r1)
 831 042c 0090     		se_mtlr %r0
 832 042e 2071     		se_addi %r1,8
 833              	.LCFI7:
 834              		.cfi_def_cfa_offset 0
 835 0430 0004     		se_blr
 836              		.cfi_endproc
 837              	.LFE6:
 838              		.size	spc_clock_init, .-spc_clock_init
 839              		.section	.text.__early_init,"axv",@progbits
 840              		.align 1
 841              		.p2align 4,,15
 842              		.globl __early_init
 843              		.type	__early_init, @function
 844              	__early_init:
 845              	.LFB7:
 846              		.loc 1 310 0
 847              		.cfi_startproc
 848 0000 182106F8 		e_stwu %r1,-8(%r1)
 849              	.LCFI8:
 850              		.cfi_def_cfa_offset 8
 851 0004 0080     		se_mflr %r0
 852 0006 D301     		se_stw %r0,12(%r1)
 853              		.cfi_offset 65, 4
 854              		.loc 1 312 0
 855 0008 78000001 		e_bl spc_clock_init
GAS LISTING C:\Users\bayra\AppData\Local\Temp\cc44mmEg.s 			page 16


 856              		.loc 1 313 0
 857 000c C301     		se_lwz %r0,12(%r1)
 858 000e 0090     		se_mtlr %r0
 859 0010 2071     		se_addi %r1,8
 860              	.LCFI9:
 861              		.cfi_def_cfa_offset 0
 862 0012 0004     		se_blr
 863              		.cfi_endproc
 864              	.LFE7:
 865              		.size	__early_init, .-__early_init
 866              		.section	.text.SPCSetRunMode,"axv",@progbits
 867              		.align 1
 868              		.p2align 4,,15
 869              		.globl SPCSetRunMode
 870              		.type	SPCSetRunMode, @function
 871              	SPCSetRunMode:
 872              	.LFB8:
 873              		.loc 1 324 0
 874              		.cfi_startproc
 875 0000 182106F0 		e_stwu %r1,-16(%r1)
 876              	.LCFI10:
 877              		.cfi_def_cfa_offset 16
 878 0004 0137     		se_mr %r7,%r3
 879 0006 9871     		se_stb %r7,8(%r1)
 880              		.loc 1 327 0
 881 0008 70FEE7FB 		e_lis %r7,0xf7fb
 882 000c 6507     		se_bseti %r7,16
 883 000e 4BF6     		se_li %r6,63
 884 0010 D367     		se_stw %r6,12(%r7)
 885              		.loc 1 330 0
 886 0012 70FEE7FB 		e_lis %r7,0xf7fb
 887 0016 6507     		se_bseti %r7,16
 888 0018 8861     		se_lbz %r6,8(%r1)
 889 001a 00C6     		se_extzb %r6
 890 001c 6DC6     		se_slwi %r6, 28
 891 001e 70CBC2F0 		e_or2i %r6,23280
 892 0022 D167     		se_stw %r6,4(%r7)
 893              		.loc 1 331 0
 894 0024 70FEE7FB 		e_lis %r7,0xf7fb
 895 0028 6507     		se_bseti %r7,16
 896 002a 8861     		se_lbz %r6,8(%r1)
 897 002c 00C6     		se_extzb %r6
 898 002e 6DC6     		se_slwi %r6, 28
 899 0030 70D4C50F 		e_or2i %r6,42255
 900 0034 D167     		se_stw %r6,4(%r7)
 901              		.loc 1 334 0
 902 0036 4400     		se_nop
 903              	.L26:
 904              		.loc 1 334 0 is_stmt 0 discriminator 1
 905 0038 70FEE7FB 		e_lis %r7,0xf7fb
 906 003c 6507     		se_bseti %r7,16
 907 003e C377     		se_lwz %r7,12(%r7)
 908 0040 2A07     		se_cmpi %r7,0
 909 0042 7F800020 		e_mcrf %cr7,%cr0
 910 0046 7CE00026 		mfcr %r7
 911 004a 74E7E007 		e_rlwinm %r7,%r7,28,0xf0000000
 912 004e 7CE80120 		mtcrf 128,%r7
GAS LISTING C:\Users\bayra\AppData\Local\Temp\cc44mmEg.s 			page 17


 913 0052 7A12FFE6 		e_beq %cr0,.L26
 914              		.loc 1 338 0 is_stmt 1
 915 0056 70FEE7FB 		e_lis %r7,0xf7fb
 916 005a 6507     		se_bseti %r7,16
 917 005c C377     		se_lwz %r7,12(%r7)
 918 005e 2E17     		se_andi %r7,1
 919 0060 00C7     		se_extzb %r7
 920 0062 2207     		se_cmpli %r7,1
 921 0064 7F800020 		e_mcrf %cr7,%cr0
 922 0068 7CE00026 		mfcr %r7
 923 006c 74E7E007 		e_rlwinm %r7,%r7,28,0xf0000000
 924 0070 7CE80120 		mtcrf 128,%r7
 925 0074 7A02000A 		e_bne %cr0,.L27
 926              		.loc 1 339 0
 927 0078 4807     		se_li %r7,0
 928 007a 78000006 		e_b .L28
 929              	.L27:
 930              		.loc 1 341 0
 931 007e 4817     		se_li %r7,1
 932              	.L28:
 933              		.loc 1 343 0
 934 0080 0173     		se_mr %r3,%r7
 935 0082 20F1     		se_addi %r1,16
 936              	.LCFI11:
 937              		.cfi_def_cfa_offset 0
 938 0084 0004     		se_blr
 939              		.cfi_endproc
 940              	.LFE8:
 941              		.size	SPCSetRunMode, .-SPCSetRunMode
 942              		.section	.text.SPCSetPeripheralClockMode,"axv",@progbits
 943              		.align 1
 944              		.p2align 4,,15
 945              		.globl SPCSetPeripheralClockMode
 946              		.type	SPCSetPeripheralClockMode, @function
 947              	SPCSetPeripheralClockMode:
 948              	.LFB9:
 949              		.loc 1 353 0
 950              		.cfi_startproc
 951 0000 182106E0 		e_stwu %r1,-32(%r1)
 952              	.LCFI12:
 953              		.cfi_def_cfa_offset 32
 954 0004 0080     		se_mflr %r0
 955 0006 D901     		se_stw %r0,36(%r1)
 956              		.cfi_offset 65, 4
 957 0008 D631     		se_stw %r3,24(%r1)
 958 000a D741     		se_stw %r4,28(%r1)
 959              		.loc 1 356 0
 960 000c 70FEE7FB 		e_lis %r7,0xf7fb
 961 0010 18E5D180 		e_ori %r5,%r7,32768
 962 0014 C771     		se_lwz %r7,28(%r1)
 963 0016 74E6063F 		e_rlwinm %r6,%r7,0,0xff
 964 001a C671     		se_lwz %r7,24(%r1)
 965 001c 7CE53A14 		add %r7,%r5,%r7
 966 0020 18E780C0 		e_addi %r7,%r7,192
 967 0024 9067     		se_stb %r6,0(%r7)
 968              		.loc 1 357 0
 969 0026 70FEE7FB 		e_lis %r7,0xf7fb
GAS LISTING C:\Users\bayra\AppData\Local\Temp\cc44mmEg.s 			page 18


 970 002a 6507     		se_bseti %r7,16
 971 002c C177     		se_lwz %r7,4(%r7)
 972 002e 69C7     		se_srwi %r7,28
 973 0030 00C7     		se_extzb %r7
 974 0032 9871     		se_stb %r7,8(%r1)
 975              		.loc 1 358 0
 976 0034 8871     		se_lbz %r7,8(%r1)
 977 0036 00C7     		se_extzb %r7
 978 0038 0173     		se_mr %r3,%r7
 979 003a 78000001 		e_bl SPCSetRunMode
 980 003e 0137     		se_mr %r7,%r3
 981 0040 2207     		se_cmpli %r7,1
 982 0042 7F800020 		e_mcrf %cr7,%cr0
 983 0046 7CE00026 		mfcr %r7
 984 004a 74E7E007 		e_rlwinm %r7,%r7,28,0xf0000000
 985 004e 7CE80120 		mtcrf 128,%r7
 986 0052 7A020008 		e_bne %cr0,.L29
 987              		.loc 1 359 0
 988 0056 78000001 		e_bl irqSysHalt
 989              	.L29:
 990              		.loc 1 361 0
 991 005a C901     		se_lwz %r0,36(%r1)
 992 005c 0090     		se_mtlr %r0
 993 005e 21F1     		se_addi %r1,32
 994              	.LCFI13:
 995              		.cfi_def_cfa_offset 0
 996 0060 0004     		se_blr
 997              		.cfi_endproc
 998              	.LFE9:
 999              		.size	SPCSetPeripheralClockMode, .-SPCSetPeripheralClockMode
 1000              		.section	.text.SPCGetSystemClock,"axv",@progbits
 1001              		.align 1
 1002              		.p2align 4,,15
 1003              		.globl SPCGetSystemClock
 1004              		.type	SPCGetSystemClock, @function
 1005              	SPCGetSystemClock:
 1006              	.LFB10:
 1007              		.loc 1 369 0
 1008              		.cfi_startproc
 1009 0000 182106E8 		e_stwu %r1,-24(%r1)
 1010              	.LCFI14:
 1011              		.cfi_def_cfa_offset 24
 1012              		.loc 1 373 0
 1013 0004 70FEE7FB 		e_lis %r7,0xf7fb
 1014 0008 18E7D106 		e_ori %r7,%r7,1536
 1015 000c 50E701E8 		e_lwz %r7,488(%r7)
 1016 0010 69F7     		se_srwi %r7,31
 1017 0012 00C7     		se_extzb %r7
 1018 0014 2A07     		se_cmpi %r7,0
 1019 0016 7F800020 		e_mcrf %cr7,%cr0
 1020 001a 7CE00026 		mfcr %r7
 1021 001e 74E7E007 		e_rlwinm %r7,%r7,28,0xf0000000
 1022 0022 7CE80120 		mtcrf 128,%r7
 1023 0026 7A02000C 		e_bne %cr0,.L32
 1024              		.loc 1 374 0
 1025 002a 4817     		se_li %r7,1
 1026 002c D271     		se_stw %r7,8(%r1)
GAS LISTING C:\Users\bayra\AppData\Local\Temp\cc44mmEg.s 			page 19


 1027 002e 7800001C 		e_b .L33
 1028              	.L32:
 1029              		.loc 1 376 0
 1030 0032 70FEE7FB 		e_lis %r7,0xf7fb
 1031 0036 18E7D106 		e_ori %r7,%r7,1536
 1032 003a 50E701E8 		e_lwz %r7,488(%r7)
 1033 003e 6907     		se_srwi %r7,16
 1034 0040 18E7C03F 		e_andi %r7,%r7,63
 1035 0044 00C7     		se_extzb %r7
 1036 0046 2007     		se_addi %r7,1
 1037 0048 D271     		se_stw %r7,8(%r1)
 1038              	.L33:
 1039              		.loc 1 379 0
 1040 004a 70FEE7FB 		e_lis %r7,0xf7fb
 1041 004e 6507     		se_bseti %r7,16
 1042 0050 C077     		se_lwz %r7,0(%r7)
 1043 0052 2EF7     		se_andi %r7,15
 1044 0054 00C7     		se_extzb %r7
 1045 0056 D371     		se_stw %r7,12(%r1)
 1046              		.loc 1 380 0
 1047 0058 C371     		se_lwz %r7,12(%r1)
 1048 005a 2237     		se_cmpli %r7,4
 1049 005c 7F800020 		e_mcrf %cr7,%cr0
 1050 0060 7CE00026 		mfcr %r7
 1051 0064 74E7E007 		e_rlwinm %r7,%r7,28,0xf0000000
 1052 0068 7CE80120 		mtcrf 128,%r7
 1053 006c 7A110070 		e_bgt %cr0,.L34
 1054 0070 C371     		se_lwz %r7,12(%r1)
 1055 0072 7CE61070 		e_slwi %r6,%r7,2
 1056 0076 70E0E000 		e_lis %r7,.L36@ha
 1057 007a 1CE70000 		e_la %r7,.L36@l(%r7)
 1058 007e 7CE63A14 		add %r7,%r6,%r7
 1059 0082 C067     		se_lwz %r6,0(%r7)
 1060 0084 70E0E000 		e_lis %r7,.L36@ha
 1061 0088 1CE70000 		e_la %r7,.L36@l(%r7)
 1062 008c 7CE63A14 		add %r7,%r6,%r7
 1063 0090 00B7     		se_mtctr %r7
 1064 0092 0006     		se_bctr
 1065              		.section	.rodata.SPCGetSystemClock,"a",@progbits
 1066              		.align 2
 1067              		.align 2
 1068              	.L36:
 1069 0000 00000000 		.long .L35-.L36
 1070 0004 00000000 		.long .L37-.L36
 1071 0008 00000000 		.long .L38-.L36
 1072 000c 00000000 		.long .L34-.L36
 1073 0010 00000000 		.long .L39-.L36
 1074              		.section	.text.SPCGetSystemClock
 1075              	.L35:
 1076              		.loc 1 382 0
 1077 0094 70E0E0F4 		e_lis %r7,0xf4
 1078 0098 18E6D124 		e_ori %r6,%r7,9216
 1079 009c C271     		se_lwz %r7,8(%r1)
 1080 009e 7CE63B96 		divwu %r7,%r6,%r7
 1081 00a2 7800003C 		e_b .L40
 1082              	.L37:
 1083              		.loc 1 384 0
GAS LISTING C:\Users\bayra\AppData\Local\Temp\cc44mmEg.s 			page 20


 1084 00a6 70E0E262 		e_lis %r7,0x262
 1085 00aa 18E6D15A 		e_ori %r6,%r7,23040
 1086 00ae C271     		se_lwz %r7,8(%r1)
 1087 00b0 7CE63B96 		divwu %r7,%r6,%r7
 1088 00b4 7800002A 		e_b .L40
 1089              	.L38:
 1090              		.loc 1 386 0
 1091 00b8 70E1E189 		e_lis %r7,0x989
 1092 00bc 18E6D168 		e_ori %r6,%r7,26624
 1093 00c0 C271     		se_lwz %r7,8(%r1)
 1094 00c2 7CE63B96 		divwu %r7,%r6,%r7
 1095 00c6 78000018 		e_b .L40
 1096              	.L39:
 1097              		.loc 1 388 0
 1098 00ca 70E1E2BA 		e_lis %r7,0xaba
 1099 00ce 18E6D195 		e_ori %r6,%r7,38144
 1100 00d2 C271     		se_lwz %r7,8(%r1)
 1101 00d4 7CE63B96 		divwu %r7,%r6,%r7
 1102 00d8 78000006 		e_b .L40
 1103              	.L34:
 1104              		.loc 1 390 0
 1105 00dc 4807     		se_li %r7,0
 1106              	.L40:
 1107              		.loc 1 392 0
 1108 00de 0173     		se_mr %r3,%r7
 1109 00e0 2171     		se_addi %r1,24
 1110              	.LCFI15:
 1111              		.cfi_def_cfa_offset 0
 1112 00e2 0004     		se_blr
 1113              		.cfi_endproc
 1114              	.LFE10:
 1115              		.size	SPCGetSystemClock, .-SPCGetSystemClock
 1116              		.section	.text.SPCGetPeripheralClock,"axv",@progbits
 1117              		.align 1
 1118              		.p2align 4,,15
 1119              		.globl SPCGetPeripheralClock
 1120              		.type	SPCGetPeripheralClock, @function
 1121              	SPCGetPeripheralClock:
 1122              	.LFB11:
 1123              		.loc 1 402 0
 1124              		.cfi_startproc
 1125 0000 182106F0 		e_stwu %r1,-16(%r1)
 1126              	.LCFI16:
 1127              		.cfi_def_cfa_offset 16
 1128 0004 D231     		se_stw %r3,8(%r1)
 1129              		.loc 1 404 0
 1130 0006 C271     		se_lwz %r7,8(%r1)
 1131 0008 2207     		se_cmpli %r7,1
 1132 000a 7F800020 		e_mcrf %cr7,%cr0
 1133 000e 7CE00026 		mfcr %r7
 1134 0012 74E7E007 		e_rlwinm %r7,%r7,28,0xf0000000
 1135 0016 7CE80120 		mtcrf 128,%r7
 1136 001a 7A110010 		e_bgt %cr0,.L42
 1137              		.loc 1 407 0
 1138 001e 70E0E4C4 		e_lis %r7,0x4c4
 1139 0022 18E7D1B4 		e_ori %r7,%r7,46080
 1140 0026 78000006 		e_b .L44
GAS LISTING C:\Users\bayra\AppData\Local\Temp\cc44mmEg.s 			page 21


 1141              	.L42:
 1142              		.loc 1 409 0
 1143 002a 4807     		se_li %r7,0
 1144              	.L44:
 1145              		.loc 1 411 0
 1146 002c 0173     		se_mr %r3,%r7
 1147 002e 20F1     		se_addi %r1,16
 1148              	.LCFI17:
 1149              		.cfi_def_cfa_offset 0
 1150 0030 0004     		se_blr
 1151              		.cfi_endproc
 1152              	.LFE11:
 1153              		.size	SPCGetPeripheralClock, .-SPCGetPeripheralClock
 1154              		.section	".text","axv"
 1155              	.Letext0:
 1156              		.file 2 "c:\\spc5studio-6.0\\eclipse\\plugins\\com.st.tools.spc5.tools.gnu.gcc.ppcvle.win32_4.9.4.
 1157              		.file 3 "c:\\spc5studio-6.0\\eclipse\\plugins\\com.st.tools.spc5.tools.gnu.gcc.ppcvle.win32_4.9.4.
 1158              		.file 4 "./components/spc58ecxx_platform_component_rla/lib/include/typedefs.h"
 1159              		.file 5 "./components/spc58ecxx_platform_component_rla/lib/include/spc58xcxx.h"
 1160              		.file 6 "./components/spc58ecxx_clock_component_rla/lib/include/clock.h"