GAS LISTING C:\Users\bayra\AppData\Local\Temp\ccUx7mN5.s 			page 1


   1              		.file	"event_groups.c"
   2              		.section	".text","axv"
   3              	.Ltext0:
   4              		.cfi_sections	.debug_frame
   5              		.section	.text.xEventGroupCreate,"axv",@progbits
   6              		.align 1
   7              		.p2align 4,,15
   8              		.globl xEventGroupCreate
   9              		.type	xEventGroupCreate, @function
  10              	xEventGroupCreate:
  11              	.LFB0:
  12              		.file 1 "./components/spc5_freertos_component_rla/lib/src/event_groups.c"
  13              		.loc 1 146 0
  14              		.cfi_startproc
  15 0000 182106E8 		e_stwu %r1,-24(%r1)
  16              	.LCFI0:
  17              		.cfi_def_cfa_offset 24
  18 0004 0080     		se_mflr %r0
  19 0006 D701     		se_stw %r0,28(%r1)
  20              		.cfi_offset 65, 4
  21              		.loc 1 162 0
  22 0008 4983     		se_li %r3,24
  23 000a 78000001 		e_bl pvPortMalloc
  24 000e D231     		se_stw %r3,8(%r1)
  25              		.loc 1 164 0
  26 0010 C271     		se_lwz %r7,8(%r1)
  27 0012 2A07     		se_cmpi %r7,0
  28 0014 7F800020 		e_mcrf %cr7,%cr0
  29 0018 7CE00026 		mfcr %r7
  30 001c 74E7E007 		e_rlwinm %r7,%r7,28,0xf0000000
  31 0020 7CE80120 		mtcrf 128,%r7
  32 0024 7A120014 		e_beq %cr0,.L2
  33              		.loc 1 166 0
  34 0028 C271     		se_lwz %r7,8(%r1)
  35 002a 4806     		se_li %r6,0
  36 002c D067     		se_stw %r6,0(%r7)
  37              		.loc 1 167 0
  38 002e C271     		se_lwz %r7,8(%r1)
  39 0030 2037     		se_addi %r7,4
  40 0032 0173     		se_mr %r3,%r7
  41 0034 78000001 		e_bl vListInitialise
  42              	.L2:
  43              		.loc 1 185 0
  44 0038 C271     		se_lwz %r7,8(%r1)
  45              		.loc 1 186 0
  46 003a 0173     		se_mr %r3,%r7
  47 003c C701     		se_lwz %r0,28(%r1)
  48 003e 0090     		se_mtlr %r0
  49 0040 2171     		se_addi %r1,24
  50              	.LCFI1:
  51              		.cfi_def_cfa_offset 0
  52 0042 0004     		se_blr
  53              		.cfi_endproc
  54              	.LFE0:
  55              		.size	xEventGroupCreate, .-xEventGroupCreate
  56              		.section	.text.xEventGroupSync,"axv",@progbits
  57              		.align 1
GAS LISTING C:\Users\bayra\AppData\Local\Temp\ccUx7mN5.s 			page 2


  58              		.p2align 4,,15
  59              		.globl xEventGroupSync
  60              		.type	xEventGroupSync, @function
  61              	xEventGroupSync:
  62              	.LFB1:
  63              		.loc 1 192 0
  64              		.cfi_startproc
  65 0000 182106C8 		e_stwu %r1,-56(%r1)
  66              	.LCFI2:
  67              		.cfi_def_cfa_offset 56
  68 0004 0080     		se_mflr %r0
  69 0006 DF01     		se_stw %r0,60(%r1)
  70              		.cfi_offset 65, 4
  71 0008 DA31     		se_stw %r3,40(%r1)
  72 000a DB41     		se_stw %r4,44(%r1)
  73 000c DC51     		se_stw %r5,48(%r1)
  74 000e DD61     		se_stw %r6,52(%r1)
  75              		.loc 1 194 0
  76 0010 CA71     		se_lwz %r7,40(%r1)
  77 0012 D371     		se_stw %r7,12(%r1)
  78              		.loc 1 196 0
  79 0014 4807     		se_li %r7,0
  80 0016 D471     		se_stw %r7,16(%r1)
  81              		.loc 1 206 0
  82 0018 78000001 		e_bl vTaskSuspendAll
  83              		.loc 1 208 0
  84 001c C371     		se_lwz %r7,12(%r1)
  85 001e C077     		se_lwz %r7,0(%r7)
  86 0020 D571     		se_stw %r7,20(%r1)
  87              		.loc 1 210 0
  88 0022 CA31     		se_lwz %r3,40(%r1)
  89 0024 CB41     		se_lwz %r4,44(%r1)
  90 0026 78000001 		e_bl xEventGroupSetBits
  91              		.loc 1 212 0
  92 002a C561     		se_lwz %r6,20(%r1)
  93 002c CB71     		se_lwz %r7,44(%r1)
  94 002e 4476     		se_or %r6,%r7
  95 0030 CC71     		se_lwz %r7,48(%r1)
  96 0032 4676     		se_and %r6,%r7
  97 0034 CC71     		se_lwz %r7,48(%r1)
  98 0036 7F863800 		cmp %cr7,%r6,%r7
  99 003a 7CE00026 		mfcr %r7
 100 003e 74E7E007 		e_rlwinm %r7,%r7,28,0xf0000000
 101 0042 7CE80120 		mtcrf 128,%r7
 102 0046 7A020022 		e_bne %cr0,.L5
 103              		.loc 1 215 0
 104 004a C561     		se_lwz %r6,20(%r1)
 105 004c CB71     		se_lwz %r7,44(%r1)
 106 004e 4467     		se_or %r7,%r6
 107 0050 D271     		se_stw %r7,8(%r1)
 108              		.loc 1 219 0
 109 0052 C371     		se_lwz %r7,12(%r1)
 110 0054 C067     		se_lwz %r6,0(%r7)
 111 0056 CC71     		se_lwz %r7,48(%r1)
 112 0058 0027     		se_not %r7
 113 005a 4676     		se_and %r6,%r7
 114 005c C371     		se_lwz %r7,12(%r1)
GAS LISTING C:\Users\bayra\AppData\Local\Temp\ccUx7mN5.s 			page 3


 115 005e D067     		se_stw %r6,0(%r7)
 116              		.loc 1 221 0
 117 0060 4807     		se_li %r7,0
 118 0062 DD71     		se_stw %r7,52(%r1)
 119 0064 78000044 		e_b .L6
 120              	.L5:
 121              		.loc 1 225 0
 122 0068 CD71     		se_lwz %r7,52(%r1)
 123 006a 2A07     		se_cmpi %r7,0
 124 006c 7F800020 		e_mcrf %cr7,%cr0
 125 0070 7CE00026 		mfcr %r7
 126 0074 74E7E007 		e_rlwinm %r7,%r7,28,0xf0000000
 127 0078 7CE80120 		mtcrf 128,%r7
 128 007c 7A120022 		e_beq %cr0,.L7
 129              		.loc 1 232 0
 130 0080 C371     		se_lwz %r7,12(%r1)
 131 0082 18C78004 		e_addi %r6,%r7,4
 132 0086 CC71     		se_lwz %r7,48(%r1)
 133 0088 18E7D305 		e_ori %r7,%r7,83886080
 134 008c 0163     		se_mr %r3,%r6
 135 008e 0174     		se_mr %r4,%r7
 136 0090 CD51     		se_lwz %r5,52(%r1)
 137 0092 78000001 		e_bl vTaskPlaceOnUnorderedEventList
 138              		.loc 1 238 0
 139 0096 4807     		se_li %r7,0
 140 0098 D271     		se_stw %r7,8(%r1)
 141 009a 7800000E 		e_b .L6
 142              	.L7:
 143              		.loc 1 244 0
 144 009e C371     		se_lwz %r7,12(%r1)
 145 00a0 C077     		se_lwz %r7,0(%r7)
 146 00a2 D271     		se_stw %r7,8(%r1)
 147              		.loc 1 245 0
 148 00a4 4817     		se_li %r7,1
 149 00a6 D471     		se_stw %r7,16(%r1)
 150              	.L6:
 151              		.loc 1 249 0
 152 00a8 78000001 		e_bl xTaskResumeAll
 153 00ac D631     		se_stw %r3,24(%r1)
 154              		.loc 1 251 0
 155 00ae CD71     		se_lwz %r7,52(%r1)
 156 00b0 2A07     		se_cmpi %r7,0
 157 00b2 7F800020 		e_mcrf %cr7,%cr0
 158 00b6 7CE00026 		mfcr %r7
 159 00ba 74E7E007 		e_rlwinm %r7,%r7,28,0xf0000000
 160 00be 7CE80120 		mtcrf 128,%r7
 161 00c2 7A120084 		e_beq %cr0,.L8
 162              		.loc 1 253 0
 163 00c6 C671     		se_lwz %r7,24(%r1)
 164 00c8 2A07     		se_cmpi %r7,0
 165 00ca 7F800020 		e_mcrf %cr7,%cr0
 166 00ce 7CE00026 		mfcr %r7
 167 00d2 74E7E007 		e_rlwinm %r7,%r7,28,0xf0000000
 168 00d6 7CE80120 		mtcrf 128,%r7
 169 00da 7A020006 		e_bne %cr0,.L9
 170              		.loc 1 255 0
 171              	 # 255 "./components/spc5_freertos_component_rla/lib/src/event_groups.c" 1
GAS LISTING C:\Users\bayra\AppData\Local\Temp\ccUx7mN5.s 			page 4


 172 00de 0002     		se_sc
 173              	 # 0 "" 2
 174              	.L9:
 175              		.loc 1 266 0
 176 00e0 78000001 		e_bl uxTaskResetEventItemValue
 177 00e4 D231     		se_stw %r3,8(%r1)
 178              		.loc 1 268 0
 179 00e6 C271     		se_lwz %r7,8(%r1)
 180 00e8 18E7C302 		e_andi %r7,%r7,33554432
 181 00ec 2A07     		se_cmpi %r7,0
 182 00ee 7F800020 		e_mcrf %cr7,%cr0
 183 00f2 7CE00026 		mfcr %r7
 184 00f6 74E7E007 		e_rlwinm %r7,%r7,28,0xf0000000
 185 00fa 7CE80120 		mtcrf 128,%r7
 186 00fe 7A020040 		e_bne %cr0,.L10
 187              		.loc 1 271 0
 188 0102 78000001 		e_bl vTaskEnterCritical
 189              		.loc 1 273 0
 190 0106 C371     		se_lwz %r7,12(%r1)
 191 0108 C077     		se_lwz %r7,0(%r7)
 192 010a D271     		se_stw %r7,8(%r1)
 193              		.loc 1 279 0
 194 010c C261     		se_lwz %r6,8(%r1)
 195 010e CC71     		se_lwz %r7,48(%r1)
 196 0110 4676     		se_and %r6,%r7
 197 0112 CC71     		se_lwz %r7,48(%r1)
 198 0114 7F863800 		cmp %cr7,%r6,%r7
 199 0118 7CE00026 		mfcr %r7
 200 011c 74E7E007 		e_rlwinm %r7,%r7,28,0xf0000000
 201 0120 7CE80120 		mtcrf 128,%r7
 202 0124 7A020012 		e_bne %cr0,.L11
 203              		.loc 1 281 0
 204 0128 C371     		se_lwz %r7,12(%r1)
 205 012a C067     		se_lwz %r6,0(%r7)
 206 012c CC71     		se_lwz %r7,48(%r1)
 207 012e 0027     		se_not %r7
 208 0130 4676     		se_and %r6,%r7
 209 0132 C371     		se_lwz %r7,12(%r1)
 210 0134 D067     		se_stw %r6,0(%r7)
 211              	.L11:
 212              		.loc 1 288 0
 213 0136 78000001 		e_bl vTaskExitCritical
 214              		.loc 1 290 0
 215 013a 4817     		se_li %r7,1
 216 013c D471     		se_stw %r7,16(%r1)
 217              	.L10:
 218              		.loc 1 299 0
 219 013e C271     		se_lwz %r7,8(%r1)
 220 0140 18E7C700 		e_andi %r7,%r7,16777215
 221 0144 D271     		se_stw %r7,8(%r1)
 222              	.L8:
 223              		.loc 1 307 0
 224 0146 C271     		se_lwz %r7,8(%r1)
 225              		.loc 1 308 0
 226 0148 0173     		se_mr %r3,%r7
 227 014a CF01     		se_lwz %r0,60(%r1)
 228 014c 0090     		se_mtlr %r0
GAS LISTING C:\Users\bayra\AppData\Local\Temp\ccUx7mN5.s 			page 5


 229 014e 18218038 		e_addi %r1,%r1,56
 230              	.LCFI3:
 231              		.cfi_def_cfa_offset 0
 232 0152 0004     		se_blr
 233              		.cfi_endproc
 234              	.LFE1:
 235              		.size	xEventGroupSync, .-xEventGroupSync
 236              		.section	.text.xEventGroupWaitBits,"axv",@progbits
 237              		.align 1
 238              		.p2align 4,,15
 239              		.globl xEventGroupWaitBits
 240              		.type	xEventGroupWaitBits, @function
 241              	xEventGroupWaitBits:
 242              	.LFB2:
 243              		.loc 1 312 0
 244              		.cfi_startproc
 245 0000 182106C0 		e_stwu %r1,-64(%r1)
 246              	.LCFI4:
 247              		.cfi_def_cfa_offset 64
 248 0004 0080     		se_mflr %r0
 249 0006 54010044 		e_stw %r0,68(%r1)
 250              		.cfi_offset 65, 4
 251 000a DA31     		se_stw %r3,40(%r1)
 252 000c DB41     		se_stw %r4,44(%r1)
 253 000e DC51     		se_stw %r5,48(%r1)
 254 0010 DD61     		se_stw %r6,52(%r1)
 255 0012 DE71     		se_stw %r7,56(%r1)
 256              		.loc 1 313 0
 257 0014 CA71     		se_lwz %r7,40(%r1)
 258 0016 D471     		se_stw %r7,16(%r1)
 259              		.loc 1 314 0
 260 0018 4807     		se_li %r7,0
 261 001a D371     		se_stw %r7,12(%r1)
 262              		.loc 1 316 0
 263 001c 4807     		se_li %r7,0
 264 001e D571     		se_stw %r7,20(%r1)
 265              		.loc 1 329 0
 266 0020 78000001 		e_bl vTaskSuspendAll
 267              	.LBB2:
 268              		.loc 1 331 0
 269 0024 C471     		se_lwz %r7,16(%r1)
 270 0026 C077     		se_lwz %r7,0(%r7)
 271 0028 D671     		se_stw %r7,24(%r1)
 272              		.loc 1 334 0
 273 002a C631     		se_lwz %r3,24(%r1)
 274 002c CB41     		se_lwz %r4,44(%r1)
 275 002e CD51     		se_lwz %r5,52(%r1)
 276 0030 78000001 		e_bl prvTestWaitCondition
 277 0034 D731     		se_stw %r3,28(%r1)
 278              		.loc 1 336 0
 279 0036 C771     		se_lwz %r7,28(%r1)
 280 0038 2A07     		se_cmpi %r7,0
 281 003a 7F800020 		e_mcrf %cr7,%cr0
 282 003e 7CE00026 		mfcr %r7
 283 0042 74E7E007 		e_rlwinm %r7,%r7,28,0xf0000000
 284 0046 7CE80120 		mtcrf 128,%r7
 285 004a 7A120036 		e_beq %cr0,.L14
GAS LISTING C:\Users\bayra\AppData\Local\Temp\ccUx7mN5.s 			page 6


 286              		.loc 1 340 0
 287 004e C671     		se_lwz %r7,24(%r1)
 288 0050 D271     		se_stw %r7,8(%r1)
 289              		.loc 1 341 0
 290 0052 4807     		se_li %r7,0
 291 0054 DE71     		se_stw %r7,56(%r1)
 292              		.loc 1 344 0
 293 0056 CC71     		se_lwz %r7,48(%r1)
 294 0058 2A07     		se_cmpi %r7,0
 295 005a 7F800020 		e_mcrf %cr7,%cr0
 296 005e 7CE00026 		mfcr %r7
 297 0062 74E7E007 		e_rlwinm %r7,%r7,28,0xf0000000
 298 0066 7CE80120 		mtcrf 128,%r7
 299 006a 7A120090 		e_beq %cr0,.L15
 300              		.loc 1 346 0
 301 006e C471     		se_lwz %r7,16(%r1)
 302 0070 C067     		se_lwz %r6,0(%r7)
 303 0072 CB71     		se_lwz %r7,44(%r1)
 304 0074 0027     		se_not %r7
 305 0076 4676     		se_and %r6,%r7
 306 0078 C471     		se_lwz %r7,16(%r1)
 307 007a D067     		se_stw %r6,0(%r7)
 308 007c 7800007E 		e_b .L15
 309              	.L14:
 310              		.loc 1 353 0
 311 0080 CE71     		se_lwz %r7,56(%r1)
 312 0082 2A07     		se_cmpi %r7,0
 313 0084 7F800020 		e_mcrf %cr7,%cr0
 314 0088 7CE00026 		mfcr %r7
 315 008c 74E7E007 		e_rlwinm %r7,%r7,28,0xf0000000
 316 0090 7CE80120 		mtcrf 128,%r7
 317 0094 7A020010 		e_bne %cr0,.L16
 318              		.loc 1 357 0
 319 0098 C671     		se_lwz %r7,24(%r1)
 320 009a D271     		se_stw %r7,8(%r1)
 321              		.loc 1 358 0
 322 009c 4817     		se_li %r7,1
 323 009e D571     		se_stw %r7,20(%r1)
 324 00a0 7800005A 		e_b .L15
 325              	.L16:
 326              		.loc 1 366 0
 327 00a4 CC71     		se_lwz %r7,48(%r1)
 328 00a6 2A07     		se_cmpi %r7,0
 329 00a8 7F800020 		e_mcrf %cr7,%cr0
 330 00ac 7CE00026 		mfcr %r7
 331 00b0 74E7E007 		e_rlwinm %r7,%r7,28,0xf0000000
 332 00b4 7CE80120 		mtcrf 128,%r7
 333 00b8 7A12000A 		e_beq %cr0,.L17
 334              		.loc 1 368 0
 335 00bc C371     		se_lwz %r7,12(%r1)
 336 00be 6477     		se_bseti %r7,7
 337 00c0 D371     		se_stw %r7,12(%r1)
 338              	.L17:
 339              		.loc 1 375 0
 340 00c2 CD71     		se_lwz %r7,52(%r1)
 341 00c4 2A07     		se_cmpi %r7,0
 342 00c6 7F800020 		e_mcrf %cr7,%cr0
GAS LISTING C:\Users\bayra\AppData\Local\Temp\ccUx7mN5.s 			page 7


 343 00ca 7CE00026 		mfcr %r7
 344 00ce 74E7E007 		e_rlwinm %r7,%r7,28,0xf0000000
 345 00d2 7CE80120 		mtcrf 128,%r7
 346 00d6 7A12000A 		e_beq %cr0,.L18
 347              		.loc 1 377 0
 348 00da C371     		se_lwz %r7,12(%r1)
 349 00dc 6457     		se_bseti %r7,5
 350 00de D371     		se_stw %r7,12(%r1)
 351              	.L18:
 352              		.loc 1 387 0
 353 00e0 C471     		se_lwz %r7,16(%r1)
 354 00e2 18A78004 		e_addi %r5,%r7,4
 355 00e6 CB61     		se_lwz %r6,44(%r1)
 356 00e8 C371     		se_lwz %r7,12(%r1)
 357 00ea 4467     		se_or %r7,%r6
 358 00ec 0153     		se_mr %r3,%r5
 359 00ee 0174     		se_mr %r4,%r7
 360 00f0 CE51     		se_lwz %r5,56(%r1)
 361 00f2 78000001 		e_bl vTaskPlaceOnUnorderedEventList
 362              		.loc 1 392 0
 363 00f6 4807     		se_li %r7,0
 364 00f8 D271     		se_stw %r7,8(%r1)
 365              	.L15:
 366              	.LBE2:
 367              		.loc 1 397 0
 368 00fa 78000001 		e_bl xTaskResumeAll
 369 00fe D831     		se_stw %r3,32(%r1)
 370              		.loc 1 399 0
 371 0100 CE71     		se_lwz %r7,56(%r1)
 372 0102 2A07     		se_cmpi %r7,0
 373 0104 7F800020 		e_mcrf %cr7,%cr0
 374 0108 7CE00026 		mfcr %r7
 375 010c 74E7E007 		e_rlwinm %r7,%r7,28,0xf0000000
 376 0110 7CE80120 		mtcrf 128,%r7
 377 0114 7A1200A2 		e_beq %cr0,.L19
 378              		.loc 1 401 0
 379 0118 C871     		se_lwz %r7,32(%r1)
 380 011a 2A07     		se_cmpi %r7,0
 381 011c 7F800020 		e_mcrf %cr7,%cr0
 382 0120 7CE00026 		mfcr %r7
 383 0124 74E7E007 		e_rlwinm %r7,%r7,28,0xf0000000
 384 0128 7CE80120 		mtcrf 128,%r7
 385 012c 7A020006 		e_bne %cr0,.L20
 386              		.loc 1 403 0
 387              	 # 403 "./components/spc5_freertos_component_rla/lib/src/event_groups.c" 1
 388 0130 0002     		se_sc
 389              	 # 0 "" 2
 390              	.L20:
 391              		.loc 1 414 0
 392 0132 78000001 		e_bl uxTaskResetEventItemValue
 393 0136 D231     		se_stw %r3,8(%r1)
 394              		.loc 1 416 0
 395 0138 C271     		se_lwz %r7,8(%r1)
 396 013a 18E7C302 		e_andi %r7,%r7,33554432
 397 013e 2A07     		se_cmpi %r7,0
 398 0140 7F800020 		e_mcrf %cr7,%cr0
 399 0144 7CE00026 		mfcr %r7
GAS LISTING C:\Users\bayra\AppData\Local\Temp\ccUx7mN5.s 			page 8


 400 0148 74E7E007 		e_rlwinm %r7,%r7,28,0xf0000000
 401 014c 7CE80120 		mtcrf 128,%r7
 402 0150 7A02005E 		e_bne %cr0,.L21
 403              		.loc 1 418 0
 404 0154 78000001 		e_bl vTaskEnterCritical
 405              		.loc 1 421 0
 406 0158 C471     		se_lwz %r7,16(%r1)
 407 015a C077     		se_lwz %r7,0(%r7)
 408 015c D271     		se_stw %r7,8(%r1)
 409              		.loc 1 425 0
 410 015e C231     		se_lwz %r3,8(%r1)
 411 0160 CB41     		se_lwz %r4,44(%r1)
 412 0162 CD51     		se_lwz %r5,52(%r1)
 413 0164 78000001 		e_bl prvTestWaitCondition
 414 0168 0137     		se_mr %r7,%r3
 415 016a 2A07     		se_cmpi %r7,0
 416 016c 7F800020 		e_mcrf %cr7,%cr0
 417 0170 7CE00026 		mfcr %r7
 418 0174 74E7E007 		e_rlwinm %r7,%r7,28,0xf0000000
 419 0178 7CE80120 		mtcrf 128,%r7
 420 017c 7A12002A 		e_beq %cr0,.L22
 421              		.loc 1 427 0
 422 0180 CC71     		se_lwz %r7,48(%r1)
 423 0182 2A07     		se_cmpi %r7,0
 424 0184 7F800020 		e_mcrf %cr7,%cr0
 425 0188 7CE00026 		mfcr %r7
 426 018c 74E7E007 		e_rlwinm %r7,%r7,28,0xf0000000
 427 0190 7CE80120 		mtcrf 128,%r7
 428 0194 7A120012 		e_beq %cr0,.L22
 429              		.loc 1 429 0
 430 0198 C471     		se_lwz %r7,16(%r1)
 431 019a C067     		se_lwz %r6,0(%r7)
 432 019c CB71     		se_lwz %r7,44(%r1)
 433 019e 0027     		se_not %r7
 434 01a0 4676     		se_and %r6,%r7
 435 01a2 C471     		se_lwz %r7,16(%r1)
 436 01a4 D067     		se_stw %r6,0(%r7)
 437              	.L22:
 438              		.loc 1 440 0
 439 01a6 4817     		se_li %r7,1
 440 01a8 D571     		se_stw %r7,20(%r1)
 441              		.loc 1 442 0
 442 01aa 78000001 		e_bl vTaskExitCritical
 443              	.L21:
 444              		.loc 1 450 0
 445 01ae C271     		se_lwz %r7,8(%r1)
 446 01b0 18E7C700 		e_andi %r7,%r7,16777215
 447 01b4 D271     		se_stw %r7,8(%r1)
 448              	.L19:
 449              		.loc 1 457 0
 450 01b6 C271     		se_lwz %r7,8(%r1)
 451              		.loc 1 458 0
 452 01b8 0173     		se_mr %r3,%r7
 453 01ba 50010044 		e_lwz %r0,68(%r1)
 454 01be 0090     		se_mtlr %r0
 455 01c0 18218040 		e_addi %r1,%r1,64
 456              	.LCFI5:
GAS LISTING C:\Users\bayra\AppData\Local\Temp\ccUx7mN5.s 			page 9


 457              		.cfi_def_cfa_offset 0
 458 01c4 0004     		se_blr
 459              		.cfi_endproc
 460              	.LFE2:
 461              		.size	xEventGroupWaitBits, .-xEventGroupWaitBits
 462              		.section	.text.xEventGroupClearBits,"axv",@progbits
 463              		.align 1
 464              		.p2align 4,,15
 465              		.globl xEventGroupClearBits
 466              		.type	xEventGroupClearBits, @function
 467              	xEventGroupClearBits:
 468              	.LFB3:
 469              		.loc 1 462 0
 470              		.cfi_startproc
 471 0000 182106E0 		e_stwu %r1,-32(%r1)
 472              	.LCFI6:
 473              		.cfi_def_cfa_offset 32
 474 0004 0080     		se_mflr %r0
 475 0006 D901     		se_stw %r0,36(%r1)
 476              		.cfi_offset 65, 4
 477 0008 D631     		se_stw %r3,24(%r1)
 478 000a D741     		se_stw %r4,28(%r1)
 479              		.loc 1 463 0
 480 000c C671     		se_lwz %r7,24(%r1)
 481 000e D271     		se_stw %r7,8(%r1)
 482              		.loc 1 471 0
 483 0010 78000001 		e_bl vTaskEnterCritical
 484              		.loc 1 477 0
 485 0014 C271     		se_lwz %r7,8(%r1)
 486 0016 C077     		se_lwz %r7,0(%r7)
 487 0018 D371     		se_stw %r7,12(%r1)
 488              		.loc 1 480 0
 489 001a C271     		se_lwz %r7,8(%r1)
 490 001c C067     		se_lwz %r6,0(%r7)
 491 001e C771     		se_lwz %r7,28(%r1)
 492 0020 0027     		se_not %r7
 493 0022 4676     		se_and %r6,%r7
 494 0024 C271     		se_lwz %r7,8(%r1)
 495 0026 D067     		se_stw %r6,0(%r7)
 496              		.loc 1 482 0
 497 0028 78000001 		e_bl vTaskExitCritical
 498              		.loc 1 484 0
 499 002c C371     		se_lwz %r7,12(%r1)
 500              		.loc 1 485 0
 501 002e 0173     		se_mr %r3,%r7
 502 0030 C901     		se_lwz %r0,36(%r1)
 503 0032 0090     		se_mtlr %r0
 504 0034 21F1     		se_addi %r1,32
 505              	.LCFI7:
 506              		.cfi_def_cfa_offset 0
 507 0036 0004     		se_blr
 508              		.cfi_endproc
 509              	.LFE3:
 510              		.size	xEventGroupClearBits, .-xEventGroupClearBits
 511              		.section	.text.xEventGroupGetBitsFromISR,"axv",@progbits
 512              		.align 1
 513              		.p2align 4,,15
GAS LISTING C:\Users\bayra\AppData\Local\Temp\ccUx7mN5.s 			page 10


 514              		.globl xEventGroupGetBitsFromISR
 515              		.type	xEventGroupGetBitsFromISR, @function
 516              	xEventGroupGetBitsFromISR:
 517              	.LFB4:
 518              		.loc 1 504 0
 519              		.cfi_startproc
 520 0000 182106E0 		e_stwu %r1,-32(%r1)
 521              	.LCFI8:
 522              		.cfi_def_cfa_offset 32
 523 0004 D631     		se_stw %r3,24(%r1)
 524              		.loc 1 506 0
 525 0006 C671     		se_lwz %r7,24(%r1)
 526 0008 D271     		se_stw %r7,8(%r1)
 527              		.loc 1 509 0
 528 000a 4807     		se_li %r7,0
 529 000c D371     		se_stw %r7,12(%r1)
 530              		.loc 1 511 0
 531 000e C271     		se_lwz %r7,8(%r1)
 532 0010 C077     		se_lwz %r7,0(%r7)
 533 0012 D471     		se_stw %r7,16(%r1)
 534              		.loc 1 515 0
 535 0014 C471     		se_lwz %r7,16(%r1)
 536              		.loc 1 516 0
 537 0016 0173     		se_mr %r3,%r7
 538 0018 21F1     		se_addi %r1,32
 539              	.LCFI9:
 540              		.cfi_def_cfa_offset 0
 541 001a 0004     		se_blr
 542              		.cfi_endproc
 543              	.LFE4:
 544              		.size	xEventGroupGetBitsFromISR, .-xEventGroupGetBitsFromISR
 545              		.section	.text.xEventGroupSetBits,"axv",@progbits
 546              		.align 1
 547              		.p2align 4,,15
 548              		.globl xEventGroupSetBits
 549              		.type	xEventGroupSetBits, @function
 550              	xEventGroupSetBits:
 551              	.LFB5:
 552              		.loc 1 520 0
 553              		.cfi_startproc
 554 0000 182106C0 		e_stwu %r1,-64(%r1)
 555              	.LCFI10:
 556              		.cfi_def_cfa_offset 64
 557 0004 0080     		se_mflr %r0
 558 0006 54010044 		e_stw %r0,68(%r1)
 559              		.cfi_offset 65, 4
 560 000a DE31     		se_stw %r3,56(%r1)
 561 000c DF41     		se_stw %r4,60(%r1)
 562              		.loc 1 524 0
 563 000e 4807     		se_li %r7,0
 564 0010 D371     		se_stw %r7,12(%r1)
 565              		.loc 1 525 0
 566 0012 CE71     		se_lwz %r7,56(%r1)
 567 0014 D571     		se_stw %r7,20(%r1)
 568              		.loc 1 526 0
 569 0016 4807     		se_li %r7,0
 570 0018 D471     		se_stw %r7,16(%r1)
GAS LISTING C:\Users\bayra\AppData\Local\Temp\ccUx7mN5.s 			page 11


 571              		.loc 1 533 0
 572 001a C571     		se_lwz %r7,20(%r1)
 573 001c 2037     		se_addi %r7,4
 574 001e D671     		se_stw %r7,24(%r1)
 575              		.loc 1 534 0
 576 0020 C671     		se_lwz %r7,24(%r1)
 577 0022 2077     		se_addi %r7,8
 578 0024 D771     		se_stw %r7,28(%r1)
 579              		.loc 1 535 0
 580 0026 78000001 		e_bl vTaskSuspendAll
 581              		.loc 1 539 0
 582 002a C671     		se_lwz %r7,24(%r1)
 583 002c C377     		se_lwz %r7,12(%r7)
 584 002e D271     		se_stw %r7,8(%r1)
 585              		.loc 1 542 0
 586 0030 C571     		se_lwz %r7,20(%r1)
 587 0032 C067     		se_lwz %r6,0(%r7)
 588 0034 CF71     		se_lwz %r7,60(%r1)
 589 0036 4476     		se_or %r6,%r7
 590 0038 C571     		se_lwz %r7,20(%r1)
 591 003a D067     		se_stw %r6,0(%r7)
 592              		.loc 1 545 0
 593 003c 780000D6 		e_b .L29
 594              	.L34:
 595              		.loc 1 547 0
 596 0040 C271     		se_lwz %r7,8(%r1)
 597 0042 C177     		se_lwz %r7,4(%r7)
 598 0044 D871     		se_stw %r7,32(%r1)
 599              		.loc 1 548 0
 600 0046 C271     		se_lwz %r7,8(%r1)
 601 0048 C077     		se_lwz %r7,0(%r7)
 602 004a D971     		se_stw %r7,36(%r1)
 603              		.loc 1 549 0
 604 004c 4807     		se_li %r7,0
 605 004e D471     		se_stw %r7,16(%r1)
 606              		.loc 1 552 0
 607 0050 C971     		se_lwz %r7,36(%r1)
 608 0052 18E7C3FF 		e_andi %r7,%r7,-16777216
 609 0056 DA71     		se_stw %r7,40(%r1)
 610              		.loc 1 553 0
 611 0058 C971     		se_lwz %r7,36(%r1)
 612 005a 18E7C700 		e_andi %r7,%r7,16777215
 613 005e D971     		se_stw %r7,36(%r1)
 614              		.loc 1 555 0
 615 0060 CA71     		se_lwz %r7,40(%r1)
 616 0062 18E7C304 		e_andi %r7,%r7,67108864
 617 0066 2A07     		se_cmpi %r7,0
 618 0068 7F800020 		e_mcrf %cr7,%cr0
 619 006c 7CE00026 		mfcr %r7
 620 0070 74E7E007 		e_rlwinm %r7,%r7,28,0xf0000000
 621 0074 7CE80120 		mtcrf 128,%r7
 622 0078 7A02002A 		e_bne %cr0,.L30
 623              		.loc 1 558 0
 624 007c C571     		se_lwz %r7,20(%r1)
 625 007e C067     		se_lwz %r6,0(%r7)
 626 0080 C971     		se_lwz %r7,36(%r1)
 627 0082 4667     		se_and %r7,%r6
GAS LISTING C:\Users\bayra\AppData\Local\Temp\ccUx7mN5.s 			page 12


 628 0084 2A07     		se_cmpi %r7,0
 629 0086 7F800020 		e_mcrf %cr7,%cr0
 630 008a 7CE00026 		mfcr %r7
 631 008e 74E7E007 		e_rlwinm %r7,%r7,28,0xf0000000
 632 0092 7CE80120 		mtcrf 128,%r7
 633 0096 7A12002E 		e_beq %cr0,.L31
 634              		.loc 1 560 0
 635 009a 4817     		se_li %r7,1
 636 009c D471     		se_stw %r7,16(%r1)
 637 009e 78000026 		e_b .L31
 638              	.L30:
 639              		.loc 1 567 0
 640 00a2 C571     		se_lwz %r7,20(%r1)
 641 00a4 C067     		se_lwz %r6,0(%r7)
 642 00a6 C971     		se_lwz %r7,36(%r1)
 643 00a8 4676     		se_and %r6,%r7
 644 00aa C971     		se_lwz %r7,36(%r1)
 645 00ac 7F863800 		cmp %cr7,%r6,%r7
 646 00b0 7CE00026 		mfcr %r7
 647 00b4 74E7E007 		e_rlwinm %r7,%r7,28,0xf0000000
 648 00b8 7CE80120 		mtcrf 128,%r7
 649 00bc 7A020008 		e_bne %cr0,.L31
 650              		.loc 1 570 0
 651 00c0 4817     		se_li %r7,1
 652 00c2 D471     		se_stw %r7,16(%r1)
 653              	.L31:
 654              		.loc 1 577 0
 655 00c4 C471     		se_lwz %r7,16(%r1)
 656 00c6 2A07     		se_cmpi %r7,0
 657 00c8 7F800020 		e_mcrf %cr7,%cr0
 658 00cc 7CE00026 		mfcr %r7
 659 00d0 74E7E007 		e_rlwinm %r7,%r7,28,0xf0000000
 660 00d4 7CE80120 		mtcrf 128,%r7
 661 00d8 7A120036 		e_beq %cr0,.L32
 662              		.loc 1 580 0
 663 00dc CA71     		se_lwz %r7,40(%r1)
 664 00de 18E7C301 		e_andi %r7,%r7,16777216
 665 00e2 2A07     		se_cmpi %r7,0
 666 00e4 7F800020 		e_mcrf %cr7,%cr0
 667 00e8 7CE00026 		mfcr %r7
 668 00ec 74E7E007 		e_rlwinm %r7,%r7,28,0xf0000000
 669 00f0 7CE80120 		mtcrf 128,%r7
 670 00f4 7A12000C 		e_beq %cr0,.L33
 671              		.loc 1 582 0
 672 00f8 C361     		se_lwz %r6,12(%r1)
 673 00fa C971     		se_lwz %r7,36(%r1)
 674 00fc 4467     		se_or %r7,%r6
 675 00fe D371     		se_stw %r7,12(%r1)
 676              	.L33:
 677              		.loc 1 594 0
 678 0100 C571     		se_lwz %r7,20(%r1)
 679 0102 C077     		se_lwz %r7,0(%r7)
 680 0104 6467     		se_bseti %r7,6
 681 0106 C231     		se_lwz %r3,8(%r1)
 682 0108 0174     		se_mr %r4,%r7
 683 010a 78000001 		e_bl vTaskRemoveFromUnorderedEventList
 684              	.L32:
GAS LISTING C:\Users\bayra\AppData\Local\Temp\ccUx7mN5.s 			page 13


 685              		.loc 1 600 0
 686 010e C871     		se_lwz %r7,32(%r1)
 687 0110 D271     		se_stw %r7,8(%r1)
 688              	.L29:
 689              		.loc 1 545 0
 690 0112 C261     		se_lwz %r6,8(%r1)
 691 0114 C771     		se_lwz %r7,28(%r1)
 692 0116 7F863800 		cmp %cr7,%r6,%r7
 693 011a 7CE00026 		mfcr %r7
 694 011e 74E7E007 		e_rlwinm %r7,%r7,28,0xf0000000
 695 0122 7CE80120 		mtcrf 128,%r7
 696 0126 7A02FF1A 		e_bne %cr0,.L34
 697              		.loc 1 605 0
 698 012a C571     		se_lwz %r7,20(%r1)
 699 012c C067     		se_lwz %r6,0(%r7)
 700 012e C371     		se_lwz %r7,12(%r1)
 701 0130 0027     		se_not %r7
 702 0132 4676     		se_and %r6,%r7
 703 0134 C571     		se_lwz %r7,20(%r1)
 704 0136 D067     		se_stw %r6,0(%r7)
 705              		.loc 1 607 0
 706 0138 78000001 		e_bl xTaskResumeAll
 707              		.loc 1 609 0
 708 013c C571     		se_lwz %r7,20(%r1)
 709 013e C077     		se_lwz %r7,0(%r7)
 710              		.loc 1 610 0
 711 0140 0173     		se_mr %r3,%r7
 712 0142 50010044 		e_lwz %r0,68(%r1)
 713 0146 0090     		se_mtlr %r0
 714 0148 18218040 		e_addi %r1,%r1,64
 715              	.LCFI11:
 716              		.cfi_def_cfa_offset 0
 717 014c 0004     		se_blr
 718              		.cfi_endproc
 719              	.LFE5:
 720              		.size	xEventGroupSetBits, .-xEventGroupSetBits
 721              		.section	.text.vEventGroupDelete,"axv",@progbits
 722              		.align 1
 723              		.p2align 4,,15
 724              		.globl vEventGroupDelete
 725              		.type	vEventGroupDelete, @function
 726              	vEventGroupDelete:
 727              	.LFB6:
 728              		.loc 1 614 0
 729              		.cfi_startproc
 730 0000 182106E0 		e_stwu %r1,-32(%r1)
 731              	.LCFI12:
 732              		.cfi_def_cfa_offset 32
 733 0004 0080     		se_mflr %r0
 734 0006 D901     		se_stw %r0,36(%r1)
 735              		.cfi_offset 65, 4
 736 0008 D631     		se_stw %r3,24(%r1)
 737              		.loc 1 615 0
 738 000a C671     		se_lwz %r7,24(%r1)
 739 000c D271     		se_stw %r7,8(%r1)
 740              		.loc 1 616 0
 741 000e C271     		se_lwz %r7,8(%r1)
GAS LISTING C:\Users\bayra\AppData\Local\Temp\ccUx7mN5.s 			page 14


 742 0010 2037     		se_addi %r7,4
 743 0012 D371     		se_stw %r7,12(%r1)
 744              		.loc 1 618 0
 745 0014 78000001 		e_bl vTaskSuspendAll
 746              		.loc 1 622 0
 747 0018 78000010 		e_b .L37
 748              	.L38:
 749              		.loc 1 627 0
 750 001c C371     		se_lwz %r7,12(%r1)
 751 001e C377     		se_lwz %r7,12(%r7)
 752 0020 0173     		se_mr %r3,%r7
 753 0022 6264     		se_bgeni %r4,6
 754 0024 78000001 		e_bl vTaskRemoveFromUnorderedEventList
 755              	.L37:
 756              		.loc 1 622 0
 757 0028 C371     		se_lwz %r7,12(%r1)
 758 002a C077     		se_lwz %r7,0(%r7)
 759 002c 2A07     		se_cmpi %r7,0
 760 002e 7F800020 		e_mcrf %cr7,%cr0
 761 0032 7CE00026 		mfcr %r7
 762 0036 74E7E007 		e_rlwinm %r7,%r7,28,0xf0000000
 763 003a 7CE80120 		mtcrf 128,%r7
 764 003e 7A02FFDE 		e_bne %cr0,.L38
 765              		.loc 1 634 0
 766 0042 C231     		se_lwz %r3,8(%r1)
 767 0044 78000001 		e_bl vPortFree
 768              		.loc 1 651 0
 769 0048 78000001 		e_bl xTaskResumeAll
 770              		.loc 1 652 0
 771 004c C901     		se_lwz %r0,36(%r1)
 772 004e 0090     		se_mtlr %r0
 773 0050 21F1     		se_addi %r1,32
 774              	.LCFI13:
 775              		.cfi_def_cfa_offset 0
 776 0052 0004     		se_blr
 777              		.cfi_endproc
 778              	.LFE6:
 779              		.size	vEventGroupDelete, .-vEventGroupDelete
 780              		.section	.text.vEventGroupSetBitsCallback,"axv",@progbits
 781              		.align 1
 782              		.p2align 4,,15
 783              		.globl vEventGroupSetBitsCallback
 784              		.type	vEventGroupSetBitsCallback, @function
 785              	vEventGroupSetBitsCallback:
 786              	.LFB7:
 787              		.loc 1 658 0
 788              		.cfi_startproc
 789 0000 182106F0 		e_stwu %r1,-16(%r1)
 790              	.LCFI14:
 791              		.cfi_def_cfa_offset 16
 792 0004 0080     		se_mflr %r0
 793 0006 D501     		se_stw %r0,20(%r1)
 794              		.cfi_offset 65, 4
 795 0008 D231     		se_stw %r3,8(%r1)
 796 000a D341     		se_stw %r4,12(%r1)
 797              		.loc 1 659 0
 798 000c C231     		se_lwz %r3,8(%r1)
GAS LISTING C:\Users\bayra\AppData\Local\Temp\ccUx7mN5.s 			page 15


 799 000e C341     		se_lwz %r4,12(%r1)
 800 0010 78000001 		e_bl xEventGroupSetBits
 801              		.loc 1 660 0
 802 0014 C501     		se_lwz %r0,20(%r1)
 803 0016 0090     		se_mtlr %r0
 804 0018 20F1     		se_addi %r1,16
 805              	.LCFI15:
 806              		.cfi_def_cfa_offset 0
 807 001a 0004     		se_blr
 808              		.cfi_endproc
 809              	.LFE7:
 810              		.size	vEventGroupSetBitsCallback, .-vEventGroupSetBitsCallback
 811              		.section	.text.vEventGroupClearBitsCallback,"axv",@progbits
 812              		.align 1
 813              		.p2align 4,,15
 814              		.globl vEventGroupClearBitsCallback
 815              		.type	vEventGroupClearBitsCallback, @function
 816              	vEventGroupClearBitsCallback:
 817              	.LFB8:
 818              		.loc 1 666 0
 819              		.cfi_startproc
 820 0000 182106F0 		e_stwu %r1,-16(%r1)
 821              	.LCFI16:
 822              		.cfi_def_cfa_offset 16
 823 0004 0080     		se_mflr %r0
 824 0006 D501     		se_stw %r0,20(%r1)
 825              		.cfi_offset 65, 4
 826 0008 D231     		se_stw %r3,8(%r1)
 827 000a D341     		se_stw %r4,12(%r1)
 828              		.loc 1 667 0
 829 000c C231     		se_lwz %r3,8(%r1)
 830 000e C341     		se_lwz %r4,12(%r1)
 831 0010 78000001 		e_bl xEventGroupClearBits
 832              		.loc 1 668 0
 833 0014 C501     		se_lwz %r0,20(%r1)
 834 0016 0090     		se_mtlr %r0
 835 0018 20F1     		se_addi %r1,16
 836              	.LCFI17:
 837              		.cfi_def_cfa_offset 0
 838 001a 0004     		se_blr
 839              		.cfi_endproc
 840              	.LFE8:
 841              		.size	vEventGroupClearBitsCallback, .-vEventGroupClearBitsCallback
 842              		.section	.text.prvTestWaitCondition,"axv",@progbits
 843              		.align 1
 844              		.p2align 4,,15
 845              		.type	prvTestWaitCondition, @function
 846              	prvTestWaitCondition:
 847              	.LFB9:
 848              		.loc 1 672 0
 849              		.cfi_startproc
 850 0000 182106D8 		e_stwu %r1,-40(%r1)
 851              	.LCFI18:
 852              		.cfi_def_cfa_offset 40
 853 0004 D631     		se_stw %r3,24(%r1)
 854 0006 D741     		se_stw %r4,28(%r1)
 855 0008 D851     		se_stw %r5,32(%r1)
GAS LISTING C:\Users\bayra\AppData\Local\Temp\ccUx7mN5.s 			page 16


 856              		.loc 1 673 0
 857 000a 4807     		se_li %r7,0
 858 000c D271     		se_stw %r7,8(%r1)
 859              		.loc 1 675 0
 860 000e C871     		se_lwz %r7,32(%r1)
 861 0010 2A07     		se_cmpi %r7,0
 862 0012 7F800020 		e_mcrf %cr7,%cr0
 863 0016 7CE00026 		mfcr %r7
 864 001a 74E7E007 		e_rlwinm %r7,%r7,28,0xf0000000
 865 001e 7CE80120 		mtcrf 128,%r7
 866 0022 7A020028 		e_bne %cr0,.L42
 867              		.loc 1 679 0
 868 0026 C661     		se_lwz %r6,24(%r1)
 869 0028 C771     		se_lwz %r7,28(%r1)
 870 002a 4667     		se_and %r7,%r6
 871 002c 2A07     		se_cmpi %r7,0
 872 002e 7F800020 		e_mcrf %cr7,%cr0
 873 0032 7CE00026 		mfcr %r7
 874 0036 74E7E007 		e_rlwinm %r7,%r7,28,0xf0000000
 875 003a 7CE80120 		mtcrf 128,%r7
 876 003e 7A12002C 		e_beq %cr0,.L43
 877              		.loc 1 681 0
 878 0042 4817     		se_li %r7,1
 879 0044 D271     		se_stw %r7,8(%r1)
 880 0046 78000024 		e_b .L43
 881              	.L42:
 882              		.loc 1 692 0
 883 004a C661     		se_lwz %r6,24(%r1)
 884 004c C771     		se_lwz %r7,28(%r1)
 885 004e 4676     		se_and %r6,%r7
 886 0050 C771     		se_lwz %r7,28(%r1)
 887 0052 7F863800 		cmp %cr7,%r6,%r7
 888 0056 7CE00026 		mfcr %r7
 889 005a 74E7E007 		e_rlwinm %r7,%r7,28,0xf0000000
 890 005e 7CE80120 		mtcrf 128,%r7
 891 0062 7A020008 		e_bne %cr0,.L43
 892              		.loc 1 694 0
 893 0066 4817     		se_li %r7,1
 894 0068 D271     		se_stw %r7,8(%r1)
 895              	.L43:
 896              		.loc 1 702 0
 897 006a C271     		se_lwz %r7,8(%r1)
 898              		.loc 1 703 0
 899 006c 0173     		se_mr %r3,%r7
 900 006e 18218028 		e_addi %r1,%r1,40
 901              	.LCFI19:
 902              		.cfi_def_cfa_offset 0
 903 0072 0004     		se_blr
 904              		.cfi_endproc
 905              	.LFE9:
 906              		.size	prvTestWaitCondition, .-prvTestWaitCondition
 907              		.section	".text","axv"
 908              	.Letext0:
 909              		.file 2 "c:\\spc5studio-6.0\\eclipse\\plugins\\com.st.tools.spc5.tools.gnu.gcc.ppcvle.win32_4.9.4.
 910              		.file 3 "c:\\spc5studio-6.0\\eclipse\\plugins\\com.st.tools.spc5.tools.gnu.gcc.ppcvle.win32_4.9.4.
 911              		.file 4 "./components/spc5_freertos_component_rla/lib/portable/portmacro.h"
 912              		.file 5 "./components/spc5_freertos_component_rla/lib/include/list.h"
GAS LISTING C:\Users\bayra\AppData\Local\Temp\ccUx7mN5.s 			page 17


 913              		.file 6 "./components/spc5_freertos_component_rla/lib/include/event_groups.h"