GAS LISTING C:\Users\bayra\AppData\Local\Temp\ccltLFEq.s 			page 1


   1              		.file	"h10B.c"
   2              		.section	".text","axv"
   3              	.Ltext0:
   4              		.cfi_sections	.debug_frame
   5              		.section	.text.manupilate_h10B,"axv",@progbits
   6              		.align 1
   7              		.p2align 4,,15
   8              		.globl manupilate_h10B
   9              		.type	manupilate_h10B, @function
  10              	manupilate_h10B:
  11              	.LFB0:
  12              		.file 1 "./source/src/h10B.c"
  13              		.loc 1 10 0
  14              		.cfi_startproc
  15              	.LVL0:
  16 0000 182106F0 		e_stwu %r1,-16(%r1)
  17              	.LCFI0:
  18              		.cfi_def_cfa_offset 16
  19 0004 0080     		se_mflr %r0
  20 0006 D3F1     		se_stw %r31,12(%r1)
  21 0008 D501     		se_stw %r0,20(%r1)
  22              		.cfi_offset 65, 4
  23              		.cfi_offset 31, -4
  24              		.loc 1 10 0
  25 000a 013F     		se_mr %r31,%r3
  26              		.loc 1 11 0
  27 000c 2A04     		se_cmpi %r4,0
  28              	.LVL1:
  29 000e 7A12001C 		e_beq %cr0,.L2
  30              	.LVL2:
  31              	.LBB2:
  32              		.loc 1 15 0
  33 0012 8133     		se_lbz %r3,1(%r3)
  34              	.LVL3:
  35              		.loc 1 20 0
  36 0014 827F     		se_lbz %r7,2(%r31)
  37              		.loc 1 16 0
  38 0016 7C802070 		e_slwi %r0,%r4,4
  39              		.loc 1 15 0
  40 001a 2EF3     		se_andi %r3,15
  41              		.loc 1 17 0
  42 001c 6844     		se_srwi %r4,4
  43              	.LVL4:
  44              		.loc 1 16 0
  45 001e 4403     		se_or %r3,%r0
  46              		.loc 1 20 0
  47 0020 18E7C4F0 		e_andi %r7,%r7,-16
  48              		.loc 1 19 0
  49 0024 913F     		se_stb %r3,1(%r31)
  50              		.loc 1 20 0
  51 0026 4474     		se_or %r4,%r7
  52 0028 924F     		se_stb %r4,2(%r31)
  53              	.L2:
  54              	.LBE2:
  55              		.loc 1 22 0
  56 002a 7CA42070 		e_slwi %r4,%r5,4
  57              		.loc 1 23 0
GAS LISTING C:\Users\bayra\AppData\Local\Temp\ccltLFEq.s 			page 2


  58 002e 74A7E63F 		e_rlwinm %r7,%r5,28,24,31
  59              		.loc 1 22 0
  60 0032 994F     		se_stb %r4,9(%r31)
  61              		.loc 1 23 0
  62 0034 9A7F     		se_stb %r7,10(%r31)
  63              		.loc 1 24 0
  64 0036 2245     		se_cmpli %r5,5
  65 0038 7A110028 		e_bgt %cr0,.L6
  66              		.loc 1 27 0
  67 003c 4937     		se_li %r7,19
  68              		.loc 1 30 0
  69 003e 34DF001F 		e_stb %r6,31(%r31)
  70              		.loc 1 27 0
  71 0042 9B7F     		se_stb %r7,11(%r31)
  72              		.loc 1 31 0
  73 0044 01F3     		se_mr %r3,%r31
  74              		.loc 1 29 0
  75 0046 4987     		se_li %r7,24
  76              		.loc 1 31 0
  77 0048 4A04     		se_li %r4,32
  78              		.loc 1 29 0
  79 004a 9D7F     		se_stb %r7,13(%r31)
  80              		.loc 1 31 0
  81 004c 70A0010B 		e_li %r5,267
  82              	.LVL5:
  83 0050 78000001 		e_bl Crc_CalculateCRC8H2F
  84              	.LVL6:
  85 0054 903F     		se_stb %r3,0(%r31)
  86              		.loc 1 32 0
  87 0056 C501     		se_lwz %r0,20(%r1)
  88 0058 0090     		se_mtlr %r0
  89              		.cfi_remember_state
  90              		.cfi_restore 65
  91 005a C3F1     		se_lwz %r31,12(%r1)
  92              	.LVL7:
  93 005c 20F1     		se_addi %r1,16
  94              	.LCFI1:
  95              		.cfi_restore 31
  96              		.cfi_def_cfa_offset 0
  97 005e 0004     		se_blr
  98              	.LVL8:
  99              	.L6:
 100              	.LCFI2:
 101              		.cfi_restore_state
 102              		.loc 1 25 0
 103 0060 4D37     		se_li %r7,83
 104              		.loc 1 30 0
 105 0062 34DF001F 		e_stb %r6,31(%r31)
 106              		.loc 1 25 0
 107 0066 9B7F     		se_stb %r7,11(%r31)
 108              		.loc 1 31 0
 109 0068 01F3     		se_mr %r3,%r31
 110              		.loc 1 29 0
 111 006a 4987     		se_li %r7,24
 112              		.loc 1 31 0
 113 006c 4A04     		se_li %r4,32
 114              		.loc 1 29 0
GAS LISTING C:\Users\bayra\AppData\Local\Temp\ccltLFEq.s 			page 3


 115 006e 9D7F     		se_stb %r7,13(%r31)
 116              		.loc 1 31 0
 117 0070 70A0010B 		e_li %r5,267
 118              	.LVL9:
 119 0074 78000001 		e_bl Crc_CalculateCRC8H2F
 120              	.LVL10:
 121 0078 903F     		se_stb %r3,0(%r31)
 122              		.loc 1 32 0
 123 007a C501     		se_lwz %r0,20(%r1)
 124 007c 0090     		se_mtlr %r0
 125              		.cfi_restore 65
 126 007e C3F1     		se_lwz %r31,12(%r1)
 127              	.LVL11:
 128 0080 20F1     		se_addi %r1,16
 129              	.LCFI3:
 130              		.cfi_restore 31
 131              		.cfi_def_cfa_offset 0
 132 0082 0004     		se_blr
 133              		.cfi_endproc
 134              	.LFE0:
 135              		.size	manupilate_h10B, .-manupilate_h10B
 136              		.section	".text","axv"
 137              	.Letext0:
 138              		.file 2 "c:\\spc5studio-6.0\\eclipse\\plugins\\com.st.tools.spc5.tools.gnu.gcc.ppcvle.win32_4.9.4.
 139              		.file 3 "c:\\spc5studio-6.0\\eclipse\\plugins\\com.st.tools.spc5.tools.gnu.gcc.ppcvle.win32_4.9.4.
 140              		.file 4 "./source/inc/crc.h"