GAS LISTING C:\Users\bayra\AppData\Local\Temp\ccigPvSf.s 			page 1


   1              		.file	"heap_4.c"
   2              		.section	".text","axv"
   3              	.Ltext0:
   4              		.cfi_sections	.debug_frame
   5              		.section	.bss.ucHeap,"aw",@nobits
   6              		.align 2
   7              		.type	ucHeap, @object
   8              		.size	ucHeap, 32768
   9              	ucHeap:
  10 0000 00000000 		.zero	32768
  10      00000000 
  10      00000000 
  10      00000000 
  10      00000000 
  11              		.section	.rodata.xHeapStructSize,"a",@progbits
  12              		.align 2
  13              		.type	xHeapStructSize, @object
  14              		.size	xHeapStructSize, 4
  15              	xHeapStructSize:
  16 0000 00000008 		.long	8
  17              		.section	.bss.xStart,"aw",@nobits
  18              		.align 2
  19              		.type	xStart, @object
  20              		.size	xStart, 8
  21              	xStart:
  22 0000 00000000 		.zero	8
  22      00000000 
  23              		.section	.bss.pxEnd,"aw",@nobits
  24              		.align 2
  25              		.type	pxEnd, @object
  26              		.size	pxEnd, 4
  27              	pxEnd:
  28 0000 00000000 		.zero	4
  29              		.section	.bss.xFreeBytesRemaining,"aw",@nobits
  30              		.align 2
  31              		.type	xFreeBytesRemaining, @object
  32              		.size	xFreeBytesRemaining, 4
  33              	xFreeBytesRemaining:
  34 0000 00000000 		.zero	4
  35              		.section	.bss.xMinimumEverFreeBytesRemaining,"aw",@nobits
  36              		.align 2
  37              		.type	xMinimumEverFreeBytesRemaining, @object
  38              		.size	xMinimumEverFreeBytesRemaining, 4
  39              	xMinimumEverFreeBytesRemaining:
  40 0000 00000000 		.zero	4
  41              		.section	.bss.xBlockAllocatedBit,"aw",@nobits
  42              		.align 2
  43              		.type	xBlockAllocatedBit, @object
  44              		.size	xBlockAllocatedBit, 4
  45              	xBlockAllocatedBit:
  46 0000 00000000 		.zero	4
  47              		.section	.text.pvPortMalloc,"axv",@progbits
  48              		.align 1
  49              		.p2align 4,,15
  50              		.globl pvPortMalloc
  51              		.type	pvPortMalloc, @function
  52              	pvPortMalloc:
GAS LISTING C:\Users\bayra\AppData\Local\Temp\ccigPvSf.s 			page 2


  53              	.LFB0:
  54              		.file 1 "./components/spc5_freertos_component_rla/lib/MemMang/heap_4.c"
  55              		.loc 1 114 0
  56              		.cfi_startproc
  57 0000 182106E0 		e_stwu %r1,-32(%r1)
  58              	.LCFI0:
  59              		.cfi_def_cfa_offset 32
  60 0004 0080     		se_mflr %r0
  61 0006 D901     		se_stw %r0,36(%r1)
  62              		.cfi_offset 65, 4
  63 0008 D631     		se_stw %r3,24(%r1)
  64              		.loc 1 116 0
  65 000a 4807     		se_li %r7,0
  66 000c D471     		se_stw %r7,16(%r1)
  67              		.loc 1 118 0
  68 000e 78000001 		e_bl vTaskSuspendAll
  69              		.loc 1 122 0
  70 0012 70E0E000 		e_lis %r7,pxEnd@ha
  71 0016 50E70000 		e_lwz %r7,pxEnd@l(%r7)
  72 001a 2A07     		se_cmpi %r7,0
  73 001c 7F800020 		e_mcrf %cr7,%cr0
  74 0020 7CE00026 		mfcr %r7
  75 0024 74E7E007 		e_rlwinm %r7,%r7,28,0xf0000000
  76 0028 7CE80120 		mtcrf 128,%r7
  77 002c 7A020008 		e_bne %cr0,.L2
  78              		.loc 1 124 0
  79 0030 78000001 		e_bl prvHeapInit
  80              	.L2:
  81              		.loc 1 135 0
  82 0034 70E0E000 		e_lis %r7,xBlockAllocatedBit@ha
  83 0038 50C70000 		e_lwz %r6,xBlockAllocatedBit@l(%r7)
  84 003c C671     		se_lwz %r7,24(%r1)
  85 003e 4667     		se_and %r7,%r6
  86 0040 2A07     		se_cmpi %r7,0
  87 0042 7F800020 		e_mcrf %cr7,%cr0
  88 0046 7CE00026 		mfcr %r7
  89 004a 74E7E007 		e_rlwinm %r7,%r7,28,0xf0000000
  90 004e 7CE80120 		mtcrf 128,%r7
  91 0052 7A0201AE 		e_bne %cr0,.L3
  92              		.loc 1 139 0
  93 0056 C671     		se_lwz %r7,24(%r1)
  94 0058 2A07     		se_cmpi %r7,0
  95 005a 7F800020 		e_mcrf %cr7,%cr0
  96 005e 7CE00026 		mfcr %r7
  97 0062 74E7E007 		e_rlwinm %r7,%r7,28,0xf0000000
  98 0066 7CE80120 		mtcrf 128,%r7
  99 006a 7A120032 		e_beq %cr0,.L4
 100              		.loc 1 141 0
 101 006e 4887     		se_li %r7,8
 102 0070 C661     		se_lwz %r6,24(%r1)
 103 0072 7CE63A14 		add %r7,%r6,%r7
 104 0076 D671     		se_stw %r7,24(%r1)
 105              		.loc 1 145 0
 106 0078 C671     		se_lwz %r7,24(%r1)
 107 007a 2E37     		se_andi %r7,3
 108 007c 2A07     		se_cmpi %r7,0
 109 007e 7F800020 		e_mcrf %cr7,%cr0
GAS LISTING C:\Users\bayra\AppData\Local\Temp\ccigPvSf.s 			page 3


 110 0082 7CE00026 		mfcr %r7
 111 0086 74E7E007 		e_rlwinm %r7,%r7,28,0xf0000000
 112 008a 7CE80120 		mtcrf 128,%r7
 113 008e 7A12000E 		e_beq %cr0,.L4
 114              		.loc 1 148 0
 115 0092 C671     		se_lwz %r7,24(%r1)
 116 0094 18E7C4FC 		e_andi %r7,%r7,-4
 117 0098 2037     		se_addi %r7,4
 118 009a D671     		se_stw %r7,24(%r1)
 119              	.L4:
 120              		.loc 1 161 0
 121 009c C671     		se_lwz %r7,24(%r1)
 122 009e 2A07     		se_cmpi %r7,0
 123 00a0 7F800020 		e_mcrf %cr7,%cr0
 124 00a4 7CE00026 		mfcr %r7
 125 00a8 74E7E007 		e_rlwinm %r7,%r7,28,0xf0000000
 126 00ac 7CE80120 		mtcrf 128,%r7
 127 00b0 7A120150 		e_beq %cr0,.L3
 128              		.loc 1 161 0 is_stmt 0 discriminator 1
 129 00b4 70E0E000 		e_lis %r7,xFreeBytesRemaining@ha
 130 00b8 50E70000 		e_lwz %r7,xFreeBytesRemaining@l(%r7)
 131 00bc C661     		se_lwz %r6,24(%r1)
 132 00be 7F863840 		cmpl %cr7,%r6,%r7
 133 00c2 7CE00026 		mfcr %r7
 134 00c6 74E7E007 		e_rlwinm %r7,%r7,28,0xf0000000
 135 00ca 7CE80120 		mtcrf 128,%r7
 136 00ce 7A110132 		e_bgt %cr0,.L3
 137              		.loc 1 165 0 is_stmt 1
 138 00d2 70E0E000 		e_lis %r7,xStart@ha
 139 00d6 1CE70000 		e_la %r7,xStart@l(%r7)
 140 00da D371     		se_stw %r7,12(%r1)
 141              		.loc 1 166 0
 142 00dc 70E0E000 		e_lis %r7,xStart@ha
 143 00e0 1CE70000 		e_la %r7,xStart@l(%r7)
 144 00e4 C077     		se_lwz %r7,0(%r7)
 145 00e6 D271     		se_stw %r7,8(%r1)
 146              		.loc 1 167 0
 147 00e8 7800000E 		e_b .L5
 148              	.L7:
 149              		.loc 1 169 0
 150 00ec C271     		se_lwz %r7,8(%r1)
 151 00ee D371     		se_stw %r7,12(%r1)
 152              		.loc 1 170 0
 153 00f0 C271     		se_lwz %r7,8(%r1)
 154 00f2 C077     		se_lwz %r7,0(%r7)
 155 00f4 D271     		se_stw %r7,8(%r1)
 156              	.L5:
 157              		.loc 1 167 0
 158 00f6 C271     		se_lwz %r7,8(%r1)
 159 00f8 C167     		se_lwz %r6,4(%r7)
 160 00fa C671     		se_lwz %r7,24(%r1)
 161 00fc 7F863840 		cmpl %cr7,%r6,%r7
 162 0100 7CE00026 		mfcr %r7
 163 0104 74E7E007 		e_rlwinm %r7,%r7,28,0xf0000000
 164 0108 7CE80120 		mtcrf 128,%r7
 165 010c 7A00001E 		e_bge %cr0,.L6
 166              		.loc 1 167 0 is_stmt 0 discriminator 1
GAS LISTING C:\Users\bayra\AppData\Local\Temp\ccigPvSf.s 			page 4


 167 0110 C271     		se_lwz %r7,8(%r1)
 168 0112 C077     		se_lwz %r7,0(%r7)
 169 0114 2A07     		se_cmpi %r7,0
 170 0116 7F800020 		e_mcrf %cr7,%cr0
 171 011a 7CE00026 		mfcr %r7
 172 011e 74E7E007 		e_rlwinm %r7,%r7,28,0xf0000000
 173 0122 7CE80120 		mtcrf 128,%r7
 174 0126 7A02FFC6 		e_bne %cr0,.L7
 175              	.L6:
 176              		.loc 1 175 0 is_stmt 1
 177 012a 70E0E000 		e_lis %r7,pxEnd@ha
 178 012e 50E70000 		e_lwz %r7,pxEnd@l(%r7)
 179 0132 C261     		se_lwz %r6,8(%r1)
 180 0134 7F863800 		cmp %cr7,%r6,%r7
 181 0138 7CE00026 		mfcr %r7
 182 013c 74E7E007 		e_rlwinm %r7,%r7,28,0xf0000000
 183 0140 7CE80120 		mtcrf 128,%r7
 184 0144 7A1200BC 		e_beq %cr0,.L3
 185              		.loc 1 179 0
 186 0148 C371     		se_lwz %r7,12(%r1)
 187 014a C067     		se_lwz %r6,0(%r7)
 188 014c 4887     		se_li %r7,8
 189 014e 7CE63A14 		add %r7,%r6,%r7
 190 0152 D471     		se_stw %r7,16(%r1)
 191              		.loc 1 183 0
 192 0154 C271     		se_lwz %r7,8(%r1)
 193 0156 C067     		se_lwz %r6,0(%r7)
 194 0158 C371     		se_lwz %r7,12(%r1)
 195 015a D067     		se_stw %r6,0(%r7)
 196              		.loc 1 187 0
 197 015c C271     		se_lwz %r7,8(%r1)
 198 015e C167     		se_lwz %r6,4(%r7)
 199 0160 C671     		se_lwz %r7,24(%r1)
 200 0162 0676     		se_sub %r6, %r7
 201 0164 4887     		se_li %r7,8
 202 0166 6C17     		se_slwi %r7, 1
 203 0168 7F863840 		cmpl %cr7,%r6,%r7
 204 016c 7CE00026 		mfcr %r7
 205 0170 74E7E007 		e_rlwinm %r7,%r7,28,0xf0000000
 206 0174 7CE80120 		mtcrf 128,%r7
 207 0178 7A010026 		e_ble %cr0,.L8
 208              		.loc 1 193 0
 209 017c C261     		se_lwz %r6,8(%r1)
 210 017e C671     		se_lwz %r7,24(%r1)
 211 0180 7CE63A14 		add %r7,%r6,%r7
 212 0184 D571     		se_stw %r7,20(%r1)
 213              		.loc 1 198 0
 214 0186 C271     		se_lwz %r7,8(%r1)
 215 0188 C167     		se_lwz %r6,4(%r7)
 216 018a C671     		se_lwz %r7,24(%r1)
 217 018c 0676     		se_sub %r6, %r7
 218 018e C571     		se_lwz %r7,20(%r1)
 219 0190 D167     		se_stw %r6,4(%r7)
 220              		.loc 1 199 0
 221 0192 C271     		se_lwz %r7,8(%r1)
 222 0194 C661     		se_lwz %r6,24(%r1)
 223 0196 D167     		se_stw %r6,4(%r7)
GAS LISTING C:\Users\bayra\AppData\Local\Temp\ccigPvSf.s 			page 5


 224              		.loc 1 202 0
 225 0198 C531     		se_lwz %r3,20(%r1)
 226 019a 78000001 		e_bl prvInsertBlockIntoFreeList
 227              	.L8:
 228              		.loc 1 209 0
 229 019e 70E0E000 		e_lis %r7,xFreeBytesRemaining@ha
 230 01a2 50C70000 		e_lwz %r6,xFreeBytesRemaining@l(%r7)
 231 01a6 C271     		se_lwz %r7,8(%r1)
 232 01a8 C177     		se_lwz %r7,4(%r7)
 233 01aa 0676     		se_sub %r6, %r7
 234 01ac 70E0E000 		e_lis %r7,xFreeBytesRemaining@ha
 235 01b0 54C70000 		e_stw %r6,xFreeBytesRemaining@l(%r7)
 236              		.loc 1 211 0
 237 01b4 70E0E000 		e_lis %r7,xFreeBytesRemaining@ha
 238 01b8 50C70000 		e_lwz %r6,xFreeBytesRemaining@l(%r7)
 239 01bc 70E0E000 		e_lis %r7,xMinimumEverFreeBytesRemaining@ha
 240 01c0 50E70000 		e_lwz %r7,xMinimumEverFreeBytesRemaining@l(%r7)
 241 01c4 7F863840 		cmpl %cr7,%r6,%r7
 242 01c8 7CE00026 		mfcr %r7
 243 01cc 74E7E007 		e_rlwinm %r7,%r7,28,0xf0000000
 244 01d0 7CE80120 		mtcrf 128,%r7
 245 01d4 7A000014 		e_bge %cr0,.L9
 246              		.loc 1 213 0
 247 01d8 70E0E000 		e_lis %r7,xFreeBytesRemaining@ha
 248 01dc 50C70000 		e_lwz %r6,xFreeBytesRemaining@l(%r7)
 249 01e0 70E0E000 		e_lis %r7,xMinimumEverFreeBytesRemaining@ha
 250 01e4 54C70000 		e_stw %r6,xMinimumEverFreeBytesRemaining@l(%r7)
 251              	.L9:
 252              		.loc 1 222 0
 253 01e8 C271     		se_lwz %r7,8(%r1)
 254 01ea C167     		se_lwz %r6,4(%r7)
 255 01ec 70E0E000 		e_lis %r7,xBlockAllocatedBit@ha
 256 01f0 50E70000 		e_lwz %r7,xBlockAllocatedBit@l(%r7)
 257 01f4 4476     		se_or %r6,%r7
 258 01f6 C271     		se_lwz %r7,8(%r1)
 259 01f8 D167     		se_stw %r6,4(%r7)
 260              		.loc 1 223 0
 261 01fa C271     		se_lwz %r7,8(%r1)
 262 01fc 4806     		se_li %r6,0
 263 01fe D067     		se_stw %r6,0(%r7)
 264              	.L3:
 265              		.loc 1 242 0
 266 0200 78000001 		e_bl xTaskResumeAll
 267              		.loc 1 259 0
 268 0204 C471     		se_lwz %r7,16(%r1)
 269              		.loc 1 260 0
 270 0206 0173     		se_mr %r3,%r7
 271 0208 C901     		se_lwz %r0,36(%r1)
 272 020a 0090     		se_mtlr %r0
 273 020c 21F1     		se_addi %r1,32
 274              	.LCFI1:
 275              		.cfi_def_cfa_offset 0
 276 020e 0004     		se_blr
 277              		.cfi_endproc
 278              	.LFE0:
 279              		.size	pvPortMalloc, .-pvPortMalloc
 280              		.section	.text.vPortFree,"axv",@progbits
GAS LISTING C:\Users\bayra\AppData\Local\Temp\ccigPvSf.s 			page 6


 281              		.align 1
 282              		.p2align 4,,15
 283              		.globl vPortFree
 284              		.type	vPortFree, @function
 285              	vPortFree:
 286              	.LFB1:
 287              		.loc 1 264 0
 288              		.cfi_startproc
 289 0000 182106E0 		e_stwu %r1,-32(%r1)
 290              	.LCFI2:
 291              		.cfi_def_cfa_offset 32
 292 0004 0080     		se_mflr %r0
 293 0006 D901     		se_stw %r0,36(%r1)
 294              		.cfi_offset 65, 4
 295 0008 D631     		se_stw %r3,24(%r1)
 296              		.loc 1 265 0
 297 000a C671     		se_lwz %r7,24(%r1)
 298 000c D271     		se_stw %r7,8(%r1)
 299              		.loc 1 268 0
 300 000e C671     		se_lwz %r7,24(%r1)
 301 0010 2A07     		se_cmpi %r7,0
 302 0012 7F800020 		e_mcrf %cr7,%cr0
 303 0016 7CE00026 		mfcr %r7
 304 001a 74E7E007 		e_rlwinm %r7,%r7,28,0xf0000000
 305 001e 7CE80120 		mtcrf 128,%r7
 306 0022 7A12008A 		e_beq %cr0,.L11
 307              		.loc 1 272 0
 308 0026 4887     		se_li %r7,8
 309 0028 0037     		se_neg %r7
 310 002a C261     		se_lwz %r6,8(%r1)
 311 002c 7CE63A14 		add %r7,%r6,%r7
 312 0030 D271     		se_stw %r7,8(%r1)
 313              		.loc 1 275 0
 314 0032 C271     		se_lwz %r7,8(%r1)
 315 0034 D371     		se_stw %r7,12(%r1)
 316              		.loc 1 281 0
 317 0036 C371     		se_lwz %r7,12(%r1)
 318 0038 C167     		se_lwz %r6,4(%r7)
 319 003a 70E0E000 		e_lis %r7,xBlockAllocatedBit@ha
 320 003e 50E70000 		e_lwz %r7,xBlockAllocatedBit@l(%r7)
 321 0042 4667     		se_and %r7,%r6
 322 0044 2A07     		se_cmpi %r7,0
 323 0046 7F800020 		e_mcrf %cr7,%cr0
 324 004a 7CE00026 		mfcr %r7
 325 004e 74E7E007 		e_rlwinm %r7,%r7,28,0xf0000000
 326 0052 7CE80120 		mtcrf 128,%r7
 327 0056 7A120056 		e_beq %cr0,.L11
 328              		.loc 1 283 0
 329 005a C371     		se_lwz %r7,12(%r1)
 330 005c C077     		se_lwz %r7,0(%r7)
 331 005e 2A07     		se_cmpi %r7,0
 332 0060 7F800020 		e_mcrf %cr7,%cr0
 333 0064 7CE00026 		mfcr %r7
 334 0068 74E7E007 		e_rlwinm %r7,%r7,28,0xf0000000
 335 006c 7CE80120 		mtcrf 128,%r7
 336 0070 7A02003C 		e_bne %cr0,.L11
 337              		.loc 1 287 0
GAS LISTING C:\Users\bayra\AppData\Local\Temp\ccigPvSf.s 			page 7


 338 0074 C371     		se_lwz %r7,12(%r1)
 339 0076 C167     		se_lwz %r6,4(%r7)
 340 0078 70E0E000 		e_lis %r7,xBlockAllocatedBit@ha
 341 007c 50E70000 		e_lwz %r7,xBlockAllocatedBit@l(%r7)
 342 0080 0027     		se_not %r7
 343 0082 4676     		se_and %r6,%r7
 344 0084 C371     		se_lwz %r7,12(%r1)
 345 0086 D167     		se_stw %r6,4(%r7)
 346              		.loc 1 289 0
 347 0088 78000001 		e_bl vTaskSuspendAll
 348              		.loc 1 292 0
 349 008c C371     		se_lwz %r7,12(%r1)
 350 008e C167     		se_lwz %r6,4(%r7)
 351 0090 70E0E000 		e_lis %r7,xFreeBytesRemaining@ha
 352 0094 50E70000 		e_lwz %r7,xFreeBytesRemaining@l(%r7)
 353 0098 0476     		se_add %r6,%r7
 354 009a 70E0E000 		e_lis %r7,xFreeBytesRemaining@ha
 355 009e 54C70000 		e_stw %r6,xFreeBytesRemaining@l(%r7)
 356              		.loc 1 294 0
 357 00a2 C331     		se_lwz %r3,12(%r1)
 358 00a4 78000001 		e_bl prvInsertBlockIntoFreeList
 359              		.loc 1 296 0
 360 00a8 78000001 		e_bl xTaskResumeAll
 361              	.L11:
 362              		.loc 1 308 0
 363 00ac C901     		se_lwz %r0,36(%r1)
 364 00ae 0090     		se_mtlr %r0
 365 00b0 21F1     		se_addi %r1,32
 366              	.LCFI3:
 367              		.cfi_def_cfa_offset 0
 368 00b2 0004     		se_blr
 369              		.cfi_endproc
 370              	.LFE1:
 371              		.size	vPortFree, .-vPortFree
 372              		.section	.text.xPortGetFreeHeapSize,"axv",@progbits
 373              		.align 1
 374              		.p2align 4,,15
 375              		.globl xPortGetFreeHeapSize
 376              		.type	xPortGetFreeHeapSize, @function
 377              	xPortGetFreeHeapSize:
 378              	.LFB2:
 379              		.loc 1 312 0
 380              		.cfi_startproc
 381              		.loc 1 313 0
 382 0000 70E0E000 		e_lis %r7,xFreeBytesRemaining@ha
 383 0004 50E70000 		e_lwz %r7,xFreeBytesRemaining@l(%r7)
 384              		.loc 1 314 0
 385 0008 0173     		se_mr %r3,%r7
 386 000a 0004     		se_blr
 387              		.cfi_endproc
 388              	.LFE2:
 389              		.size	xPortGetFreeHeapSize, .-xPortGetFreeHeapSize
 390              		.section	.text.xPortGetMinimumEverFreeHeapSize,"axv",@progbits
 391              		.align 1
 392              		.p2align 4,,15
 393              		.globl xPortGetMinimumEverFreeHeapSize
 394              		.type	xPortGetMinimumEverFreeHeapSize, @function
GAS LISTING C:\Users\bayra\AppData\Local\Temp\ccigPvSf.s 			page 8


 395              	xPortGetMinimumEverFreeHeapSize:
 396              	.LFB3:
 397              		.loc 1 318 0
 398              		.cfi_startproc
 399              		.loc 1 319 0
 400 0000 70E0E000 		e_lis %r7,xMinimumEverFreeBytesRemaining@ha
 401 0004 50E70000 		e_lwz %r7,xMinimumEverFreeBytesRemaining@l(%r7)
 402              		.loc 1 320 0
 403 0008 0173     		se_mr %r3,%r7
 404 000a 0004     		se_blr
 405              		.cfi_endproc
 406              	.LFE3:
 407              		.size	xPortGetMinimumEverFreeHeapSize, .-xPortGetMinimumEverFreeHeapSize
 408              		.section	.text.vPortInitialiseBlocks,"axv",@progbits
 409              		.align 1
 410              		.p2align 4,,15
 411              		.globl vPortInitialiseBlocks
 412              		.type	vPortInitialiseBlocks, @function
 413              	vPortInitialiseBlocks:
 414              	.LFB4:
 415              		.loc 1 324 0
 416              		.cfi_startproc
 417              		.loc 1 326 0
 418 0000 0004     		se_blr
 419              		.cfi_endproc
 420              	.LFE4:
 421              		.size	vPortInitialiseBlocks, .-vPortInitialiseBlocks
 422              		.section	.text.prvHeapInit,"axv",@progbits
 423              		.align 1
 424              		.p2align 4,,15
 425              		.type	prvHeapInit, @function
 426              	prvHeapInit:
 427              	.LFB5:
 428              		.loc 1 330 0
 429              		.cfi_startproc
 430 0000 182106E8 		e_stwu %r1,-24(%r1)
 431              	.LCFI4:
 432              		.cfi_def_cfa_offset 24
 433              		.loc 1 334 0
 434 0004 6307     		se_bgeni %r7,16
 435 0006 D371     		se_stw %r7,12(%r1)
 436              		.loc 1 337 0
 437 0008 70E0E000 		e_lis %r7,ucHeap@ha
 438 000c 1CE70000 		e_la %r7,ucHeap@l(%r7)
 439 0010 D271     		se_stw %r7,8(%r1)
 440              		.loc 1 339 0
 441 0012 C271     		se_lwz %r7,8(%r1)
 442 0014 2E37     		se_andi %r7,3
 443 0016 2A07     		se_cmpi %r7,0
 444 0018 7F800020 		e_mcrf %cr7,%cr0
 445 001c 7CE00026 		mfcr %r7
 446 0020 74E7E007 		e_rlwinm %r7,%r7,28,0xf0000000
 447 0024 7CE80120 		mtcrf 128,%r7
 448 0028 7A120026 		e_beq %cr0,.L19
 449              		.loc 1 341 0
 450 002c C271     		se_lwz %r7,8(%r1)
 451 002e 2027     		se_addi %r7,3
GAS LISTING C:\Users\bayra\AppData\Local\Temp\ccigPvSf.s 			page 9


 452 0030 D271     		se_stw %r7,8(%r1)
 453              		.loc 1 342 0
 454 0032 C271     		se_lwz %r7,8(%r1)
 455 0034 18E7C4FC 		e_andi %r7,%r7,-4
 456 0038 D271     		se_stw %r7,8(%r1)
 457              		.loc 1 343 0
 458 003a C361     		se_lwz %r6,12(%r1)
 459 003c C271     		se_lwz %r7,8(%r1)
 460 003e 0676     		se_sub %r6, %r7
 461 0040 70E0E000 		e_lis %r7,ucHeap@ha
 462 0044 1CE70000 		e_la %r7,ucHeap@l(%r7)
 463 0048 7CE63A14 		add %r7,%r6,%r7
 464 004c D371     		se_stw %r7,12(%r1)
 465              	.L19:
 466              		.loc 1 346 0
 467 004e C271     		se_lwz %r7,8(%r1)
 468 0050 D471     		se_stw %r7,16(%r1)
 469              		.loc 1 350 0
 470 0052 70E0E000 		e_lis %r7,xStart@ha
 471 0056 1CE70000 		e_la %r7,xStart@l(%r7)
 472 005a C461     		se_lwz %r6,16(%r1)
 473 005c D067     		se_stw %r6,0(%r7)
 474              		.loc 1 351 0
 475 005e 70E0E000 		e_lis %r7,xStart@ha
 476 0062 1CE70000 		e_la %r7,xStart@l(%r7)
 477 0066 4806     		se_li %r6,0
 478 0068 D167     		se_stw %r6,4(%r7)
 479              		.loc 1 355 0
 480 006a C461     		se_lwz %r6,16(%r1)
 481 006c C371     		se_lwz %r7,12(%r1)
 482 006e 7CE63A14 		add %r7,%r6,%r7
 483 0072 D271     		se_stw %r7,8(%r1)
 484              		.loc 1 356 0
 485 0074 4887     		se_li %r7,8
 486 0076 C261     		se_lwz %r6,8(%r1)
 487 0078 0767     		se_subf %r7, %r6
 488 007a D271     		se_stw %r7,8(%r1)
 489              		.loc 1 357 0
 490 007c C271     		se_lwz %r7,8(%r1)
 491 007e 18E7C4FC 		e_andi %r7,%r7,-4
 492 0082 D271     		se_stw %r7,8(%r1)
 493              		.loc 1 358 0
 494 0084 C261     		se_lwz %r6,8(%r1)
 495 0086 70E0E000 		e_lis %r7,pxEnd@ha
 496 008a 54C70000 		e_stw %r6,pxEnd@l(%r7)
 497              		.loc 1 359 0
 498 008e 70E0E000 		e_lis %r7,pxEnd@ha
 499 0092 50E70000 		e_lwz %r7,pxEnd@l(%r7)
 500 0096 4806     		se_li %r6,0
 501 0098 D167     		se_stw %r6,4(%r7)
 502              		.loc 1 360 0
 503 009a 70E0E000 		e_lis %r7,pxEnd@ha
 504 009e 50E70000 		e_lwz %r7,pxEnd@l(%r7)
 505 00a2 4806     		se_li %r6,0
 506 00a4 D067     		se_stw %r6,0(%r7)
 507              		.loc 1 364 0
 508 00a6 C471     		se_lwz %r7,16(%r1)
GAS LISTING C:\Users\bayra\AppData\Local\Temp\ccigPvSf.s 			page 10


 509 00a8 D571     		se_stw %r7,20(%r1)
 510              		.loc 1 365 0
 511 00aa C571     		se_lwz %r7,20(%r1)
 512 00ac C261     		se_lwz %r6,8(%r1)
 513 00ae 0676     		se_sub %r6, %r7
 514 00b0 C571     		se_lwz %r7,20(%r1)
 515 00b2 D167     		se_stw %r6,4(%r7)
 516              		.loc 1 366 0
 517 00b4 70E0E000 		e_lis %r7,pxEnd@ha
 518 00b8 50C70000 		e_lwz %r6,pxEnd@l(%r7)
 519 00bc C571     		se_lwz %r7,20(%r1)
 520 00be D067     		se_stw %r6,0(%r7)
 521              		.loc 1 369 0
 522 00c0 C571     		se_lwz %r7,20(%r1)
 523 00c2 C167     		se_lwz %r6,4(%r7)
 524 00c4 70E0E000 		e_lis %r7,xMinimumEverFreeBytesRemaining@ha
 525 00c8 54C70000 		e_stw %r6,xMinimumEverFreeBytesRemaining@l(%r7)
 526              		.loc 1 370 0
 527 00cc C571     		se_lwz %r7,20(%r1)
 528 00ce C167     		se_lwz %r6,4(%r7)
 529 00d0 70E0E000 		e_lis %r7,xFreeBytesRemaining@ha
 530 00d4 54C70000 		e_stw %r6,xFreeBytesRemaining@l(%r7)
 531              		.loc 1 373 0
 532 00d8 70E0E000 		e_lis %r7,xBlockAllocatedBit@ha
 533 00dc 6206     		se_bgeni %r6,0
 534 00de 54C70000 		e_stw %r6,xBlockAllocatedBit@l(%r7)
 535              		.loc 1 374 0
 536 00e2 2171     		se_addi %r1,24
 537              	.LCFI5:
 538              		.cfi_def_cfa_offset 0
 539 00e4 0004     		se_blr
 540              		.cfi_endproc
 541              	.LFE5:
 542              		.size	prvHeapInit, .-prvHeapInit
 543              		.section	.text.prvInsertBlockIntoFreeList,"axv",@progbits
 544              		.align 1
 545              		.p2align 4,,15
 546              		.type	prvInsertBlockIntoFreeList, @function
 547              	prvInsertBlockIntoFreeList:
 548              	.LFB6:
 549              		.loc 1 378 0
 550              		.cfi_startproc
 551 0000 182106E0 		e_stwu %r1,-32(%r1)
 552              	.LCFI6:
 553              		.cfi_def_cfa_offset 32
 554 0004 D631     		se_stw %r3,24(%r1)
 555              		.loc 1 384 0
 556 0006 70E0E000 		e_lis %r7,xStart@ha
 557 000a 1CE70000 		e_la %r7,xStart@l(%r7)
 558 000e D271     		se_stw %r7,8(%r1)
 559 0010 7800000A 		e_b .L21
 560              	.L22:
 561              		.loc 1 384 0 is_stmt 0 discriminator 3
 562 0014 C271     		se_lwz %r7,8(%r1)
 563 0016 C077     		se_lwz %r7,0(%r7)
 564 0018 D271     		se_stw %r7,8(%r1)
 565              	.L21:
GAS LISTING C:\Users\bayra\AppData\Local\Temp\ccigPvSf.s 			page 11


 566              		.loc 1 384 0 discriminator 1
 567 001a C271     		se_lwz %r7,8(%r1)
 568 001c C067     		se_lwz %r6,0(%r7)
 569 001e C671     		se_lwz %r7,24(%r1)
 570 0020 7F863840 		cmpl %cr7,%r6,%r7
 571 0024 7CE00026 		mfcr %r7
 572 0028 74E7E007 		e_rlwinm %r7,%r7,28,0xf0000000
 573 002c 7CE80120 		mtcrf 128,%r7
 574 0030 7A10FFE4 		e_blt %cr0,.L22
 575              		.loc 1 391 0 is_stmt 1
 576 0034 C271     		se_lwz %r7,8(%r1)
 577 0036 D371     		se_stw %r7,12(%r1)
 578              		.loc 1 392 0
 579 0038 C271     		se_lwz %r7,8(%r1)
 580 003a C177     		se_lwz %r7,4(%r7)
 581 003c C361     		se_lwz %r6,12(%r1)
 582 003e 0476     		se_add %r6,%r7
 583 0040 C671     		se_lwz %r7,24(%r1)
 584 0042 7F863800 		cmp %cr7,%r6,%r7
 585 0046 7CE00026 		mfcr %r7
 586 004a 74E7E007 		e_rlwinm %r7,%r7,28,0xf0000000
 587 004e 7CE80120 		mtcrf 128,%r7
 588 0052 7A020016 		e_bne %cr0,.L23
 589              		.loc 1 394 0
 590 0056 C271     		se_lwz %r7,8(%r1)
 591 0058 C167     		se_lwz %r6,4(%r7)
 592 005a C671     		se_lwz %r7,24(%r1)
 593 005c C177     		se_lwz %r7,4(%r7)
 594 005e 0476     		se_add %r6,%r7
 595 0060 C271     		se_lwz %r7,8(%r1)
 596 0062 D167     		se_stw %r6,4(%r7)
 597              		.loc 1 395 0
 598 0064 C271     		se_lwz %r7,8(%r1)
 599 0066 D671     		se_stw %r7,24(%r1)
 600              	.L23:
 601              		.loc 1 404 0
 602 0068 C671     		se_lwz %r7,24(%r1)
 603 006a D371     		se_stw %r7,12(%r1)
 604              		.loc 1 405 0
 605 006c C671     		se_lwz %r7,24(%r1)
 606 006e C177     		se_lwz %r7,4(%r7)
 607 0070 C361     		se_lwz %r6,12(%r1)
 608 0072 0476     		se_add %r6,%r7
 609 0074 C271     		se_lwz %r7,8(%r1)
 610 0076 C077     		se_lwz %r7,0(%r7)
 611 0078 7F863840 		cmpl %cr7,%r6,%r7
 612 007c 7CE00026 		mfcr %r7
 613 0080 74E7E007 		e_rlwinm %r7,%r7,28,0xf0000000
 614 0084 7CE80120 		mtcrf 128,%r7
 615 0088 7A020052 		e_bne %cr0,.L24
 616              		.loc 1 407 0
 617 008c C271     		se_lwz %r7,8(%r1)
 618 008e C067     		se_lwz %r6,0(%r7)
 619 0090 70E0E000 		e_lis %r7,pxEnd@ha
 620 0094 50E70000 		e_lwz %r7,pxEnd@l(%r7)
 621 0098 7F863840 		cmpl %cr7,%r6,%r7
 622 009c 7CE00026 		mfcr %r7
GAS LISTING C:\Users\bayra\AppData\Local\Temp\ccigPvSf.s 			page 12


 623 00a0 74E7E007 		e_rlwinm %r7,%r7,28,0xf0000000
 624 00a4 7CE80120 		mtcrf 128,%r7
 625 00a8 7A120022 		e_beq %cr0,.L25
 626              		.loc 1 410 0
 627 00ac C671     		se_lwz %r7,24(%r1)
 628 00ae C167     		se_lwz %r6,4(%r7)
 629 00b0 C271     		se_lwz %r7,8(%r1)
 630 00b2 C077     		se_lwz %r7,0(%r7)
 631 00b4 C177     		se_lwz %r7,4(%r7)
 632 00b6 0476     		se_add %r6,%r7
 633 00b8 C671     		se_lwz %r7,24(%r1)
 634 00ba D167     		se_stw %r6,4(%r7)
 635              		.loc 1 411 0
 636 00bc C271     		se_lwz %r7,8(%r1)
 637 00be C077     		se_lwz %r7,0(%r7)
 638 00c0 C067     		se_lwz %r6,0(%r7)
 639 00c2 C671     		se_lwz %r7,24(%r1)
 640 00c4 D067     		se_stw %r6,0(%r7)
 641 00c6 7800001C 		e_b .L27
 642              	.L25:
 643              		.loc 1 415 0
 644 00ca 70E0E000 		e_lis %r7,pxEnd@ha
 645 00ce 50C70000 		e_lwz %r6,pxEnd@l(%r7)
 646 00d2 C671     		se_lwz %r7,24(%r1)
 647 00d4 D067     		se_stw %r6,0(%r7)
 648 00d6 7800000C 		e_b .L27
 649              	.L24:
 650              		.loc 1 420 0
 651 00da C271     		se_lwz %r7,8(%r1)
 652 00dc C067     		se_lwz %r6,0(%r7)
 653 00de C671     		se_lwz %r7,24(%r1)
 654 00e0 D067     		se_stw %r6,0(%r7)
 655              	.L27:
 656              		.loc 1 427 0
 657 00e2 C261     		se_lwz %r6,8(%r1)
 658 00e4 C671     		se_lwz %r7,24(%r1)
 659 00e6 7F863800 		cmp %cr7,%r6,%r7
 660 00ea 7CE00026 		mfcr %r7
 661 00ee 74E7E007 		e_rlwinm %r7,%r7,28,0xf0000000
 662 00f2 7CE80120 		mtcrf 128,%r7
 663 00f6 7A12000A 		e_beq %cr0,.L20
 664              		.loc 1 429 0
 665 00fa C271     		se_lwz %r7,8(%r1)
 666 00fc C661     		se_lwz %r6,24(%r1)
 667 00fe D067     		se_stw %r6,0(%r7)
 668              	.L20:
 669              		.loc 1 435 0
 670 0100 21F1     		se_addi %r1,32
 671              	.LCFI7:
 672              		.cfi_def_cfa_offset 0
 673 0102 0004     		se_blr
 674              		.cfi_endproc
 675              	.LFE6:
 676              		.size	prvInsertBlockIntoFreeList, .-prvInsertBlockIntoFreeList
 677              		.section	".text","axv"
 678              	.Letext0:
 679              		.file 2 "c:\\spc5studio-6.0\\eclipse\\plugins\\com.st.tools.spc5.tools.gnu.gcc.ppcvle.win32_4.9.4.
GAS LISTING C:\Users\bayra\AppData\Local\Temp\ccigPvSf.s 			page 13


 680              		.file 3 "c:\\spc5studio-6.0\\eclipse\\plugins\\com.st.tools.spc5.tools.gnu.gcc.ppcvle.win32_4.9.4.
 681              		.file 4 "c:\\spc5studio-6.0\\eclipse\\plugins\\com.st.tools.spc5.tools.gnu.gcc.ppcvle.win32_4.9.4.