GAS LISTING C:\Users\bayra\AppData\Local\Temp\cc06lqy6.s 			page 1


   1              		.file	"list.c"
   2              		.section	".text","axv"
   3              	.Ltext0:
   4              		.cfi_sections	.debug_frame
   5              		.section	.text.vListInitialise,"axv",@progbits
   6              		.align 1
   7              		.p2align 4,,15
   8              		.globl vListInitialise
   9              		.type	vListInitialise, @function
  10              	vListInitialise:
  11              	.LFB0:
  12              		.file 1 "./components/spc5_freertos_component_rla/lib/src/list.c"
  13              		.loc 1 38 0
  14              		.cfi_startproc
  15 0000 182106F0 		e_stwu %r1,-16(%r1)
  16              	.LCFI0:
  17              		.cfi_def_cfa_offset 16
  18 0004 D231     		se_stw %r3,8(%r1)
  19              		.loc 1 42 0
  20 0006 C271     		se_lwz %r7,8(%r1)
  21 0008 18C78008 		e_addi %r6,%r7,8
  22 000c C271     		se_lwz %r7,8(%r1)
  23 000e D167     		se_stw %r6,4(%r7)
  24              		.loc 1 46 0
  25 0010 C271     		se_lwz %r7,8(%r1)
  26 0012 2C06     		se_bmaski %r6,0
  27 0014 D267     		se_stw %r6,8(%r7)
  28              		.loc 1 50 0
  29 0016 C271     		se_lwz %r7,8(%r1)
  30 0018 18C78008 		e_addi %r6,%r7,8
  31 001c C271     		se_lwz %r7,8(%r1)
  32 001e D367     		se_stw %r6,12(%r7)
  33              		.loc 1 51 0
  34 0020 C271     		se_lwz %r7,8(%r1)
  35 0022 18C78008 		e_addi %r6,%r7,8
  36 0026 C271     		se_lwz %r7,8(%r1)
  37 0028 D467     		se_stw %r6,16(%r7)
  38              		.loc 1 53 0
  39 002a C271     		se_lwz %r7,8(%r1)
  40 002c 4806     		se_li %r6,0
  41 002e D067     		se_stw %r6,0(%r7)
  42              		.loc 1 59 0
  43 0030 20F1     		se_addi %r1,16
  44              	.LCFI1:
  45              		.cfi_def_cfa_offset 0
  46 0032 0004     		se_blr
  47              		.cfi_endproc
  48              	.LFE0:
  49              		.size	vListInitialise, .-vListInitialise
  50              		.section	.text.vListInitialiseItem,"axv",@progbits
  51              		.align 1
  52              		.p2align 4,,15
  53              		.globl vListInitialiseItem
  54              		.type	vListInitialiseItem, @function
  55              	vListInitialiseItem:
  56              	.LFB1:
  57              		.loc 1 63 0
GAS LISTING C:\Users\bayra\AppData\Local\Temp\cc06lqy6.s 			page 2


  58              		.cfi_startproc
  59 0000 182106F0 		e_stwu %r1,-16(%r1)
  60              	.LCFI2:
  61              		.cfi_def_cfa_offset 16
  62 0004 D231     		se_stw %r3,8(%r1)
  63              		.loc 1 65 0
  64 0006 C271     		se_lwz %r7,8(%r1)
  65 0008 4806     		se_li %r6,0
  66 000a D467     		se_stw %r6,16(%r7)
  67              		.loc 1 71 0
  68 000c 20F1     		se_addi %r1,16
  69              	.LCFI3:
  70              		.cfi_def_cfa_offset 0
  71 000e 0004     		se_blr
  72              		.cfi_endproc
  73              	.LFE1:
  74              		.size	vListInitialiseItem, .-vListInitialiseItem
  75              		.section	.text.vListInsertEnd,"axv",@progbits
  76              		.align 1
  77              		.p2align 4,,15
  78              		.globl vListInsertEnd
  79              		.type	vListInsertEnd, @function
  80              	vListInsertEnd:
  81              	.LFB2:
  82              		.loc 1 75 0
  83              		.cfi_startproc
  84 0000 182106E0 		e_stwu %r1,-32(%r1)
  85              	.LCFI4:
  86              		.cfi_def_cfa_offset 32
  87 0004 D631     		se_stw %r3,24(%r1)
  88 0006 D741     		se_stw %r4,28(%r1)
  89              		.loc 1 76 0
  90 0008 C671     		se_lwz %r7,24(%r1)
  91 000a C177     		se_lwz %r7,4(%r7)
  92 000c D271     		se_stw %r7,8(%r1)
  93              		.loc 1 87 0
  94 000e C771     		se_lwz %r7,28(%r1)
  95 0010 C261     		se_lwz %r6,8(%r1)
  96 0012 D167     		se_stw %r6,4(%r7)
  97              		.loc 1 88 0
  98 0014 C271     		se_lwz %r7,8(%r1)
  99 0016 C267     		se_lwz %r6,8(%r7)
 100 0018 C771     		se_lwz %r7,28(%r1)
 101 001a D267     		se_stw %r6,8(%r7)
 102              		.loc 1 93 0
 103 001c C271     		se_lwz %r7,8(%r1)
 104 001e C277     		se_lwz %r7,8(%r7)
 105 0020 C761     		se_lwz %r6,28(%r1)
 106 0022 D167     		se_stw %r6,4(%r7)
 107              		.loc 1 94 0
 108 0024 C271     		se_lwz %r7,8(%r1)
 109 0026 C761     		se_lwz %r6,28(%r1)
 110 0028 D267     		se_stw %r6,8(%r7)
 111              		.loc 1 97 0
 112 002a C771     		se_lwz %r7,28(%r1)
 113 002c C661     		se_lwz %r6,24(%r1)
 114 002e D467     		se_stw %r6,16(%r7)
GAS LISTING C:\Users\bayra\AppData\Local\Temp\cc06lqy6.s 			page 3


 115              		.loc 1 99 0
 116 0030 C671     		se_lwz %r7,24(%r1)
 117 0032 C077     		se_lwz %r7,0(%r7)
 118 0034 18C78001 		e_addi %r6,%r7,1
 119 0038 C671     		se_lwz %r7,24(%r1)
 120 003a D067     		se_stw %r6,0(%r7)
 121              		.loc 1 100 0
 122 003c 21F1     		se_addi %r1,32
 123              	.LCFI5:
 124              		.cfi_def_cfa_offset 0
 125 003e 0004     		se_blr
 126              		.cfi_endproc
 127              	.LFE2:
 128              		.size	vListInsertEnd, .-vListInsertEnd
 129              		.section	.text.vListInsert,"axv",@progbits
 130              		.align 1
 131              		.p2align 4,,15
 132              		.globl vListInsert
 133              		.type	vListInsert, @function
 134              	vListInsert:
 135              	.LFB3:
 136              		.loc 1 104 0
 137              		.cfi_startproc
 138 0000 182106E0 		e_stwu %r1,-32(%r1)
 139              	.LCFI6:
 140              		.cfi_def_cfa_offset 32
 141 0004 D631     		se_stw %r3,24(%r1)
 142 0006 D741     		se_stw %r4,28(%r1)
 143              		.loc 1 106 0
 144 0008 C771     		se_lwz %r7,28(%r1)
 145 000a C077     		se_lwz %r7,0(%r7)
 146 000c D371     		se_stw %r7,12(%r1)
 147              		.loc 1 122 0
 148 000e C361     		se_lwz %r6,12(%r1)
 149 0010 2C07     		se_bmaski %r7,0
 150 0012 7F863800 		cmp %cr7,%r6,%r7
 151 0016 7CE00026 		mfcr %r7
 152 001a 74E7E007 		e_rlwinm %r7,%r7,28,0xf0000000
 153 001e 7CE80120 		mtcrf 128,%r7
 154 0022 7A02000E 		e_bne %cr0,.L5
 155              		.loc 1 124 0
 156 0026 C671     		se_lwz %r7,24(%r1)
 157 0028 C477     		se_lwz %r7,16(%r7)
 158 002a D271     		se_stw %r7,8(%r1)
 159 002c 78000030 		e_b .L6
 160              	.L5:
 161              		.loc 1 150 0
 162 0030 C671     		se_lwz %r7,24(%r1)
 163 0032 2077     		se_addi %r7,8
 164 0034 D271     		se_stw %r7,8(%r1)
 165 0036 7800000A 		e_b .L7
 166              	.L8:
 167              		.loc 1 150 0 is_stmt 0 discriminator 3
 168 003a C271     		se_lwz %r7,8(%r1)
 169 003c C177     		se_lwz %r7,4(%r7)
 170 003e D271     		se_stw %r7,8(%r1)
 171              	.L7:
GAS LISTING C:\Users\bayra\AppData\Local\Temp\cc06lqy6.s 			page 4


 172              		.loc 1 150 0 discriminator 1
 173 0040 C271     		se_lwz %r7,8(%r1)
 174 0042 C177     		se_lwz %r7,4(%r7)
 175 0044 C067     		se_lwz %r6,0(%r7)
 176 0046 C371     		se_lwz %r7,12(%r1)
 177 0048 7F863840 		cmpl %cr7,%r6,%r7
 178 004c 7CE00026 		mfcr %r7
 179 0050 74E7E007 		e_rlwinm %r7,%r7,28,0xf0000000
 180 0054 7CE80120 		mtcrf 128,%r7
 181 0058 7A01FFE2 		e_ble %cr0,.L8
 182              	.L6:
 183              		.loc 1 157 0 is_stmt 1
 184 005c C271     		se_lwz %r7,8(%r1)
 185 005e C167     		se_lwz %r6,4(%r7)
 186 0060 C771     		se_lwz %r7,28(%r1)
 187 0062 D167     		se_stw %r6,4(%r7)
 188              		.loc 1 158 0
 189 0064 C771     		se_lwz %r7,28(%r1)
 190 0066 C177     		se_lwz %r7,4(%r7)
 191 0068 C761     		se_lwz %r6,28(%r1)
 192 006a D267     		se_stw %r6,8(%r7)
 193              		.loc 1 159 0
 194 006c C771     		se_lwz %r7,28(%r1)
 195 006e C261     		se_lwz %r6,8(%r1)
 196 0070 D267     		se_stw %r6,8(%r7)
 197              		.loc 1 160 0
 198 0072 C271     		se_lwz %r7,8(%r1)
 199 0074 C761     		se_lwz %r6,28(%r1)
 200 0076 D167     		se_stw %r6,4(%r7)
 201              		.loc 1 164 0
 202 0078 C771     		se_lwz %r7,28(%r1)
 203 007a C661     		se_lwz %r6,24(%r1)
 204 007c D467     		se_stw %r6,16(%r7)
 205              		.loc 1 166 0
 206 007e C671     		se_lwz %r7,24(%r1)
 207 0080 C077     		se_lwz %r7,0(%r7)
 208 0082 18C78001 		e_addi %r6,%r7,1
 209 0086 C671     		se_lwz %r7,24(%r1)
 210 0088 D067     		se_stw %r6,0(%r7)
 211              		.loc 1 167 0
 212 008a 21F1     		se_addi %r1,32
 213              	.LCFI7:
 214              		.cfi_def_cfa_offset 0
 215 008c 0004     		se_blr
 216              		.cfi_endproc
 217              	.LFE3:
 218              		.size	vListInsert, .-vListInsert
 219              		.section	.text.uxListRemove,"axv",@progbits
 220              		.align 1
 221              		.p2align 4,,15
 222              		.globl uxListRemove
 223              		.type	uxListRemove, @function
 224              	uxListRemove:
 225              	.LFB4:
 226              		.loc 1 171 0
 227              		.cfi_startproc
 228 0000 182106E0 		e_stwu %r1,-32(%r1)
GAS LISTING C:\Users\bayra\AppData\Local\Temp\cc06lqy6.s 			page 5


 229              	.LCFI8:
 230              		.cfi_def_cfa_offset 32
 231 0004 D631     		se_stw %r3,24(%r1)
 232              		.loc 1 174 0
 233 0006 C671     		se_lwz %r7,24(%r1)
 234 0008 C477     		se_lwz %r7,16(%r7)
 235 000a D271     		se_stw %r7,8(%r1)
 236              		.loc 1 176 0
 237 000c C671     		se_lwz %r7,24(%r1)
 238 000e C177     		se_lwz %r7,4(%r7)
 239 0010 C661     		se_lwz %r6,24(%r1)
 240 0012 C266     		se_lwz %r6,8(%r6)
 241 0014 D267     		se_stw %r6,8(%r7)
 242              		.loc 1 177 0
 243 0016 C671     		se_lwz %r7,24(%r1)
 244 0018 C277     		se_lwz %r7,8(%r7)
 245 001a C661     		se_lwz %r6,24(%r1)
 246 001c C166     		se_lwz %r6,4(%r6)
 247 001e D167     		se_stw %r6,4(%r7)
 248              		.loc 1 183 0
 249 0020 C271     		se_lwz %r7,8(%r1)
 250 0022 C167     		se_lwz %r6,4(%r7)
 251 0024 C671     		se_lwz %r7,24(%r1)
 252 0026 7F863800 		cmp %cr7,%r6,%r7
 253 002a 7CE00026 		mfcr %r7
 254 002e 74E7E007 		e_rlwinm %r7,%r7,28,0xf0000000
 255 0032 7CE80120 		mtcrf 128,%r7
 256 0036 7A02000C 		e_bne %cr0,.L10
 257              		.loc 1 185 0
 258 003a C671     		se_lwz %r7,24(%r1)
 259 003c C267     		se_lwz %r6,8(%r7)
 260 003e C271     		se_lwz %r7,8(%r1)
 261 0040 D167     		se_stw %r6,4(%r7)
 262              	.L10:
 263              		.loc 1 192 0
 264 0042 C671     		se_lwz %r7,24(%r1)
 265 0044 4806     		se_li %r6,0
 266 0046 D467     		se_stw %r6,16(%r7)
 267              		.loc 1 193 0
 268 0048 C271     		se_lwz %r7,8(%r1)
 269 004a C077     		se_lwz %r7,0(%r7)
 270 004c 18C784FF 		e_addi %r6,%r7,-1
 271 0050 C271     		se_lwz %r7,8(%r1)
 272 0052 D067     		se_stw %r6,0(%r7)
 273              		.loc 1 195 0
 274 0054 C271     		se_lwz %r7,8(%r1)
 275 0056 C077     		se_lwz %r7,0(%r7)
 276              		.loc 1 196 0
 277 0058 0173     		se_mr %r3,%r7
 278 005a 21F1     		se_addi %r1,32
 279              	.LCFI9:
 280              		.cfi_def_cfa_offset 0
 281 005c 0004     		se_blr
 282              		.cfi_endproc
 283              	.LFE4:
 284              		.size	uxListRemove, .-uxListRemove
 285              		.section	".text","axv"
GAS LISTING C:\Users\bayra\AppData\Local\Temp\cc06lqy6.s 			page 6


 286              	.Letext0:
 287              		.file 2 "./components/spc5_freertos_component_rla/lib/portable/portmacro.h"
 288              		.file 3 "./components/spc5_freertos_component_rla/lib/include/list.h"