GAS LISTING C:\Users\bayra\AppData\Local\Temp\cc4EtQGM.s 			page 1


   1              		.file	"main.c"
   2              		.section	".text","axv"
   3              	.Ltext0:
   4              		.cfi_sections	.debug_frame
   5              		.globl h10Bst
   6              		.section	.data.h10Bst,"aw",@progbits
   7              		.align 1
   8              		.type	h10Bst, @object
   9              		.size	h10Bst, 6
  10              	h10Bst:
  11 0000 00       		.byte	0
  12 0001 00       		.byte	0
  13 0002 0000     		.short	0
  14 0004 7D       		.byte	125
  15 0005 00       		.zero	1
  16              		.globl h14Dst
  17              		.section	.data.h14Dst,"aw",@progbits
  18              		.type	h14Dst, @object
  19              		.size	h14Dst, 4
  20              	h14Dst:
  21 0000 00       		.byte	0
  22 0001 01       		.byte	1
  23 0002 00       		.byte	0
  24 0003 00       		.byte	0
  25              		.globl h303st
  26              		.section	.bss.h303st,"aw",@nobits
  27              		.align 2
  28              		.type	h303st, @object
  29              		.size	h303st, 8
  30              	h303st:
  31 0000 00000000 		.zero	8
  31      00000000 
  32              		.section	.text.can_start,"axv",@progbits
  33              		.align 1
  34              		.p2align 4,,15
  35              		.globl can_start
  36              		.type	can_start, @function
  37              	can_start:
  38              	.LFB3:
  39              		.file 1 "main.c"
  40              		.loc 1 49 0
  41              		.cfi_startproc
  42 0000 182106F8 		e_stwu %r1,-8(%r1)
  43              	.LCFI0:
  44              		.cfi_def_cfa_offset 8
  45 0004 0080     		se_mflr %r0
  46 0006 D301     		se_stw %r0,12(%r1)
  47              		.cfi_offset 65, 4
  48              		.loc 1 51 0
  49 0008 70E0E000 		e_lis %r7,CAND2@ha
  50 000c 1C670000 		e_la %r3,CAND2@l(%r7)
  51 0010 70E0E000 		e_lis %r7,can_config_can1@ha
  52 0014 1C870000 		e_la %r4,can_config_can1@l(%r7)
  53 0018 78000001 		e_bl can_lld_start
  54              		.loc 1 52 0
  55 001c 70E0E000 		e_lis %r7,CAND7@ha
  56 0020 1C670000 		e_la %r3,CAND7@l(%r7)
GAS LISTING C:\Users\bayra\AppData\Local\Temp\cc4EtQGM.s 			page 2


  57 0024 70E0E000 		e_lis %r7,can_config_can4@ha
  58 0028 1C870000 		e_la %r4,can_config_can4@l(%r7)
  59 002c 78000001 		e_bl can_lld_start
  60              		.loc 1 53 0
  61 0030 C301     		se_lwz %r0,12(%r1)
  62 0032 0090     		se_mtlr %r0
  63 0034 2071     		se_addi %r1,8
  64              	.LCFI1:
  65              		.cfi_def_cfa_offset 0
  66 0036 0004     		se_blr
  67              		.cfi_endproc
  68              	.LFE3:
  69              		.size	can_start, .-can_start
  70              		.globl tx
  71              		.section	.bss.tx,"aw",@nobits
  72              		.align 2
  73              		.type	tx, @object
  74              		.size	tx, 76
  75              	tx:
  76 0000 00000000 		.zero	76
  76      00000000 
  76      00000000 
  76      00000000 
  76      00000000 
  77              		.globl rx
  78              		.section	.bss.rx,"aw",@nobits
  79              		.align 2
  80              		.type	rx, @object
  81              		.size	rx, 80
  82              	rx:
  83 0000 00000000 		.zero	80
  83      00000000 
  83      00000000 
  83      00000000 
  83      00000000 
  84              		.globl rtr
  85              		.section	.bss.rtr,"aw",@nobits
  86              		.align 2
  87              		.type	rtr, @object
  88              		.size	rtr, 4
  89              	rtr:
  90 0000 00000000 		.zero	4
  91              		.globl core0cnt
  92              		.section	.bss.core0cnt,"aw",@nobits
  93              		.align 2
  94              		.type	core0cnt, @object
  95              		.size	core0cnt, 4
  96              	core0cnt:
  97 0000 00000000 		.zero	4
  98              		.globl rtoscnt
  99              		.section	.bss.rtoscnt,"aw",@nobits
 100              		.align 2
 101              		.type	rtoscnt, @object
 102              		.size	rtoscnt, 4
 103              	rtoscnt:
 104 0000 00000000 		.zero	4
 105              		.globl __extendsfdf2
GAS LISTING C:\Users\bayra\AppData\Local\Temp\cc4EtQGM.s 			page 3


 106              		.globl __divdf3
 107              		.globl __fixunsdfsi
 108              		.globl __gtsf2
 109              		.section	.text.vTaskh303,"axv",@progbits
 110              		.align 1
 111              		.p2align 4,,15
 112              		.globl vTaskh303
 113              		.type	vTaskh303, @function
 114              	vTaskh303:
 115              	.LFB4:
 116              		.loc 1 60 0
 117              		.cfi_startproc
 118 0000 701F7F50 		e_li %r0,-176
 119 0004 7C21016E 		stwux %r1,%r1,%r0
 120              	.LCFI2:
 121              		.cfi_def_cfa_offset 176
 122 0008 0080     		se_mflr %r0
 123 000a 540100B4 		e_stw %r0,180(%r1)
 124              		.cfi_offset 65, 4
 125 000e 546100A8 		e_stw %r3,168(%r1)
 126              		.loc 1 62 0
 127 0012 78000001 		e_bl xTaskGetTickCount
 128 0016 0137     		se_mr %r7,%r3
 129 0018 D371     		se_stw %r7,12(%r1)
 130              	.L8:
 131              	.LBB2:
 132              		.loc 1 65 0
 133 001a 18C1805C 		e_addi %r6,%r1,92
 134 001e 4C07     		se_li %r7,64
 135 0020 0163     		se_mr %r3,%r6
 136 0022 4804     		se_li %r4,0
 137 0024 0175     		se_mr %r5,%r7
 138 0026 78000001 		e_bl memset
 139              		.loc 1 68 0
 140 002a 4987     		se_li %r7,24
 141 002c 34E10018 		e_stb %r7,24(%r1)
 142              		.loc 1 69 0
 143 0030 70E00303 		e_li %r7,771
 144 0034 D571     		se_stw %r7,20(%r1)
 145              		.loc 1 70 0
 146 0036 4817     		se_li %r7,1
 147 0038 34E10010 		e_stb %r7,16(%r1)
 148              		.loc 1 71 0
 149 003c 4807     		se_li %r7,0
 150 003e 34E10012 		e_stb %r7,18(%r1)
 151              		.loc 1 72 0
 152 0042 70E0E000 		e_lis %r7,h303st@ha
 153 0046 1CE70000 		e_la %r7,h303st@l(%r7)
 154 004a 8077     		se_lbz %r7,0(%r7)
 155 004c 00C7     		se_extzb %r7
 156 004e 2A07     		se_cmpi %r7,0
 157 0050 7F800020 		e_mcrf %cr7,%cr0
 158 0054 7CE00026 		mfcr %r7
 159 0058 74E7E007 		e_rlwinm %r7,%r7,28,0xf0000000
 160 005c 7CE80120 		mtcrf 128,%r7
 161 0060 7A1200EA 		e_beq %cr0,.L3
 162              	.LBB3:
GAS LISTING C:\Users\bayra\AppData\Local\Temp\cc4EtQGM.s 			page 4


 163              		.loc 1 74 0
 164 0064 4C07     		se_li %r7,64
 165 0066 34E1005D 		e_stb %r7,93(%r1)
 166              		.loc 1 75 0
 167 006a 70E0E000 		e_lis %r7,h303st@ha
 168 006e 1CE70000 		e_la %r7,h303st@l(%r7)
 169 0072 8177     		se_lbz %r7,1(%r7)
 170 0074 00C7     		se_extzb %r7
 171 0076 34E1005E 		e_stb %r7,94(%r1)
 172              		.loc 1 76 0
 173 007a 70E0E000 		e_lis %r7,h303st@ha
 174 007e 1CE70000 		e_la %r7,h303st@l(%r7)
 175 0082 50E70004 		e_lwz %r7,4(%r7)
 176 0086 6007     		se_bclri %r7,0
 177 0088 0173     		se_mr %r3,%r7
 178 008a 78000001 		e_bl __extendsfdf2
 179 008e 0240     		se_mtar %r8,%r4
 180 0090 0137     		se_mr %r7,%r3
 181 0092 0173     		se_mr %r3,%r7
 182 0094 0304     		se_mfar %r4,%r8
 183 0096 70A7E792 		e_lis %r5,0x3f92
 184 009a 70BAC773 		e_or2i %r5,55155
 185 009e 6226     		se_bgeni %r6,2
 186 00a0 78000001 		e_bl __divdf3
 187 00a4 0240     		se_mtar %r8,%r4
 188 00a6 0137     		se_mr %r7,%r3
 189 00a8 0173     		se_mr %r3,%r7
 190 00aa 0304     		se_mfar %r4,%r8
 191 00ac 78000001 		e_bl __fixunsdfsi
 192 00b0 0137     		se_mr %r7,%r3
 193 00b2 B471     		se_sth %r7,8(%r1)
 194              		.loc 1 77 0
 195 00b4 A471     		se_lhz %r7,8(%r1)
 196 00b6 00C7     		se_extzb %r7
 197 00b8 34E1005F 		e_stb %r7,95(%r1)
 198              		.loc 1 78 0
 199 00bc A471     		se_lhz %r7,8(%r1)
 200 00be 00E7     		se_extzh %r7
 201 00c0 6887     		se_srwi %r7,8
 202 00c2 00E7     		se_extzh %r7
 203 00c4 00C7     		se_extzb %r7
 204 00c6 34E10060 		e_stb %r7,96(%r1)
 205              		.loc 1 80 0
 206 00ca 70E0E000 		e_lis %r7,h303st@ha
 207 00ce 1CE70000 		e_la %r7,h303st@l(%r7)
 208 00d2 50E70004 		e_lwz %r7,4(%r7)
 209 00d6 0173     		se_mr %r3,%r7
 210 00d8 4804     		se_li %r4,0
 211 00da 78000001 		e_bl __gtsf2
 212 00de 0137     		se_mr %r7,%r3
 213 00e0 2A07     		se_cmpi %r7,0
 214 00e2 7F800020 		e_mcrf %cr7,%cr0
 215 00e6 7CE00026 		mfcr %r7
 216 00ea 74E7E007 		e_rlwinm %r7,%r7,28,0xf0000000
 217 00ee 7CE80120 		mtcrf 128,%r7
 218 00f2 7A01001C 		e_ble %cr0,.L10
 219              		.loc 1 82 0
GAS LISTING C:\Users\bayra\AppData\Local\Temp\cc4EtQGM.s 			page 5


 220 00f6 30E10060 		e_lbz %r7,96(%r1)
 221 00fa 00C7     		se_extzb %r7
 222 00fc 70FFD7FF 		e_or2is %r7,0xffff
 223 0100 70FFC780 		e_or2i %r7,65408
 224 0104 00C7     		se_extzb %r7
 225 0106 34E10060 		e_stb %r7,96(%r1)
 226 010a 78000014 		e_b .L6
 227              	.L10:
 228              		.loc 1 86 0
 229 010e 30E10060 		e_lbz %r7,96(%r1)
 230 0112 00C7     		se_extzb %r7
 231 0114 18E7C07F 		e_andi %r7,%r7,127
 232 0118 00C7     		se_extzb %r7
 233 011a 34E10060 		e_stb %r7,96(%r1)
 234              	.L6:
 235              		.loc 1 88 0
 236 011e 4847     		se_li %r7,4
 237 0120 34E10064 		e_stb %r7,100(%r1)
 238              		.loc 1 89 0
 239 0124 18C1805C 		e_addi %r6,%r1,92
 240 0128 18E18010 		e_addi %r7,%r1,16
 241 012c 20B7     		se_addi %r7,12
 242 012e 0163     		se_mr %r3,%r6
 243 0130 0174     		se_mr %r4,%r7
 244 0132 78000001 		e_bl converto4byteorder
 245              		.loc 1 90 0
 246 0136 18C18010 		e_addi %r6,%r1,16
 247 013a 70E0E000 		e_lis %r7,CAND7@ha
 248 013e 1C670000 		e_la %r3,CAND7@l(%r7)
 249 0142 2C84     		se_bmaski %r4,8
 250 0144 0165     		se_mr %r5,%r6
 251 0146 78000001 		e_bl can_lld_transmit
 252              	.L3:
 253              	.LBE3:
 254              		.loc 1 93 0
 255 014a 70E0E000 		e_lis %r7,lastEnable.20985@ha
 256 014e 30E70000 		e_lbz %r7,lastEnable.20985@l(%r7)
 257 0152 00C7     		se_extzb %r7
 258 0154 2207     		se_cmpli %r7,1
 259 0156 7F800020 		e_mcrf %cr7,%cr0
 260 015a 7CE00026 		mfcr %r7
 261 015e 74E7E007 		e_rlwinm %r7,%r7,28,0xf0000000
 262 0162 7CE80120 		mtcrf 128,%r7
 263 0166 7A020052 		e_bne %cr0,.L7
 264              		.loc 1 93 0 is_stmt 0 discriminator 1
 265 016a 70E0E000 		e_lis %r7,h303st@ha
 266 016e 1CE70000 		e_la %r7,h303st@l(%r7)
 267 0172 8077     		se_lbz %r7,0(%r7)
 268 0174 00C7     		se_extzb %r7
 269 0176 2A07     		se_cmpi %r7,0
 270 0178 7F800020 		e_mcrf %cr7,%cr0
 271 017c 7CE00026 		mfcr %r7
 272 0180 74E7E007 		e_rlwinm %r7,%r7,28,0xf0000000
 273 0184 7CE80120 		mtcrf 128,%r7
 274 0188 7A020030 		e_bne %cr0,.L7
 275              		.loc 1 95 0 is_stmt 1
 276 018c 4A07     		se_li %r7,32
GAS LISTING C:\Users\bayra\AppData\Local\Temp\cc4EtQGM.s 			page 6


 277 018e 34E1005D 		e_stb %r7,93(%r1)
 278              		.loc 1 96 0
 279 0192 18C1805C 		e_addi %r6,%r1,92
 280 0196 18E18010 		e_addi %r7,%r1,16
 281 019a 20B7     		se_addi %r7,12
 282 019c 0163     		se_mr %r3,%r6
 283 019e 0174     		se_mr %r4,%r7
 284 01a0 78000001 		e_bl converto4byteorder
 285              		.loc 1 97 0
 286 01a4 18C18010 		e_addi %r6,%r1,16
 287 01a8 70E0E000 		e_lis %r7,CAND7@ha
 288 01ac 1C670000 		e_la %r3,CAND7@l(%r7)
 289 01b0 2C84     		se_bmaski %r4,8
 290 01b2 0165     		se_mr %r5,%r6
 291 01b4 78000001 		e_bl can_lld_transmit
 292              	.L7:
 293              		.loc 1 100 0
 294 01b8 70E0E000 		e_lis %r7,h303st@ha
 295 01bc 1CE70000 		e_la %r7,h303st@l(%r7)
 296 01c0 8077     		se_lbz %r7,0(%r7)
 297 01c2 74E6063F 		e_rlwinm %r6,%r7,0,0xff
 298 01c6 70E0E000 		e_lis %r7,lastEnable.20985@ha
 299 01ca 34C70000 		e_stb %r6,lastEnable.20985@l(%r7)
 300              		.loc 1 101 0
 301 01ce 70E0E000 		e_lis %r7,rtoscnt@ha
 302 01d2 50E70000 		e_lwz %r7,rtoscnt@l(%r7)
 303 01d6 18C78001 		e_addi %r6,%r7,1
 304 01da 70E0E000 		e_lis %r7,rtoscnt@ha
 305 01de 54C70000 		e_stw %r6,rtoscnt@l(%r7)
 306              		.loc 1 102 0
 307 01e2 18E1800C 		e_addi %r7,%r1,12
 308 01e6 0173     		se_mr %r3,%r7
 309 01e8 4944     		se_li %r4,20
 310 01ea 78000001 		e_bl vTaskDelayUntil
 311              	.LBE2:
 312              		.loc 1 104 0
 313 01ee 79FFFE2C 		e_b .L8
 314              		.cfi_endproc
 315              	.LFE4:
 316              		.size	vTaskh303, .-vTaskh303
 317              		.globl __eabi
 318              		.section	.rodata
 319              		.align 2
 320              	.LC0:
 321 0000 7461736B 		.string	"task #1"
 321      20233100 
 322              		.section	.text.main,"axv",@progbits
 323              		.align 1
 324              		.p2align 4,,15
 325              		.globl main
 326              		.type	main, @function
 327              	main:
 328              	.LFB5:
 329              		.loc 1 106 0
 330              		.cfi_startproc
 331 0000 182106F8 		e_stwu %r1,-8(%r1)
 332              	.LCFI3:
GAS LISTING C:\Users\bayra\AppData\Local\Temp\cc4EtQGM.s 			page 7


 333              		.cfi_def_cfa_offset 8
 334 0004 0080     		se_mflr %r0
 335 0006 D301     		se_stw %r0,12(%r1)
 336              		.cfi_offset 65, 4
 337              		.loc 1 106 0
 338 0008 78000001 		e_bl __eabi
 339              		.loc 1 110 0
 340 000c 78000001 		e_bl componentsInit
 341              		.loc 1 112 0
 342 0010 78000001 		e_bl can_lld_init
 343              		.loc 1 113 0
 344 0014 78000001 		e_bl can_start
 345              		.loc 1 115 0
 346              	 # 115 "main.c" 1
 347 0018 7C008146 		wrteei  1
 348              	 # 0 "" 2
 349              		.loc 1 116 0
 350 001c 70E0E000 		e_lis %r7,h10Bst@ha
 351 0020 1CE70000 		e_la %r7,h10Bst@l(%r7)
 352 0024 4FD6     		se_li %r6,125
 353 0026 9467     		se_stb %r6,4(%r7)
 354              		.loc 1 117 0
 355 0028 70E0E000 		e_lis %r7,h10Bst@ha
 356 002c 1CE70000 		e_la %r7,h10Bst@l(%r7)
 357 0030 4806     		se_li %r6,0
 358 0032 B167     		se_sth %r6,2(%r7)
 359              		.loc 1 118 0
 360 0034 70E0E000 		e_lis %r7,h10Bst@ha
 361 0038 1CE70000 		e_la %r7,h10Bst@l(%r7)
 362 003c 4806     		se_li %r6,0
 363 003e 9067     		se_stb %r6,0(%r7)
 364              		.loc 1 119 0
 365 0040 70E0E000 		e_lis %r7,h10Bst@ha
 366 0044 1CE70000 		e_la %r7,h10Bst@l(%r7)
 367 0048 4806     		se_li %r6,0
 368 004a 9167     		se_stb %r6,1(%r7)
 369              		.loc 1 121 0
 370 004c 70E0E000 		e_lis %r7,vTaskh303@ha
 371 0050 1C670000 		e_la %r3,vTaskh303@l(%r7)
 372 0054 70E0E000 		e_lis %r7,.LC0@ha
 373 0058 1C870000 		e_la %r4,.LC0@l(%r7)
 374 005c 6375     		se_bgeni %r5,23
 375 005e 4806     		se_li %r6,0
 376 0060 4817     		se_li %r7,1
 377 0062 71000000 		e_li %r8,0
 378 0066 78000001 		e_bl xTaskCreate
 379              		.loc 1 129 0
 380 006a 78000001 		e_bl vTaskStartScheduler
 381              	.L12:
 382              	.LBB4:
 383              		.loc 1 133 0 discriminator 1
 384 006e 70E0E000 		e_lis %r7,tx@ha
 385 0072 1CE70000 		e_la %r7,tx@l(%r7)
 386 0076 4886     		se_li %r6,8
 387 0078 9867     		se_stb %r6,8(%r7)
 388              		.loc 1 134 0 discriminator 1
 389 007a 70E0E000 		e_lis %r7,tx@ha
GAS LISTING C:\Users\bayra\AppData\Local\Temp\cc4EtQGM.s 			page 8


 390 007e 1CE70000 		e_la %r7,tx@l(%r7)
 391 0082 4FB6     		se_li %r6,123
 392 0084 D167     		se_stw %r6,4(%r7)
 393              		.loc 1 136 0 discriminator 1
 394 0086 70E0E000 		e_lis %r7,cnt.20991@ha
 395 008a 50E70000 		e_lwz %r7,cnt.20991@l(%r7)
 396 008e 18A78001 		e_addi %r5,%r7,1
 397 0092 70C0E000 		e_lis %r6,cnt.20991@ha
 398 0096 54A60000 		e_stw %r5,cnt.20991@l(%r6)
 399 009a 70C0E000 		e_lis %r6,tx@ha
 400 009e 1CC60000 		e_la %r6,tx@l(%r6)
 401 00a2 D376     		se_stw %r7,12(%r6)
 402              		.loc 1 137 0 discriminator 1
 403 00a4 70E0E000 		e_lis %r7,tx@ha
 404 00a8 1CE70000 		e_la %r7,tx@l(%r7)
 405 00ac 4816     		se_li %r6,1
 406 00ae 9067     		se_stb %r6,0(%r7)
 407              	.LBE4:
 408              		.loc 1 144 0 discriminator 1
 409 00b0 79FFFFBE 		e_b .L12
 410              		.cfi_endproc
 411              	.LFE5:
 412              		.size	main, .-main
 413              		.globl tx10B
 414              		.section	.bss.tx10B,"aw",@nobits
 415              		.align 2
 416              		.type	tx10B, @object
 417              		.size	tx10B, 76
 418              	tx10B:
 419 0000 00000000 		.zero	76
 419      00000000 
 419      00000000 
 419      00000000 
 419      00000000 
 420              		.globl tx14D
 421              		.section	.bss.tx14D,"aw",@nobits
 422              		.align 2
 423              		.type	tx14D, @object
 424              		.size	tx14D, 76
 425              	tx14D:
 426 0000 00000000 		.zero	76
 426      00000000 
 426      00000000 
 426      00000000 
 426      00000000 
 427              		.globl rx10B
 428              		.section	.bss.rx10B,"aw",@nobits
 429              		.align 2
 430              		.type	rx10B, @object
 431              		.size	rx10B, 80
 432              	rx10B:
 433 0000 00000000 		.zero	80
 433      00000000 
 433      00000000 
 433      00000000 
 433      00000000 
 434              		.section	.text.can1_Can1new,"axv",@progbits
GAS LISTING C:\Users\bayra\AppData\Local\Temp\cc4EtQGM.s 			page 9


 435              		.align 1
 436              		.p2align 4,,15
 437              		.globl can1_Can1new
 438              		.type	can1_Can1new, @function
 439              	can1_Can1new:
 440              	.LFB6:
 441              		.loc 1 152 0
 442              		.cfi_startproc
 443 0000 701F7F48 		e_li %r0,-184
 444 0004 7C21016E 		stwux %r1,%r1,%r0
 445              	.LCFI4:
 446              		.cfi_def_cfa_offset 184
 447 0008 0080     		se_mflr %r0
 448 000a 540100BC 		e_stw %r0,188(%r1)
 449 000e 57E100B4 		e_stw %r31,180(%r1)
 450              		.cfi_offset 65, 4
 451              		.cfi_offset 31, -4
 452 0012 546100A8 		e_stw %r3,168(%r1)
 453 0016 014F     		se_mr %r31,%r4
 454              		.loc 1 155 0
 455 0018 70E0E000 		e_lis %r7,cnt.21000@ha
 456 001c 50E70000 		e_lwz %r7,cnt.21000@l(%r7)
 457 0020 18C78001 		e_addi %r6,%r7,1
 458 0024 70E0E000 		e_lis %r7,cnt.21000@ha
 459 0028 54C70000 		e_stw %r6,cnt.21000@l(%r7)
 460              		.loc 1 158 0
 461 002c C27F     		se_lwz %r7,8(%r31)
 462 002e 7007A90B 		e_cmpl16i %r7,267
 463 0032 7F800020 		e_mcrf %cr7,%cr0
 464 0036 7CE00026 		mfcr %r7
 465 003a 74E7E007 		e_rlwinm %r7,%r7,28,0xf0000000
 466 003e 7CE80120 		mtcrf 128,%r7
 467 0042 7A0201E2 		e_bne %cr0,.L14
 468              		.loc 1 158 0 is_stmt 0 discriminator 1
 469 0046 70E0E000 		e_lis %r7,h10Bst@ha
 470 004a 1CE70000 		e_la %r7,h10Bst@l(%r7)
 471 004e 8077     		se_lbz %r7,0(%r7)
 472 0050 00C7     		se_extzb %r7
 473 0052 2A07     		se_cmpi %r7,0
 474 0054 7F800020 		e_mcrf %cr7,%cr0
 475 0058 7CE00026 		mfcr %r7
 476 005c 74E7E007 		e_rlwinm %r7,%r7,28,0xf0000000
 477 0060 7CE80120 		mtcrf 128,%r7
 478 0064 7A1201C0 		e_beq %cr0,.L14
 479              	.LBB5:
 480              		.loc 1 160 0 is_stmt 1
 481 0068 8C7F     		se_lbz %r7,12(%r31)
 482 006a 74E6063F 		e_rlwinm %r6,%r7,0,0xff
 483 006e 70E0E000 		e_lis %r7,tx10B@ha
 484 0072 1CE70000 		e_la %r7,tx10B@l(%r7)
 485 0076 9867     		se_stb %r6,8(%r7)
 486              		.loc 1 161 0
 487 0078 C26F     		se_lwz %r6,8(%r31)
 488 007a 70E0E000 		e_lis %r7,tx10B@ha
 489 007e 1CE70000 		e_la %r7,tx10B@l(%r7)
 490 0082 D167     		se_stw %r6,4(%r7)
 491              		.loc 1 162 0
GAS LISTING C:\Users\bayra\AppData\Local\Temp\cc4EtQGM.s 			page 10


 492 0084 8C7F     		se_lbz %r7,12(%r31)
 493 0086 74E6063F 		e_rlwinm %r6,%r7,0,0xff
 494 008a 70E0E000 		e_lis %r7,tx10B@ha
 495 008e 1CE70000 		e_la %r7,tx10B@l(%r7)
 496 0092 9867     		se_stb %r6,8(%r7)
 497              		.loc 1 163 0
 498 0094 827F     		se_lbz %r7,2(%r31)
 499 0096 74E6063F 		e_rlwinm %r6,%r7,0,0xff
 500 009a 70E0E000 		e_lis %r7,tx10B@ha
 501 009e 1CE70000 		e_la %r7,tx10B@l(%r7)
 502 00a2 9067     		se_stb %r6,0(%r7)
 503              		.loc 1 164 0
 504 00a4 847F     		se_lbz %r7,4(%r31)
 505 00a6 74E6063F 		e_rlwinm %r6,%r7,0,0xff
 506 00aa 70E0E000 		e_lis %r7,tx10B@ha
 507 00ae 1CE70000 		e_la %r7,tx10B@l(%r7)
 508 00b2 9267     		se_stb %r6,2(%r7)
 509              		.loc 1 165 0
 510 00b4 18C1805C 		e_addi %r6,%r1,92
 511 00b8 4C07     		se_li %r7,64
 512 00ba 0163     		se_mr %r3,%r6
 513 00bc 4804     		se_li %r4,0
 514 00be 0175     		se_mr %r5,%r7
 515 00c0 78000001 		e_bl memset
 516              		.loc 1 166 0
 517 00c4 18DF8010 		e_addi %r6,%r31,16
 518 00c8 18E1805C 		e_addi %r7,%r1,92
 519 00cc 0163     		se_mr %r3,%r6
 520 00ce 0174     		se_mr %r4,%r7
 521 00d0 78000001 		e_bl converto1byteorder
 522              		.loc 1 168 0
 523 00d4 70E0E000 		e_lis %r7,h10Bst@ha
 524 00d8 1CE70000 		e_la %r7,h10Bst@l(%r7)
 525 00dc 8177     		se_lbz %r7,1(%r7)
 526 00de 00C7     		se_extzb %r7
 527 00e0 2A07     		se_cmpi %r7,0
 528 00e2 7F800020 		e_mcrf %cr7,%cr0
 529 00e6 7CE00026 		mfcr %r7
 530 00ea 74E7E007 		e_rlwinm %r7,%r7,28,0xf0000000
 531 00ee 7CE80120 		mtcrf 128,%r7
 532 00f2 7A12007C 		e_beq %cr0,.L15
 533              	.LBB6:
 534              		.loc 1 170 0
 535 00f6 4807     		se_li %r7,0
 536 00f8 5CE10058 		e_sth %r7,88(%r1)
 537              		.loc 1 172 0
 538 00fc 30E1005D 		e_lbz %r7,93(%r1)
 539 0100 00C7     		se_extzb %r7
 540 0102 2EF7     		se_andi %r7,15
 541 0104 00C7     		se_extzb %r7
 542 0106 34E10058 		e_stb %r7,88(%r1)
 543              		.loc 1 173 0
 544 010a 30E10058 		e_lbz %r7,88(%r1)
 545 010e 00C7     		se_extzb %r7
 546 0110 7CE60774 		extsb %r6,%r7
 547 0114 70E0E000 		e_lis %r7,h10Bst@ha
 548 0118 1CE70000 		e_la %r7,h10Bst@l(%r7)
GAS LISTING C:\Users\bayra\AppData\Local\Temp\cc4EtQGM.s 			page 11


 549 011c 8177     		se_lbz %r7,1(%r7)
 550 011e 00C7     		se_extzb %r7
 551 0120 6C47     		se_slwi %r7, 4
 552 0122 00D7     		se_extsb %r7
 553 0124 4467     		se_or %r7,%r6
 554 0126 00D7     		se_extsb %r7
 555 0128 00C7     		se_extzb %r7
 556 012a 34E10058 		e_stb %r7,88(%r1)
 557              		.loc 1 174 0
 558 012e 70E0E000 		e_lis %r7,h10Bst@ha
 559 0132 1CE70000 		e_la %r7,h10Bst@l(%r7)
 560 0136 8177     		se_lbz %r7,1(%r7)
 561 0138 00C7     		se_extzb %r7
 562 013a 6847     		se_srwi %r7,4
 563 013c 00C7     		se_extzb %r7
 564 013e 34E10059 		e_stb %r7,89(%r1)
 565              		.loc 1 176 0
 566 0142 30E10058 		e_lbz %r7,88(%r1)
 567 0146 00C7     		se_extzb %r7
 568 0148 34E1005D 		e_stb %r7,93(%r1)
 569              		.loc 1 177 0
 570 014c 30E1005E 		e_lbz %r7,94(%r1)
 571 0150 00C7     		se_extzb %r7
 572 0152 00D7     		se_extsb %r7
 573 0154 18E7C4F0 		e_andi %r7,%r7,-16
 574 0158 7CE60774 		extsb %r6,%r7
 575 015c 30E10059 		e_lbz %r7,89(%r1)
 576 0160 00C7     		se_extzb %r7
 577 0162 00D7     		se_extsb %r7
 578 0164 4467     		se_or %r7,%r6
 579 0166 00D7     		se_extsb %r7
 580 0168 00C7     		se_extzb %r7
 581 016a 34E1005E 		e_stb %r7,94(%r1)
 582              	.L15:
 583              	.LBE6:
 584              		.loc 1 179 0
 585 016e 70E0E000 		e_lis %r7,h10Bst@ha
 586 0172 1CE70000 		e_la %r7,h10Bst@l(%r7)
 587 0176 A177     		se_lhz %r7,2(%r7)
 588 0178 00E7     		se_extzh %r7
 589 017a 6C47     		se_slwi %r7, 4
 590 017c 00C7     		se_extzb %r7
 591 017e 34E10065 		e_stb %r7,101(%r1)
 592              		.loc 1 180 0
 593 0182 70E0E000 		e_lis %r7,h10Bst@ha
 594 0186 1CE70000 		e_la %r7,h10Bst@l(%r7)
 595 018a A177     		se_lhz %r7,2(%r7)
 596 018c 00E7     		se_extzh %r7
 597 018e 74E70537 		e_rlwinm %r7,%r7,0,20,27
 598 0192 6A47     		se_srawi %r7, 4
 599 0194 00C7     		se_extzb %r7
 600 0196 34E10066 		e_stb %r7,102(%r1)
 601              		.loc 1 181 0
 602 019a 70E0E000 		e_lis %r7,h10Bst@ha
 603 019e 1CE70000 		e_la %r7,h10Bst@l(%r7)
 604 01a2 A177     		se_lhz %r7,2(%r7)
 605 01a4 00E7     		se_extzh %r7
GAS LISTING C:\Users\bayra\AppData\Local\Temp\cc4EtQGM.s 			page 12


 606 01a6 2247     		se_cmpli %r7,5
 607 01a8 7F800020 		e_mcrf %cr7,%cr0
 608 01ac 7CE00026 		mfcr %r7
 609 01b0 74E7E007 		e_rlwinm %r7,%r7,28,0xf0000000
 610 01b4 7CE80120 		mtcrf 128,%r7
 611 01b8 7A01000E 		e_ble %cr0,.L16
 612              		.loc 1 182 0
 613 01bc 4D37     		se_li %r7,83
 614 01be 34E10067 		e_stb %r7,103(%r1)
 615 01c2 7800000A 		e_b .L17
 616              	.L16:
 617              		.loc 1 184 0
 618 01c6 4937     		se_li %r7,19
 619 01c8 34E10067 		e_stb %r7,103(%r1)
 620              	.L17:
 621              		.loc 1 186 0
 622 01cc 4987     		se_li %r7,24
 623 01ce 34E10069 		e_stb %r7,105(%r1)
 624              		.loc 1 187 0
 625 01d2 70E0E000 		e_lis %r7,h10Bst@ha
 626 01d6 1CE70000 		e_la %r7,h10Bst@l(%r7)
 627 01da 8477     		se_lbz %r7,4(%r7)
 628 01dc 00C7     		se_extzb %r7
 629 01de 34E1007B 		e_stb %r7,123(%r1)
 630              		.loc 1 188 0
 631 01e2 18E1805C 		e_addi %r7,%r1,92
 632 01e6 0173     		se_mr %r3,%r7
 633 01e8 4A04     		se_li %r4,32
 634 01ea 70A0010B 		e_li %r5,267
 635 01ee 78000001 		e_bl Crc_CalculateCRC8H2F
 636 01f2 0137     		se_mr %r7,%r3
 637 01f4 34E1005C 		e_stb %r7,92(%r1)
 638              		.loc 1 189 0
 639 01f8 18E1805C 		e_addi %r7,%r1,92
 640 01fc 0173     		se_mr %r3,%r7
 641 01fe 70E0E000 		e_lis %r7,tx10B+12@ha
 642 0202 1C870000 		e_la %r4,tx10B+12@l(%r7)
 643 0206 78000001 		e_bl converto4byteorder
 644              		.loc 1 190 0
 645 020a 70E0E000 		e_lis %r7,CAND7@ha
 646 020e 1C670000 		e_la %r3,CAND7@l(%r7)
 647 0212 2C84     		se_bmaski %r4,8
 648 0214 70E0E000 		e_lis %r7,tx10B@ha
 649 0218 1CA70000 		e_la %r5,tx10B@l(%r7)
 650 021c 78000001 		e_bl can_lld_transmit
 651              	.LBE5:
 652              		.loc 1 159 0
 653 0220 78000274 		e_b .L13
 654              	.L14:
 655              		.loc 1 192 0
 656 0224 C27F     		se_lwz %r7,8(%r31)
 657 0226 7007A94D 		e_cmpl16i %r7,333
 658 022a 7F800020 		e_mcrf %cr7,%cr0
 659 022e 7CE00026 		mfcr %r7
 660 0232 74E7E007 		e_rlwinm %r7,%r7,28,0xf0000000
 661 0236 7CE80120 		mtcrf 128,%r7
 662 023a 7A0201A4 		e_bne %cr0,.L19
GAS LISTING C:\Users\bayra\AppData\Local\Temp\cc4EtQGM.s 			page 13


 663              		.loc 1 192 0 is_stmt 0 discriminator 1
 664 023e 70E0E000 		e_lis %r7,h14Dst@ha
 665 0242 30E70000 		e_lbz %r7,h14Dst@l(%r7)
 666 0246 00C7     		se_extzb %r7
 667 0248 2A07     		se_cmpi %r7,0
 668 024a 7F800020 		e_mcrf %cr7,%cr0
 669 024e 7CE00026 		mfcr %r7
 670 0252 74E7E007 		e_rlwinm %r7,%r7,28,0xf0000000
 671 0256 7CE80120 		mtcrf 128,%r7
 672 025a 7A120184 		e_beq %cr0,.L19
 673              	.LBB7:
 674              		.loc 1 194 0 is_stmt 1
 675 025e 8C7F     		se_lbz %r7,12(%r31)
 676 0260 74E6063F 		e_rlwinm %r6,%r7,0,0xff
 677 0264 70E0E000 		e_lis %r7,tx14D@ha
 678 0268 1CE70000 		e_la %r7,tx14D@l(%r7)
 679 026c 9867     		se_stb %r6,8(%r7)
 680              		.loc 1 195 0
 681 026e C26F     		se_lwz %r6,8(%r31)
 682 0270 70E0E000 		e_lis %r7,tx14D@ha
 683 0274 1CE70000 		e_la %r7,tx14D@l(%r7)
 684 0278 D167     		se_stw %r6,4(%r7)
 685              		.loc 1 196 0
 686 027a 8C7F     		se_lbz %r7,12(%r31)
 687 027c 74E6063F 		e_rlwinm %r6,%r7,0,0xff
 688 0280 70E0E000 		e_lis %r7,tx14D@ha
 689 0284 1CE70000 		e_la %r7,tx14D@l(%r7)
 690 0288 9867     		se_stb %r6,8(%r7)
 691              		.loc 1 197 0
 692 028a 827F     		se_lbz %r7,2(%r31)
 693 028c 74E6063F 		e_rlwinm %r6,%r7,0,0xff
 694 0290 70E0E000 		e_lis %r7,tx14D@ha
 695 0294 1CE70000 		e_la %r7,tx14D@l(%r7)
 696 0298 9067     		se_stb %r6,0(%r7)
 697              		.loc 1 198 0
 698 029a 847F     		se_lbz %r7,4(%r31)
 699 029c 74E6063F 		e_rlwinm %r6,%r7,0,0xff
 700 02a0 70E0E000 		e_lis %r7,tx14D@ha
 701 02a4 1CE70000 		e_la %r7,tx14D@l(%r7)
 702 02a8 9267     		se_stb %r6,2(%r7)
 703              		.loc 1 200 0
 704 02aa 18C1805C 		e_addi %r6,%r1,92
 705 02ae 4C07     		se_li %r7,64
 706 02b0 0163     		se_mr %r3,%r6
 707 02b2 4804     		se_li %r4,0
 708 02b4 0175     		se_mr %r5,%r7
 709 02b6 78000001 		e_bl memset
 710              		.loc 1 201 0
 711 02ba 18DF8010 		e_addi %r6,%r31,16
 712 02be 18E1805C 		e_addi %r7,%r1,92
 713 02c2 0163     		se_mr %r3,%r6
 714 02c4 0174     		se_mr %r4,%r7
 715 02c6 78000001 		e_bl converto1byteorder
 716              		.loc 1 202 0
 717 02ca 70E0E000 		e_lis %r7,h14Dst@ha
 718 02ce 1CE70000 		e_la %r7,h14Dst@l(%r7)
 719 02d2 8177     		se_lbz %r7,1(%r7)
GAS LISTING C:\Users\bayra\AppData\Local\Temp\cc4EtQGM.s 			page 14


 720 02d4 00C7     		se_extzb %r7
 721 02d6 2A07     		se_cmpi %r7,0
 722 02d8 7F800020 		e_mcrf %cr7,%cr0
 723 02dc 7CE00026 		mfcr %r7
 724 02e0 74E7E007 		e_rlwinm %r7,%r7,28,0xf0000000
 725 02e4 7CE80120 		mtcrf 128,%r7
 726 02e8 7A120018 		e_beq %cr0,.L20
 727              		.loc 1 203 0
 728 02ec 30E10063 		e_lbz %r7,99(%r1)
 729 02f0 00C7     		se_extzb %r7
 730 02f2 18E7D030 		e_ori %r7,%r7,48
 731 02f6 00C7     		se_extzb %r7
 732 02f8 34E10063 		e_stb %r7,99(%r1)
 733 02fc 78000014 		e_b .L21
 734              	.L20:
 735              		.loc 1 206 0
 736 0300 30E10063 		e_lbz %r7,99(%r1)
 737 0304 00C7     		se_extzb %r7
 738 0306 18E7C4CF 		e_andi %r7,%r7,-49
 739 030a 00C7     		se_extzb %r7
 740 030c 34E10063 		e_stb %r7,99(%r1)
 741              	.L21:
 742              		.loc 1 208 0
 743 0310 70E0E000 		e_lis %r7,h14Dst@ha
 744 0314 1CE70000 		e_la %r7,h14Dst@l(%r7)
 745 0318 8277     		se_lbz %r7,2(%r7)
 746 031a 00C7     		se_extzb %r7
 747 031c 2A07     		se_cmpi %r7,0
 748 031e 7F800020 		e_mcrf %cr7,%cr0
 749 0322 7CE00026 		mfcr %r7
 750 0326 74E7E007 		e_rlwinm %r7,%r7,28,0xf0000000
 751 032a 7CE80120 		mtcrf 128,%r7
 752 032e 7A120016 		e_beq %cr0,.L22
 753              		.loc 1 209 0
 754 0332 30E10065 		e_lbz %r7,101(%r1)
 755 0336 00C7     		se_extzb %r7
 756 0338 65A7     		se_bseti %r7,26
 757 033a 00C7     		se_extzb %r7
 758 033c 34E10065 		e_stb %r7,101(%r1)
 759 0340 78000012 		e_b .L23
 760              	.L22:
 761              		.loc 1 212 0
 762 0344 30E10065 		e_lbz %r7,101(%r1)
 763 0348 00C7     		se_extzb %r7
 764 034a 61A7     		se_bclri %r7,26
 765 034c 00C7     		se_extzb %r7
 766 034e 34E10065 		e_stb %r7,101(%r1)
 767              	.L23:
 768              		.loc 1 214 0
 769 0352 70E0E000 		e_lis %r7,h14Dst@ha
 770 0356 1CE70000 		e_la %r7,h14Dst@l(%r7)
 771 035a 8377     		se_lbz %r7,3(%r7)
 772 035c 00C7     		se_extzb %r7
 773 035e 2A07     		se_cmpi %r7,0
 774 0360 7F800020 		e_mcrf %cr7,%cr0
 775 0364 7CE00026 		mfcr %r7
 776 0368 74E7E007 		e_rlwinm %r7,%r7,28,0xf0000000
GAS LISTING C:\Users\bayra\AppData\Local\Temp\cc4EtQGM.s 			page 15


 777 036c 7CE80120 		mtcrf 128,%r7
 778 0370 7A12001C 		e_beq %cr0,.L24
 779              		.loc 1 215 0
 780 0374 30E10065 		e_lbz %r7,101(%r1)
 781 0378 00C7     		se_extzb %r7
 782 037a 70FFD7FF 		e_or2is %r7,0xffff
 783 037e 70FFC780 		e_or2i %r7,65408
 784 0382 00C7     		se_extzb %r7
 785 0384 34E10065 		e_stb %r7,101(%r1)
 786 0388 78000014 		e_b .L25
 787              	.L24:
 788              		.loc 1 218 0
 789 038c 30E10065 		e_lbz %r7,101(%r1)
 790 0390 00C7     		se_extzb %r7
 791 0392 18E7C07F 		e_andi %r7,%r7,127
 792 0396 00C7     		se_extzb %r7
 793 0398 34E10065 		e_stb %r7,101(%r1)
 794              	.L25:
 795              		.loc 1 221 0 discriminator 2
 796 039c 18E1805C 		e_addi %r7,%r1,92
 797 03a0 0173     		se_mr %r3,%r7
 798 03a2 4A04     		se_li %r4,32
 799 03a4 70A0014D 		e_li %r5,333
 800 03a8 78000001 		e_bl Crc_CalculateCRC8H2F
 801 03ac 0137     		se_mr %r7,%r3
 802 03ae 34E1005C 		e_stb %r7,92(%r1)
 803              		.loc 1 222 0 discriminator 2
 804 03b2 18E1805C 		e_addi %r7,%r1,92
 805 03b6 0173     		se_mr %r3,%r7
 806 03b8 70E0E000 		e_lis %r7,tx14D+12@ha
 807 03bc 1C870000 		e_la %r4,tx14D+12@l(%r7)
 808 03c0 78000001 		e_bl converto4byteorder
 809              		.loc 1 223 0 discriminator 2
 810 03c4 70E0E000 		e_lis %r7,CAND7@ha
 811 03c8 1C670000 		e_la %r3,CAND7@l(%r7)
 812 03cc 2C84     		se_bmaski %r4,8
 813 03ce 70E0E000 		e_lis %r7,tx14D@ha
 814 03d2 1CA70000 		e_la %r5,tx14D@l(%r7)
 815 03d6 78000001 		e_bl can_lld_transmit
 816              	.LBE7:
 817              		.loc 1 193 0 discriminator 2
 818 03da 780000BA 		e_b .L13
 819              	.L19:
 820              		.loc 1 226 0
 821 03de C27F     		se_lwz %r7,8(%r31)
 822 03e0 7007AB03 		e_cmpl16i %r7,771
 823 03e4 7F800020 		e_mcrf %cr7,%cr0
 824 03e8 7CE00026 		mfcr %r7
 825 03ec 74E7E007 		e_rlwinm %r7,%r7,28,0xf0000000
 826 03f0 7CE80120 		mtcrf 128,%r7
 827 03f4 7A02002A 		e_bne %cr0,.L26
 828              		.loc 1 226 0 is_stmt 0 discriminator 1
 829 03f8 70E0E000 		e_lis %r7,h303st@ha
 830 03fc 1CE70000 		e_la %r7,h303st@l(%r7)
 831 0400 8077     		se_lbz %r7,0(%r7)
 832 0402 00C7     		se_extzb %r7
 833 0404 2A07     		se_cmpi %r7,0
GAS LISTING C:\Users\bayra\AppData\Local\Temp\cc4EtQGM.s 			page 16


 834 0406 7F800020 		e_mcrf %cr7,%cr0
 835 040a 7CE00026 		mfcr %r7
 836 040e 74E7E007 		e_rlwinm %r7,%r7,28,0xf0000000
 837 0412 7CE80120 		mtcrf 128,%r7
 838 0416 7A120008 		e_beq %cr0,.L26
 839              		.loc 1 226 0 discriminator 3
 840 041a 7800007A 		e_b .L13
 841              	.L26:
 842              		.loc 1 229 0 is_stmt 1
 843 041e 8C7F     		se_lbz %r7,12(%r31)
 844 0420 00C7     		se_extzb %r7
 845 0422 34E10014 		e_stb %r7,20(%r1)
 846              		.loc 1 230 0
 847 0426 C27F     		se_lwz %r7,8(%r31)
 848 0428 D471     		se_stw %r7,16(%r1)
 849              		.loc 1 231 0
 850 042a 8C7F     		se_lbz %r7,12(%r31)
 851 042c 00C7     		se_extzb %r7
 852 042e 34E10014 		e_stb %r7,20(%r1)
 853              		.loc 1 232 0
 854 0432 827F     		se_lbz %r7,2(%r31)
 855 0434 00C7     		se_extzb %r7
 856 0436 9C71     		se_stb %r7,12(%r1)
 857              		.loc 1 233 0
 858 0438 847F     		se_lbz %r7,4(%r31)
 859 043a 00C7     		se_extzb %r7
 860 043c 9E71     		se_stb %r7,14(%r1)
 861              	.LBB8:
 862              		.loc 1 234 0
 863 043e 4807     		se_li %r7,0
 864 0440 D271     		se_stw %r7,8(%r1)
 865 0442 78000026 		e_b .L27
 866              	.L28:
 867              		.loc 1 236 0 discriminator 3
 868 0446 C271     		se_lwz %r7,8(%r1)
 869 0448 2037     		se_addi %r7,4
 870 044a 6C27     		se_slwi %r7, 2
 871 044c 7CFF3A14 		add %r7,%r31,%r7
 872 0450 C067     		se_lwz %r6,0(%r7)
 873 0452 C271     		se_lwz %r7,8(%r1)
 874 0454 6C27     		se_slwi %r7, 2
 875 0456 18A18008 		e_addi %r5,%r1,8
 876 045a 7CE53A14 		add %r7,%r5,%r7
 877 045e 2037     		se_addi %r7,4
 878 0460 D367     		se_stw %r6,12(%r7)
 879              		.loc 1 234 0 discriminator 3
 880 0462 C271     		se_lwz %r7,8(%r1)
 881 0464 2007     		se_addi %r7,1
 882 0466 D271     		se_stw %r7,8(%r1)
 883              	.L27:
 884              		.loc 1 234 0 is_stmt 0 discriminator 1
 885 0468 C271     		se_lwz %r7,8(%r1)
 886 046a 2AF7     		se_cmpi %r7,15
 887 046c 7F800020 		e_mcrf %cr7,%cr0
 888 0470 7CE00026 		mfcr %r7
 889 0474 74E7E007 		e_rlwinm %r7,%r7,28,0xf0000000
 890 0478 7CE80120 		mtcrf 128,%r7
GAS LISTING C:\Users\bayra\AppData\Local\Temp\cc4EtQGM.s 			page 17


 891 047c 7A01FFCA 		e_ble %cr0,.L28
 892              	.LBE8:
 893              		.loc 1 238 0 is_stmt 1
 894 0480 18C1800C 		e_addi %r6,%r1,12
 895 0484 70E0E000 		e_lis %r7,CAND7@ha
 896 0488 1C670000 		e_la %r3,CAND7@l(%r7)
 897 048c 2C84     		se_bmaski %r4,8
 898 048e 0165     		se_mr %r5,%r6
 899 0490 78000001 		e_bl can_lld_transmit
 900              	.L13:
 901              		.loc 1 245 0
 902 0494 500100BC 		e_lwz %r0,188(%r1)
 903 0498 0090     		se_mtlr %r0
 904 049a 53E100B4 		e_lwz %r31,180(%r1)
 905 049e 182180B8 		e_addi %r1,%r1,184
 906              	.LCFI5:
 907              		.cfi_restore 31
 908              		.cfi_def_cfa_offset 0
 909 04a2 0004     		se_blr
 910              		.cfi_endproc
 911              	.LFE6:
 912              		.size	can1_Can1new, .-can1_Can1new
 913              		.globl steeringangle
 914              		.section	.bss.steeringangle,"aw",@nobits
 915              		.align 2
 916              		.type	steeringangle, @object
 917              		.size	steeringangle, 4
 918              	steeringangle:
 919 0000 00000000 		.zero	4
 920              		.globl speedFL
 921              		.section	.bss.speedFL,"aw",@nobits
 922              		.align 2
 923              		.type	speedFL, @object
 924              		.size	speedFL, 4
 925              	speedFL:
 926 0000 00000000 		.zero	4
 927              		.globl speedFR
 928              		.section	.bss.speedFR,"aw",@nobits
 929              		.align 2
 930              		.type	speedFR, @object
 931              		.size	speedFR, 4
 932              	speedFR:
 933 0000 00000000 		.zero	4
 934              		.globl speedBL
 935              		.section	.bss.speedBL,"aw",@nobits
 936              		.align 2
 937              		.type	speedBL, @object
 938              		.size	speedBL, 4
 939              	speedBL:
 940 0000 00000000 		.zero	4
 941              		.globl speedBR
 942              		.section	.bss.speedBR,"aw",@nobits
 943              		.align 2
 944              		.type	speedBR, @object
 945              		.size	speedBR, 4
 946              	speedBR:
 947 0000 00000000 		.zero	4
GAS LISTING C:\Users\bayra\AppData\Local\Temp\cc4EtQGM.s 			page 18


 948              		.globl latACC
 949              		.section	.bss.latACC,"aw",@nobits
 950              		.align 2
 951              		.type	latACC, @object
 952              		.size	latACC, 4
 953              	latACC:
 954 0000 00000000 		.zero	4
 955              		.globl longACC
 956              		.section	.bss.longACC,"aw",@nobits
 957              		.align 2
 958              		.type	longACC, @object
 959              		.size	longACC, 4
 960              	longACC:
 961 0000 00000000 		.zero	4
 962              		.globl brakepress
 963              		.section	.bss.brakepress,"aw",@nobits
 964              		.align 2
 965              		.type	brakepress, @object
 966              		.size	brakepress, 4
 967              	brakepress:
 968 0000 00000000 		.zero	4
 969              		.globl throttlepedal
 970              		.section	.bss.throttlepedal,"aw",@nobits
 971              		.align 2
 972              		.type	throttlepedal, @object
 973              		.size	throttlepedal, 4
 974              	throttlepedal:
 975 0000 00000000 		.zero	4
 976              		.globl pitch
 977              		.section	.bss.pitch,"aw",@nobits
 978              		.align 2
 979              		.type	pitch, @object
 980              		.size	pitch, 4
 981              	pitch:
 982 0000 00000000 		.zero	4
 983              		.globl steeringrate
 984              		.section	.bss.steeringrate,"aw",@nobits
 985              		.align 1
 986              		.type	steeringrate, @object
 987              		.size	steeringrate, 2
 988              	steeringrate:
 989 0000 0000     		.zero	2
 990              		.globl motortorkfiltered
 991              		.section	.bss.motortorkfiltered,"aw",@nobits
 992              		.align 1
 993              		.type	motortorkfiltered, @object
 994              		.size	motortorkfiltered, 2
 995              	motortorkfiltered:
 996 0000 0000     		.zero	2
 997              		.globl motortorkraw
 998              		.section	.bss.motortorkraw,"aw",@nobits
 999              		.align 1
 1000              		.type	motortorkraw, @object
 1001              		.size	motortorkraw, 2
 1002              	motortorkraw:
 1003 0000 0000     		.zero	2
 1004              		.globl motortorktotal
GAS LISTING C:\Users\bayra\AppData\Local\Temp\cc4EtQGM.s 			page 19


 1005              		.section	.bss.motortorktotal,"aw",@nobits
 1006              		.align 1
 1007              		.type	motortorktotal, @object
 1008              		.size	motortorktotal, 2
 1009              	motortorktotal:
 1010 0000 0000     		.zero	2
 1011              		.globl RPM
 1012              		.section	.bss.RPM,"aw",@nobits
 1013              		.align 1
 1014              		.type	RPM, @object
 1015              		.size	RPM, 2
 1016              	RPM:
 1017 0000 0000     		.zero	2
 1018              		.globl vehiclemass
 1019              		.section	.bss.vehiclemass,"aw",@nobits
 1020              		.align 1
 1021              		.type	vehiclemass, @object
 1022              		.size	vehiclemass, 2
 1023              	vehiclemass:
 1024 0000 0000     		.zero	2
 1025              		.globl targetgear
 1026              		.section	.bss.targetgear,"aw",@nobits
 1027              		.type	targetgear, @object
 1028              		.size	targetgear, 1
 1029              	targetgear:
 1030 0000 00       		.zero	1
 1031              		.globl driverbrake
 1032              		.section	.bss.driverbrake,"aw",@nobits
 1033              		.type	driverbrake, @object
 1034              		.size	driverbrake, 1
 1035              	driverbrake:
 1036 0000 00       		.zero	1
 1037              		.globl EPB
 1038              		.section	.bss.EPB,"aw",@nobits
 1039              		.type	EPB, @object
 1040              		.size	EPB, 1
 1041              	EPB:
 1042 0000 00       		.zero	1
 1043              		.globl brakepedal
 1044              		.section	.bss.brakepedal,"aw",@nobits
 1045              		.type	brakepedal, @object
 1046              		.size	brakepedal, 1
 1047              	brakepedal:
 1048 0000 00       		.zero	1
 1049              		.globl gear
 1050              		.section	.bss.gear,"aw",@nobits
 1051              		.type	gear, @object
 1052              		.size	gear, 1
 1053              	gear:
 1054 0000 00       		.zero	1
 1055              		.globl gearlvl
 1056              		.section	.bss.gearlvl,"aw",@nobits
 1057              		.type	gearlvl, @object
 1058              		.size	gearlvl, 1
 1059              	gearlvl:
 1060 0000 00       		.zero	1
 1061              		.globl KL75
GAS LISTING C:\Users\bayra\AppData\Local\Temp\cc4EtQGM.s 			page 20


 1062              		.section	.bss.KL75,"aw",@nobits
 1063              		.type	KL75, @object
 1064              		.size	KL75, 1
 1065              	KL75:
 1066 0000 00       		.zero	1
 1067              		.globl fuel
 1068              		.section	.bss.fuel,"aw",@nobits
 1069              		.type	fuel, @object
 1070              		.size	fuel, 1
 1071              	fuel:
 1072 0000 00       		.zero	1
 1073              		.section	.text.can4_Can4rx_new,"axv",@progbits
 1074              		.align 1
 1075              		.p2align 4,,15
 1076              		.globl can4_Can4rx_new
 1077              		.type	can4_Can4rx_new, @function
 1078              	can4_Can4rx_new:
 1079              	.LFB7:
 1080              		.loc 1 251 0
 1081              		.cfi_startproc
 1082 0000 701F7F58 		e_li %r0,-168
 1083 0004 7C21016E 		stwux %r1,%r1,%r0
 1084              	.LCFI6:
 1085              		.cfi_def_cfa_offset 168
 1086 0008 0080     		se_mflr %r0
 1087 000a 540100AC 		e_stw %r0,172(%r1)
 1088 000e 57E100A4 		e_stw %r31,164(%r1)
 1089              		.cfi_offset 65, 4
 1090              		.cfi_offset 31, -4
 1091 0012 54610098 		e_stw %r3,152(%r1)
 1092 0016 014F     		se_mr %r31,%r4
 1093              		.loc 1 253 0
 1094 0018 70E0E000 		e_lis %r7,cnt.21037@ha
 1095 001c 50E70000 		e_lwz %r7,cnt.21037@l(%r7)
 1096 0020 18C78001 		e_addi %r6,%r7,1
 1097 0024 70E0E000 		e_lis %r7,cnt.21037@ha
 1098 0028 54C70000 		e_stw %r6,cnt.21037@l(%r7)
 1099              		.loc 1 255 0
 1100 002c 8C7F     		se_lbz %r7,12(%r31)
 1101 002e 00C7     		se_extzb %r7
 1102 0030 34E10014 		e_stb %r7,20(%r1)
 1103              		.loc 1 256 0
 1104 0034 C27F     		se_lwz %r7,8(%r31)
 1105 0036 D471     		se_stw %r7,16(%r1)
 1106              		.loc 1 257 0
 1107 0038 8C7F     		se_lbz %r7,12(%r31)
 1108 003a 00C7     		se_extzb %r7
 1109 003c 34E10014 		e_stb %r7,20(%r1)
 1110              		.loc 1 258 0
 1111 0040 827F     		se_lbz %r7,2(%r31)
 1112 0042 00C7     		se_extzb %r7
 1113 0044 9C71     		se_stb %r7,12(%r1)
 1114              		.loc 1 259 0
 1115 0046 847F     		se_lbz %r7,4(%r31)
 1116 0048 00C7     		se_extzb %r7
 1117 004a 9E71     		se_stb %r7,14(%r1)
 1118              	.LBB9:
GAS LISTING C:\Users\bayra\AppData\Local\Temp\cc4EtQGM.s 			page 21


 1119              		.loc 1 260 0
 1120 004c 4807     		se_li %r7,0
 1121 004e D271     		se_stw %r7,8(%r1)
 1122 0050 78000026 		e_b .L30
 1123              	.L31:
 1124              		.loc 1 262 0 discriminator 3
 1125 0054 C271     		se_lwz %r7,8(%r1)
 1126 0056 2037     		se_addi %r7,4
 1127 0058 6C27     		se_slwi %r7, 2
 1128 005a 7CFF3A14 		add %r7,%r31,%r7
 1129 005e C067     		se_lwz %r6,0(%r7)
 1130 0060 C271     		se_lwz %r7,8(%r1)
 1131 0062 6C27     		se_slwi %r7, 2
 1132 0064 18A18008 		e_addi %r5,%r1,8
 1133 0068 7CE53A14 		add %r7,%r5,%r7
 1134 006c 2037     		se_addi %r7,4
 1135 006e D367     		se_stw %r6,12(%r7)
 1136              		.loc 1 260 0 discriminator 3
 1137 0070 C271     		se_lwz %r7,8(%r1)
 1138 0072 2007     		se_addi %r7,1
 1139 0074 D271     		se_stw %r7,8(%r1)
 1140              	.L30:
 1141              		.loc 1 260 0 is_stmt 0 discriminator 1
 1142 0076 C271     		se_lwz %r7,8(%r1)
 1143 0078 2AF7     		se_cmpi %r7,15
 1144 007a 7F800020 		e_mcrf %cr7,%cr0
 1145 007e 7CC00026 		mfcr %r6
 1146 0082 74C6E007 		e_rlwinm %r6,%r6,28,0xf0000000
 1147 0086 7CC80120 		mtcrf 128,%r6
 1148 008a 7A01FFCA 		e_ble %cr0,.L31
 1149              	.LBE9:
 1150              		.loc 1 265 0 is_stmt 1
 1151 008e 18DF8010 		e_addi %r6,%r31,16
 1152 0092 18E18058 		e_addi %r7,%r1,88
 1153 0096 0163     		se_mr %r3,%r6
 1154 0098 0174     		se_mr %r4,%r7
 1155 009a 78000001 		e_bl converto1byteorder
 1156              		.loc 1 267 0
 1157 009e C27F     		se_lwz %r7,8(%r31)
 1158 00a0 7007A904 		e_cmpl16i %r7,260
 1159 00a4 7F800020 		e_mcrf %cr7,%cr0
 1160 00a8 7CC00026 		mfcr %r6
 1161 00ac 74C6E007 		e_rlwinm %r6,%r6,28,0xf0000000
 1162 00b0 7CC80120 		mtcrf 128,%r6
 1163 00b4 7A1202EA 		e_beq %cr0,.L33
 1164 00b8 7007A904 		e_cmpl16i %r7,260
 1165 00bc 7F800020 		e_mcrf %cr7,%cr0
 1166 00c0 7CC00026 		mfcr %r6
 1167 00c4 74C6E007 		e_rlwinm %r6,%r6,28,0xf0000000
 1168 00c8 7CC80120 		mtcrf 128,%r6
 1169 00cc 7A1100B4 		e_bgt %cr0,.L34
 1170 00d0 7007A8A8 		e_cmpl16i %r7,168
 1171 00d4 7F800020 		e_mcrf %cr7,%cr0
 1172 00d8 7CC00026 		mfcr %r6
 1173 00dc 74C6E007 		e_rlwinm %r6,%r6,28,0xf0000000
 1174 00e0 7CC80120 		mtcrf 128,%r6
 1175 00e4 7A1201D8 		e_beq %cr0,.L35
GAS LISTING C:\Users\bayra\AppData\Local\Temp\cc4EtQGM.s 			page 22


 1176 00e8 7007A8A8 		e_cmpl16i %r7,168
 1177 00ec 7F800020 		e_mcrf %cr7,%cr0
 1178 00f0 7CC00026 		mfcr %r6
 1179 00f4 74C6E007 		e_rlwinm %r6,%r6,28,0xf0000000
 1180 00f8 7CC80120 		mtcrf 128,%r6
 1181 00fc 7A110038 		e_bgt %cr0,.L36
 1182 0100 7007A886 		e_cmpl16i %r7,134
 1183 0104 7F800020 		e_mcrf %cr7,%cr0
 1184 0108 7CC00026 		mfcr %r6
 1185 010c 74C6E007 		e_rlwinm %r6,%r6,28,0xf0000000
 1186 0110 7CC80120 		mtcrf 128,%r6
 1187 0114 7A120134 		e_beq %cr0,.L37
 1188 0118 7007A8A7 		e_cmpl16i %r7,167
 1189 011c 7F800020 		e_mcrf %cr7,%cr0
 1190 0120 7CC00026 		mfcr %r6
 1191 0124 74C6E007 		e_rlwinm %r6,%r6,28,0xf0000000
 1192 0128 7CC80120 		mtcrf 128,%r6
 1193 012c 7A12014A 		e_beq %cr0,.L38
 1194              		.loc 1 323 0
 1195 0130 7800034A 		e_b .L50
 1196              	.L36:
 1197              		.loc 1 267 0
 1198 0134 7007A8B2 		e_cmpl16i %r7,178
 1199 0138 7F800020 		e_mcrf %cr7,%cr0
 1200 013c 7CC00026 		mfcr %r6
 1201 0140 74C6E007 		e_rlwinm %r6,%r6,28,0xf0000000
 1202 0144 7CC80120 		mtcrf 128,%r6
 1203 0148 7A1201A8 		e_beq %cr0,.L39
 1204 014c 7007A901 		e_cmpl16i %r7,257
 1205 0150 7F800020 		e_mcrf %cr7,%cr0
 1206 0154 7CC00026 		mfcr %r6
 1207 0158 74C6E007 		e_rlwinm %r6,%r6,28,0xf0000000
 1208 015c 7CC80120 		mtcrf 128,%r6
 1209 0160 7A1201E4 		e_beq %cr0,.L40
 1210 0164 7007A8AD 		e_cmpl16i %r7,173
 1211 0168 7F800020 		e_mcrf %cr7,%cr0
 1212 016c 7CC00026 		mfcr %r6
 1213 0170 74C6E007 		e_rlwinm %r6,%r6,28,0xf0000000
 1214 0174 7CC80120 		mtcrf 128,%r6
 1215 0178 7A12015E 		e_beq %cr0,.L41
 1216              		.loc 1 323 0
 1217 017c 780002FE 		e_b .L50
 1218              	.L34:
 1219              		.loc 1 267 0
 1220 0180 7007AB94 		e_cmpl16i %r7,916
 1221 0184 7F800020 		e_mcrf %cr7,%cr0
 1222 0188 7CC00026 		mfcr %r6
 1223 018c 74C6E007 		e_rlwinm %r6,%r6,28,0xf0000000
 1224 0190 7CC80120 		mtcrf 128,%r6
 1225 0194 7A120256 		e_beq %cr0,.L42
 1226 0198 7007AB94 		e_cmpl16i %r7,916
 1227 019c 7F800020 		e_mcrf %cr7,%cr0
 1228 01a0 7CC00026 		mfcr %r6
 1229 01a4 74C6E007 		e_rlwinm %r6,%r6,28,0xf0000000
 1230 01a8 7CC80120 		mtcrf 128,%r6
 1231 01ac 7A110050 		e_bgt %cr0,.L43
 1232 01b0 7007A921 		e_cmpl16i %r7,289
GAS LISTING C:\Users\bayra\AppData\Local\Temp\cc4EtQGM.s 			page 23


 1233 01b4 7F800020 		e_mcrf %cr7,%cr0
 1234 01b8 7CC00026 		mfcr %r6
 1235 01bc 74C6E007 		e_rlwinm %r6,%r6,28,0xf0000000
 1236 01c0 7CC80120 		mtcrf 128,%r6
 1237 01c4 7A1201F4 		e_beq %cr0,.L44
 1238 01c8 7007A976 		e_cmpl16i %r7,374
 1239 01cc 7F800020 		e_mcrf %cr7,%cr0
 1240 01d0 7CC00026 		mfcr %r6
 1241 01d4 74C6E007 		e_rlwinm %r6,%r6,28,0xf0000000
 1242 01d8 7CC80120 		mtcrf 128,%r6
 1243 01dc 7A1201F4 		e_beq %cr0,.L45
 1244 01e0 7007A906 		e_cmpl16i %r7,262
 1245 01e4 7F800020 		e_mcrf %cr7,%cr0
 1246 01e8 7CC00026 		mfcr %r6
 1247 01ec 74C6E007 		e_rlwinm %r6,%r6,28,0xf0000000
 1248 01f0 7CC80120 		mtcrf 128,%r6
 1249 01f4 7A12017C 		e_beq %cr0,.L46
 1250              		.loc 1 323 0
 1251 01f8 78000282 		e_b .L50
 1252              	.L43:
 1253              		.loc 1 267 0
 1254 01fc 7007AE5F 		e_cmpl16i %r7,1631
 1255 0200 7F800020 		e_mcrf %cr7,%cr0
 1256 0204 7CC00026 		mfcr %r6
 1257 0208 74C6E007 		e_rlwinm %r6,%r6,28,0xf0000000
 1258 020c 7CC80120 		mtcrf 128,%r6
 1259 0210 7A120224 		e_beq %cr0,.L47
 1260 0214 7007AEB7 		e_cmpl16i %r7,1719
 1261 0218 7F800020 		e_mcrf %cr7,%cr0
 1262 021c 7CC00026 		mfcr %r6
 1263 0220 74C6E007 		e_rlwinm %r6,%r6,28,0xf0000000
 1264 0224 7CC80120 		mtcrf 128,%r6
 1265 0228 7A12023A 		e_beq %cr0,.L48
 1266 022c 7007ABBE 		e_cmpl16i %r7,958
 1267 0230 7F800020 		e_mcrf %cr7,%cr0
 1268 0234 7CC00026 		mfcr %r6
 1269 0238 74C6E007 		e_rlwinm %r6,%r6,28,0xf0000000
 1270 023c 7CC80120 		mtcrf 128,%r6
 1271 0240 7A1201DA 		e_beq %cr0,.L49
 1272              		.loc 1 323 0
 1273 0244 78000236 		e_b .L50
 1274              	.L37:
 1275              		.loc 1 271 0
 1276 0248 18E18058 		e_addi %r7,%r1,88
 1277 024c 0173     		se_mr %r3,%r7
 1278 024e 78000001 		e_bl GetSteeringWheelAngle
 1279 0252 0136     		se_mr %r6,%r3
 1280 0254 70E0E000 		e_lis %r7,steeringangle@ha
 1281 0258 54C70000 		e_stw %r6,steeringangle@l(%r7)
 1282              		.loc 1 272 0
 1283 025c 18E18058 		e_addi %r7,%r1,88
 1284 0260 0173     		se_mr %r3,%r7
 1285 0262 78000001 		e_bl GetSteeringWheelRate
 1286 0266 0137     		se_mr %r7,%r3
 1287 0268 0176     		se_mr %r6,%r7
 1288 026a 70E0E000 		e_lis %r7,steeringrate@ha
 1289 026e 5CC70000 		e_sth %r6,steeringrate@l(%r7)
GAS LISTING C:\Users\bayra\AppData\Local\Temp\cc4EtQGM.s 			page 24


 1290              		.loc 1 273 0
 1291 0272 78000208 		e_b .L50
 1292              	.L38:
 1293              		.loc 1 275 0
 1294 0276 18E18058 		e_addi %r7,%r1,88
 1295 027a 0173     		se_mr %r3,%r7
 1296 027c 78000001 		e_bl GetTargetMotorTorqueFiltered
 1297 0280 0137     		se_mr %r7,%r3
 1298 0282 0176     		se_mr %r6,%r7
 1299 0284 70E0E000 		e_lis %r7,motortorkfiltered@ha
 1300 0288 5CC70000 		e_sth %r6,motortorkfiltered@l(%r7)
 1301              		.loc 1 276 0
 1302 028c 18E18058 		e_addi %r7,%r1,88
 1303 0290 0173     		se_mr %r3,%r7
 1304 0292 78000001 		e_bl GetTargetMotorTorqueTotal
 1305 0296 0137     		se_mr %r7,%r3
 1306 0298 0176     		se_mr %r6,%r7
 1307 029a 70E0E000 		e_lis %r7,motortorktotal@ha
 1308 029e 5CC70000 		e_sth %r6,motortorktotal@l(%r7)
 1309              		.loc 1 277 0
 1310 02a2 18E18058 		e_addi %r7,%r1,88
 1311 02a6 0173     		se_mr %r3,%r7
 1312 02a8 78000001 		e_bl GetTargetMotorTorqueRaw
 1313 02ac 0137     		se_mr %r7,%r3
 1314 02ae 0176     		se_mr %r6,%r7
 1315 02b0 70E0E000 		e_lis %r7,motortorkraw@ha
 1316 02b4 5CC70000 		e_sth %r6,motortorkraw@l(%r7)
 1317              		.loc 1 278 0
 1318 02b8 780001C2 		e_b .L50
 1319              	.L35:
 1320              		.loc 1 280 0
 1321 02bc 18E18058 		e_addi %r7,%r1,88
 1322 02c0 0173     		se_mr %r3,%r7
 1323 02c2 78000001 		e_bl GetMotorRPM
 1324 02c6 0137     		se_mr %r7,%r3
 1325 02c8 0176     		se_mr %r6,%r7
 1326 02ca 70E0E000 		e_lis %r7,RPM@ha
 1327 02ce 5CC70000 		e_sth %r6,RPM@l(%r7)
 1328              		.loc 1 281 0
 1329 02d2 780001A8 		e_b .L50
 1330              	.L41:
 1331              		.loc 1 283 0
 1332 02d6 18E18058 		e_addi %r7,%r1,88
 1333 02da 0173     		se_mr %r3,%r7
 1334 02dc 78000001 		e_bl GetTargetGearLevel
 1335 02e0 0137     		se_mr %r7,%r3
 1336 02e2 0176     		se_mr %r6,%r7
 1337 02e4 70E0E000 		e_lis %r7,targetgear@ha
 1338 02e8 34C70000 		e_stb %r6,targetgear@l(%r7)
 1339              		.loc 1 284 0
 1340 02ec 7800018E 		e_b .L50
 1341              	.L39:
 1342              		.loc 1 286 0
 1343 02f0 18E18058 		e_addi %r7,%r1,88
 1344 02f4 0173     		se_mr %r3,%r7
 1345 02f6 78000001 		e_bl Get_WheelSpeed_FR
 1346 02fa 0136     		se_mr %r6,%r3
GAS LISTING C:\Users\bayra\AppData\Local\Temp\cc4EtQGM.s 			page 25


 1347 02fc 70E0E000 		e_lis %r7,speedFR@ha
 1348 0300 54C70000 		e_stw %r6,speedFR@l(%r7)
 1349              		.loc 1 287 0
 1350 0304 18E18058 		e_addi %r7,%r1,88
 1351 0308 0173     		se_mr %r3,%r7
 1352 030a 78000001 		e_bl Get_WheelSpeed_FL
 1353 030e 0136     		se_mr %r6,%r3
 1354 0310 70E0E000 		e_lis %r7,speedFL@ha
 1355 0314 54C70000 		e_stw %r6,speedFL@l(%r7)
 1356              		.loc 1 288 0
 1357 0318 18E18058 		e_addi %r7,%r1,88
 1358 031c 0173     		se_mr %r3,%r7
 1359 031e 78000001 		e_bl Get_WheelSpeed_BR
 1360 0322 0136     		se_mr %r6,%r3
 1361 0324 70E0E000 		e_lis %r7,speedBR@ha
 1362 0328 54C70000 		e_stw %r6,speedBR@l(%r7)
 1363              		.loc 1 289 0
 1364 032c 18E18058 		e_addi %r7,%r1,88
 1365 0330 0173     		se_mr %r3,%r7
 1366 0332 78000001 		e_bl Get_WheelSpeed_BL
 1367 0336 0136     		se_mr %r6,%r3
 1368 0338 70E0E000 		e_lis %r7,speedBL@ha
 1369 033c 54C70000 		e_stw %r6,speedBL@l(%r7)
 1370              		.loc 1 290 0
 1371 0340 7800013A 		e_b .L50
 1372              	.L40:
 1373              		.loc 1 292 0
 1374 0344 18E18058 		e_addi %r7,%r1,88
 1375 0348 0173     		se_mr %r3,%r7
 1376 034a 78000001 		e_bl GetLateralACC
 1377 034e 0136     		se_mr %r6,%r3
 1378 0350 70E0E000 		e_lis %r7,latACC@ha
 1379 0354 54C70000 		e_stw %r6,latACC@l(%r7)
 1380              		.loc 1 293 0
 1381 0358 18E18058 		e_addi %r7,%r1,88
 1382 035c 0173     		se_mr %r3,%r7
 1383 035e 78000001 		e_bl GetLongitudinalACC
 1384 0362 0136     		se_mr %r6,%r3
 1385 0364 70E0E000 		e_lis %r7,longACC@ha
 1386 0368 54C70000 		e_stw %r6,longACC@l(%r7)
 1387              		.loc 1 294 0
 1388 036c 7800010E 		e_b .L50
 1389              	.L46:
 1390              		.loc 1 296 0
 1391 0370 18E18058 		e_addi %r7,%r1,88
 1392 0374 0173     		se_mr %r3,%r7
 1393 0376 78000001 		e_bl GetBrakePressure
 1394 037a 0136     		se_mr %r6,%r3
 1395 037c 70E0E000 		e_lis %r7,brakepress@ha
 1396 0380 54C70000 		e_stw %r6,brakepress@l(%r7)
 1397              		.loc 1 297 0
 1398 0384 18E18058 		e_addi %r7,%r1,88
 1399 0388 0173     		se_mr %r3,%r7
 1400 038a 78000001 		e_bl GetDriverBrake
 1401 038e 0137     		se_mr %r7,%r3
 1402 0390 0176     		se_mr %r6,%r7
 1403 0392 70E0E000 		e_lis %r7,driverbrake@ha
GAS LISTING C:\Users\bayra\AppData\Local\Temp\cc4EtQGM.s 			page 26


 1404 0396 34C70000 		e_stb %r6,driverbrake@l(%r7)
 1405              		.loc 1 298 0
 1406 039a 780000E0 		e_b .L50
 1407              	.L33:
 1408              		.loc 1 300 0
 1409 039e 18E18058 		e_addi %r7,%r1,88
 1410 03a2 0173     		se_mr %r3,%r7
 1411 03a4 78000001 		e_bl GetEPBStatus
 1412 03a8 0137     		se_mr %r7,%r3
 1413 03aa 0176     		se_mr %r6,%r7
 1414 03ac 70E0E000 		e_lis %r7,EPB@ha
 1415 03b0 34C70000 		e_stb %r6,EPB@l(%r7)
 1416              		.loc 1 301 0
 1417 03b4 780000C6 		e_b .L50
 1418              	.L44:
 1419              		.loc 1 303 0
 1420 03b8 18E18058 		e_addi %r7,%r1,88
 1421 03bc 0173     		se_mr %r3,%r7
 1422 03be 78000001 		e_bl GetThrottlePedalRawValue
 1423 03c2 0136     		se_mr %r6,%r3
 1424 03c4 70E0E000 		e_lis %r7,throttlepedal@ha
 1425 03c8 54C70000 		e_stw %r6,throttlepedal@l(%r7)
 1426              		.loc 1 304 0
 1427 03cc 780000AE 		e_b .L50
 1428              	.L45:
 1429              		.loc 1 306 0
 1430 03d0 18E18058 		e_addi %r7,%r1,88
 1431 03d4 0173     		se_mr %r3,%r7
 1432 03d6 78000001 		e_bl GetBrakePedalPos
 1433 03da 0137     		se_mr %r7,%r3
 1434 03dc 0176     		se_mr %r6,%r7
 1435 03de 70E0E000 		e_lis %r7,brakepedal@ha
 1436 03e2 34C70000 		e_stb %r6,brakepedal@l(%r7)
 1437              		.loc 1 307 0
 1438 03e6 78000094 		e_b .L50
 1439              	.L42:
 1440              		.loc 1 309 0
 1441 03ea 18E18058 		e_addi %r7,%r1,88
 1442 03ee 0173     		se_mr %r3,%r7
 1443 03f0 78000001 		e_bl GetGear
 1444 03f4 0137     		se_mr %r7,%r3
 1445 03f6 0176     		se_mr %r6,%r7
 1446 03f8 70E0E000 		e_lis %r7,gear@ha
 1447 03fc 34C70000 		e_stb %r6,gear@l(%r7)
 1448              		.loc 1 310 0
 1449 0400 18E18058 		e_addi %r7,%r1,88
 1450 0404 0173     		se_mr %r3,%r7
 1451 0406 78000001 		e_bl GetGearLevel
 1452 040a 0137     		se_mr %r7,%r3
 1453 040c 0176     		se_mr %r6,%r7
 1454 040e 70E0E000 		e_lis %r7,gearlvl@ha
 1455 0412 34C70000 		e_stb %r6,gearlvl@l(%r7)
 1456              		.loc 1 311 0
 1457 0416 78000064 		e_b .L50
 1458              	.L49:
 1459              		.loc 1 313 0
 1460 041a 18E18058 		e_addi %r7,%r1,88
GAS LISTING C:\Users\bayra\AppData\Local\Temp\cc4EtQGM.s 			page 27


 1461 041e 0173     		se_mr %r3,%r7
 1462 0420 78000001 		e_bl GetKL75status
 1463 0424 0137     		se_mr %r7,%r3
 1464 0426 0176     		se_mr %r6,%r7
 1465 0428 70E0E000 		e_lis %r7,KL75@ha
 1466 042c 34C70000 		e_stb %r6,KL75@l(%r7)
 1467              		.loc 1 314 0
 1468 0430 7800004A 		e_b .L50
 1469              	.L47:
 1470              		.loc 1 316 0
 1471 0434 18E18058 		e_addi %r7,%r1,88
 1472 0438 0173     		se_mr %r3,%r7
 1473 043a 78000001 		e_bl GetVehicleMassEst
 1474 043e 0137     		se_mr %r7,%r3
 1475 0440 0176     		se_mr %r6,%r7
 1476 0442 70E0E000 		e_lis %r7,vehiclemass@ha
 1477 0446 5CC70000 		e_sth %r6,vehiclemass@l(%r7)
 1478              		.loc 1 317 0
 1479 044a 18E18058 		e_addi %r7,%r1,88
 1480 044e 0173     		se_mr %r3,%r7
 1481 0450 78000001 		e_bl GetPitchVal
 1482 0454 0136     		se_mr %r6,%r3
 1483 0456 70E0E000 		e_lis %r7,pitch@ha
 1484 045a 54C70000 		e_stw %r6,pitch@l(%r7)
 1485              		.loc 1 318 0
 1486 045e 7800001C 		e_b .L50
 1487              	.L48:
 1488              		.loc 1 320 0
 1489 0462 18E18058 		e_addi %r7,%r1,88
 1490 0466 0173     		se_mr %r3,%r7
 1491 0468 78000001 		e_bl GetFuelLevel
 1492 046c 0137     		se_mr %r7,%r3
 1493 046e 0176     		se_mr %r6,%r7
 1494 0470 70E0E000 		e_lis %r7,fuel@ha
 1495 0474 34C70000 		e_stb %r6,fuel@l(%r7)
 1496              		.loc 1 321 0
 1497 0478 4400     		se_nop
 1498              	.L50:
 1499              		.loc 1 327 0
 1500 047a 18C1800C 		e_addi %r6,%r1,12
 1501 047e 70E0E000 		e_lis %r7,CAND2@ha
 1502 0482 1C670000 		e_la %r3,CAND2@l(%r7)
 1503 0486 2C84     		se_bmaski %r4,8
 1504 0488 0165     		se_mr %r5,%r6
 1505 048a 78000001 		e_bl can_lld_transmit
 1506              		.loc 1 328 0
 1507 048e 500100AC 		e_lwz %r0,172(%r1)
 1508 0492 0090     		se_mtlr %r0
 1509 0494 53E100A4 		e_lwz %r31,164(%r1)
 1510 0498 182180A8 		e_addi %r1,%r1,168
 1511              	.LCFI7:
 1512              		.cfi_restore 31
 1513              		.cfi_def_cfa_offset 0
 1514 049c 0004     		se_blr
 1515              		.cfi_endproc
 1516              	.LFE7:
 1517              		.size	can4_Can4rx_new, .-can4_Can4rx_new
GAS LISTING C:\Users\bayra\AppData\Local\Temp\cc4EtQGM.s 			page 28


 1518              		.section	.text.can1_can1rx,"axv",@progbits
 1519              		.align 1
 1520              		.p2align 4,,15
 1521              		.globl can1_can1rx
 1522              		.type	can1_can1rx, @function
 1523              	can1_can1rx:
 1524              	.LFB8:
 1525              		.loc 1 332 0
 1526              		.cfi_startproc
 1527 0000 182106E8 		e_stwu %r1,-24(%r1)
 1528              	.LCFI8:
 1529              		.cfi_def_cfa_offset 24
 1530 0004 0080     		se_mflr %r0
 1531 0006 D701     		se_stw %r0,28(%r1)
 1532 0008 D5F1     		se_stw %r31,20(%r1)
 1533              		.cfi_offset 65, 4
 1534              		.cfi_offset 31, -4
 1535 000a D231     		se_stw %r3,8(%r1)
 1536 000c 014F     		se_mr %r31,%r4
 1537              		.loc 1 334 0
 1538 000e 70E0E000 		e_lis %r7,cnt.21064@ha
 1539 0012 50E70000 		e_lwz %r7,cnt.21064@l(%r7)
 1540 0016 18C78001 		e_addi %r6,%r7,1
 1541 001a 70E0E000 		e_lis %r7,cnt.21064@ha
 1542 001e 54C70000 		e_stw %r6,cnt.21064@l(%r7)
 1543              		.loc 1 335 0
 1544 0022 70E0E000 		e_lis %r7,rx@ha
 1545 0026 1CE70000 		e_la %r7,rx@l(%r7)
 1546 002a 0175     		se_mr %r5,%r7
 1547 002c 01F6     		se_mr %r6,%r31
 1548 002e 4D07     		se_li %r7,80
 1549 0030 0153     		se_mr %r3,%r5
 1550 0032 0164     		se_mr %r4,%r6
 1551 0034 0175     		se_mr %r5,%r7
 1552 0036 78000001 		e_bl memcpy
 1553              		.loc 1 336 0
 1554 003a C701     		se_lwz %r0,28(%r1)
 1555 003c 0090     		se_mtlr %r0
 1556 003e C5F1     		se_lwz %r31,20(%r1)
 1557 0040 2171     		se_addi %r1,24
 1558              	.LCFI9:
 1559              		.cfi_restore 31
 1560              		.cfi_def_cfa_offset 0
 1561 0042 0004     		se_blr
 1562              		.cfi_endproc
 1563              	.LFE8:
 1564              		.size	can1_can1rx, .-can1_can1rx
 1565              		.globl can4cnt
 1566              		.section	.bss.can4cnt,"aw",@nobits
 1567              		.align 2
 1568              		.type	can4cnt, @object
 1569              		.size	can4cnt, 4
 1570              	can4cnt:
 1571 0000 00000000 		.zero	4
 1572              		.section	.text.can4_can4rx,"axv",@progbits
 1573              		.align 1
 1574              		.p2align 4,,15
GAS LISTING C:\Users\bayra\AppData\Local\Temp\cc4EtQGM.s 			page 29


 1575              		.globl can4_can4rx
 1576              		.type	can4_can4rx, @function
 1577              	can4_can4rx:
 1578              	.LFB9:
 1579              		.loc 1 339 0
 1580              		.cfi_startproc
 1581 0000 182106F0 		e_stwu %r1,-16(%r1)
 1582              	.LCFI10:
 1583              		.cfi_def_cfa_offset 16
 1584 0004 D231     		se_stw %r3,8(%r1)
 1585              		.loc 1 341 0
 1586 0006 70E0E000 		e_lis %r7,can4cnt@ha
 1587 000a 50E70000 		e_lwz %r7,can4cnt@l(%r7)
 1588 000e 18C78001 		e_addi %r6,%r7,1
 1589 0012 70E0E000 		e_lis %r7,can4cnt@ha
 1590 0016 54C70000 		e_stw %r6,can4cnt@l(%r7)
 1591              		.loc 1 342 0
 1592 001a 20F1     		se_addi %r1,16
 1593              	.LCFI11:
 1594              		.cfi_def_cfa_offset 0
 1595 001c 0004     		se_blr
 1596              		.cfi_endproc
 1597              	.LFE9:
 1598              		.size	can4_can4rx, .-can4_can4rx
 1599              		.section	.bss.lastEnable.20985,"aw",@nobits
 1600              		.type	lastEnable.20985, @object
 1601              		.size	lastEnable.20985, 1
 1602              	lastEnable.20985:
 1603 0000 00       		.zero	1
 1604              		.section	.bss.cnt.20991,"aw",@nobits
 1605              		.align 2
 1606              		.type	cnt.20991, @object
 1607              		.size	cnt.20991, 4
 1608              	cnt.20991:
 1609 0000 00000000 		.zero	4
 1610              		.section	.bss.cnt.21000,"aw",@nobits
 1611              		.align 2
 1612              		.type	cnt.21000, @object
 1613              		.size	cnt.21000, 4
 1614              	cnt.21000:
 1615 0000 00000000 		.zero	4
 1616              		.section	.bss.cnt.21037,"aw",@nobits
 1617              		.align 2
 1618              		.type	cnt.21037, @object
 1619              		.size	cnt.21037, 4
 1620              	cnt.21037:
 1621 0000 00000000 		.zero	4
 1622              		.section	.bss.cnt.21064,"aw",@nobits
 1623              		.align 2
 1624              		.type	cnt.21064, @object
 1625              		.size	cnt.21064, 4
 1626              	cnt.21064:
 1627 0000 00000000 		.zero	4
 1628              		.section	".text","axv"
 1629              	.Letext0:
 1630              		.file 2 "c:\\spc5studio-6.0\\eclipse\\plugins\\com.st.tools.spc5.tools.gnu.gcc.ppcvle.win32_4.9.4.
 1631              		.file 3 "c:\\spc5studio-6.0\\eclipse\\plugins\\com.st.tools.spc5.tools.gnu.gcc.ppcvle.win32_4.9.4.
GAS LISTING C:\Users\bayra\AppData\Local\Temp\cc4EtQGM.s 			page 30


 1632              		.file 4 "./components/spc58ecxx_platform_component_rla/lib/include/typedefs.h"
 1633              		.file 5 "./components/spc58ecxx_platform_component_rla/lib/include/spc58xcxx.h"
 1634              		.file 6 "./components/spc58ecxx_low_level_drivers_component_rla/lib/include/can_lld.h"
 1635              		.file 7 "./components/spc5_freertos_component_rla/lib/portable/portmacro.h"
 1636              		.file 8 "./components/spc58ecxx_low_level_drivers_component_rla/cfg/can_lld_cfg.h"