GAS LISTING C:\Users\bayra\AppData\Local\Temp\ccS7zbex.s 			page 1


   1              		.file	"osal.c"
   2              		.section	".text","axv"
   3              	.Ltext0:
   4              		.cfi_sections	.debug_frame
   5              		.section	.text.osalSysTimeSetup,"axv",@progbits
   6              		.align 1
   7              		.p2align 4,,15
   8              		.globl osalSysTimeSetup
   9              		.type	osalSysTimeSetup, @function
  10              	osalSysTimeSetup:
  11              	.LFB3:
  12              		.file 1 "./components/spc58ecxx_osal_component_rla/lib/src/osal.c"
  13              		.loc 1 102 0
  14              		.cfi_startproc
  15              	.LVL0:
  16 0000 182106F8 		e_stwu %r1,-8(%r1)
  17              	.LCFI0:
  18              		.cfi_def_cfa_offset 8
  19 0004 0080     		se_mflr %r0
  20              		.loc 1 104 0
  21 0006 70E0E000 		e_lis %r7,.LANCHOR0@ha
  22              		.loc 1 102 0
  23 000a D301     		se_stw %r0,12(%r1)
  24              		.cfi_offset 65, 4
  25              		.loc 1 104 0
  26 000c 54670000 		e_stw %r3,.LANCHOR0@l(%r7)
  27              		.loc 1 106 0
  28 0010 78000001 		e_bl sysTimeSetup
  29              	.LVL1:
  30              		.loc 1 109 0
  31 0014 C301     		se_lwz %r0,12(%r1)
  32 0016 0090     		se_mtlr %r0
  33              		.cfi_restore 65
  34              		.loc 1 108 0
  35 0018 7060E000 		e_lis %r3,.LANCHOR1@ha
  36              		.loc 1 109 0
  37 001c 1C630000 		e_la %r3,.LANCHOR1@l(%r3)
  38 0020 2071     		se_addi %r1,8
  39              	.LCFI1:
  40              		.cfi_def_cfa_offset 0
  41 0022 0004     		se_blr
  42              		.cfi_endproc
  43              	.LFE3:
  44              		.size	osalSysTimeSetup, .-osalSysTimeSetup
  45              		.section	.text.osalSysTimeReset,"axv",@progbits
  46              		.align 1
  47              		.p2align 4,,15
  48              		.globl osalSysTimeReset
  49              		.type	osalSysTimeReset, @function
  50              	osalSysTimeReset:
  51              	.LFB4:
  52              		.loc 1 117 0
  53              		.cfi_startproc
  54              		.loc 1 120 0
  55              		.loc 1 119 0
  56 0000 78000000 		e_b sysTimeReset
  57              	.LVL2:
GAS LISTING C:\Users\bayra\AppData\Local\Temp\ccS7zbex.s 			page 2


  58              		.cfi_endproc
  59              	.LFE4:
  60              		.size	osalSysTimeReset, .-osalSysTimeReset
  61              		.section	.text.osalThreadDelaySeconds,"axv",@progbits
  62              		.align 1
  63              		.p2align 4,,15
  64              		.globl osalThreadDelaySeconds
  65              		.type	osalThreadDelaySeconds, @function
  66              	osalThreadDelaySeconds:
  67              	.LFB11:
  68              		.loc 1 328 0
  69              		.cfi_startproc
  70              	.LVL3:
  71 0000 182106E8 		e_stwu %r1,-24(%r1)
  72              	.LCFI2:
  73              		.cfi_def_cfa_offset 24
  74 0004 0080     		se_mflr %r0
  75              	.LBB30:
  76              	.LBB31:
  77              		.file 2 "./components/spc58ecxx_osal_component_rla/cfg/osal_cfg.h"
  78              		.loc 2 100 0
  79 0006 2C07     		se_bmaski %r7,0
  80              	.LBE31:
  81              	.LBE30:
  82              		.loc 1 328 0
  83 0008 D701     		se_stw %r0,28(%r1)
  84              		.cfi_offset 65, 4
  85              	.LBB33:
  86              	.LBB32:
  87              		.loc 2 100 0
  88 000a 9871     		se_stb %r7,8(%r1)
  89              		.loc 2 101 0
  90              	 # 101 "./components/spc58ecxx_osal_component_rla/cfg/osal_cfg.h" 1
  91 000c 7CDE42A6 		mfspr %r6, 286
  92              	 # 0 "" 2
  93              		.loc 2 102 0
  94 0010 4827     		se_li %r7,2
  95              		.loc 2 101 0
  96 0012 9861     		se_stb %r6,8(%r1)
  97              		.loc 2 102 0
  98 0014 8861     		se_lbz %r6,8(%r1)
  99 0016 2216     		se_cmpli %r6,2
 100 0018 7A110006 		e_bgt %cr0,.L4
 101 001c 8871     		se_lbz %r7,8(%r1)
 102              	.L4:
 103              	.LVL4:
 104              	.LBE32:
 105              	.LBE33:
 106              	.LBB34:
 107              	.LBB35:
 108              		.loc 1 133 0
 109 001e 70C0E000 		e_lis %r6,.LANCHOR0@ha
 110              	.LBE35:
 111              	.LBE34:
 112              		.loc 1 329 0
 113 0022 6C47     		se_slwi %r7, 4
 114              	.LBB37:
GAS LISTING C:\Users\bayra\AppData\Local\Temp\ccS7zbex.s 			page 3


 115              	.LBB36:
 116              		.loc 1 133 0
 117 0024 50C60000 		e_lwz %r6,.LANCHOR0@l(%r6)
 118              	.LBE36:
 119              	.LBE37:
 120              		.loc 1 329 0
 121 0028 0563     		se_mullw %r3,%r6
 122              	.LVL5:
 123 002a 70C0E000 		e_lis %r6,.LANCHOR2@ha
 124 002e 1CC60000 		e_la %r6,.LANCHOR2@l(%r6)
 125 0032 7CE6382E 		lwzx %r7,%r6,%r7
 126 0036 00B7     		se_mtctr %r7
 127 0038 0007     		se_bctrl
 128              	.LVL6:
 129              		.loc 1 330 0
 130 003a C701     		se_lwz %r0,28(%r1)
 131 003c 0090     		se_mtlr %r0
 132              		.cfi_restore 65
 133 003e 2171     		se_addi %r1,24
 134              	.LCFI3:
 135              		.cfi_def_cfa_offset 0
 136 0040 0004     		se_blr
 137              		.cfi_endproc
 138              	.LFE11:
 139              		.size	osalThreadDelaySeconds, .-osalThreadDelaySeconds
 140              		.section	.text.osalThreadDelayMilliseconds,"axv",@progbits
 141              		.align 1
 142              		.p2align 4,,15
 143              		.globl osalThreadDelayMilliseconds
 144              		.type	osalThreadDelayMilliseconds, @function
 145              	osalThreadDelayMilliseconds:
 146              	.LFB12:
 147              		.loc 1 342 0
 148              		.cfi_startproc
 149              	.LVL7:
 150 0000 182106E8 		e_stwu %r1,-24(%r1)
 151              	.LCFI4:
 152              		.cfi_def_cfa_offset 24
 153 0004 0080     		se_mflr %r0
 154              	.LBB38:
 155              	.LBB39:
 156              		.loc 2 100 0
 157 0006 2C07     		se_bmaski %r7,0
 158              	.LBE39:
 159              	.LBE38:
 160              		.loc 1 342 0
 161 0008 D701     		se_stw %r0,28(%r1)
 162              		.cfi_offset 65, 4
 163              	.LBB41:
 164              	.LBB40:
 165              		.loc 2 100 0
 166 000a 9871     		se_stb %r7,8(%r1)
 167              		.loc 2 101 0
 168              	 # 101 "./components/spc58ecxx_osal_component_rla/cfg/osal_cfg.h" 1
 169 000c 7CBE42A6 		mfspr %r5, 286
 170              	 # 0 "" 2
 171              		.loc 2 102 0
GAS LISTING C:\Users\bayra\AppData\Local\Temp\ccS7zbex.s 			page 4


 172 0010 4826     		se_li %r6,2
 173              		.loc 2 101 0
 174 0012 9851     		se_stb %r5,8(%r1)
 175              		.loc 2 102 0
 176 0014 8851     		se_lbz %r5,8(%r1)
 177 0016 2215     		se_cmpli %r5,2
 178 0018 7A110006 		e_bgt %cr0,.L8
 179 001c 8861     		se_lbz %r6,8(%r1)
 180              	.L8:
 181              	.LBE40:
 182              	.LBE41:
 183              		.loc 1 343 0
 184 001e 6C46     		se_slwi %r6, 4
 185 0020 70A0E000 		e_lis %r5,.LANCHOR2@ha
 186              	.LBB42:
 187              	.LBB43:
 188              		.loc 1 147 0
 189 0024 4807     		se_li %r7,0
 190              	.LBE43:
 191              	.LBE42:
 192              		.loc 1 343 0
 193 0026 1CA50000 		e_la %r5,.LANCHOR2@l(%r5)
 194              	.LBB46:
 195              	.LBB44:
 196              		.loc 1 147 0
 197 002a 2A03     		se_cmpi %r3,0
 198              	.LBE44:
 199              	.LBE46:
 200              		.loc 1 343 0
 201 002c 7CA5302E 		lwzx %r5,%r5,%r6
 202              	.LVL8:
 203              	.LBB47:
 204              	.LBB45:
 205              		.loc 1 147 0
 206 0030 7A120022 		e_beq %cr0,.L9
 207              		.loc 1 148 0
 208 0034 70E0E000 		e_lis %r7,.LANCHOR0@ha
 209 0038 70C2E062 		e_lis %r6,0x1062
 210 003c 50E70000 		e_lwz %r7,.LANCHOR0@l(%r7)
 211 0040 70C9C5D3 		e_or2i %r6,19923
 212 0044 0537     		se_mullw %r7,%r3
 213 0046 18E784FF 		e_addi %r7,%r7,-1
 214 004a 7CE73016 		mulhwu %r7,%r7,%r6
 215 004e 6867     		se_srwi %r7,6
 216              		.loc 1 147 0
 217 0050 2007     		se_addi %r7,1
 218              	.L9:
 219              	.LBE45:
 220              	.LBE47:
 221              		.loc 1 343 0
 222 0052 0173     		se_mr %r3,%r7
 223              	.LVL9:
 224 0054 00B5     		se_mtctr %r5
 225 0056 0007     		se_bctrl
 226              	.LVL10:
 227              		.loc 1 344 0
 228 0058 C701     		se_lwz %r0,28(%r1)
GAS LISTING C:\Users\bayra\AppData\Local\Temp\ccS7zbex.s 			page 5


 229 005a 0090     		se_mtlr %r0
 230              		.cfi_restore 65
 231 005c 2171     		se_addi %r1,24
 232              	.LCFI5:
 233              		.cfi_def_cfa_offset 0
 234 005e 0004     		se_blr
 235              		.cfi_endproc
 236              	.LFE12:
 237              		.size	osalThreadDelayMilliseconds, .-osalThreadDelayMilliseconds
 238              		.section	.text.osalThreadDelayMicroseconds,"axv",@progbits
 239              		.align 1
 240              		.p2align 4,,15
 241              		.globl osalThreadDelayMicroseconds
 242              		.type	osalThreadDelayMicroseconds, @function
 243              	osalThreadDelayMicroseconds:
 244              	.LFB13:
 245              		.loc 1 356 0
 246              		.cfi_startproc
 247              	.LVL11:
 248 0000 182106E8 		e_stwu %r1,-24(%r1)
 249              	.LCFI6:
 250              		.cfi_def_cfa_offset 24
 251 0004 0080     		se_mflr %r0
 252              	.LBB48:
 253              	.LBB49:
 254              		.loc 2 100 0
 255 0006 2C07     		se_bmaski %r7,0
 256              	.LBE49:
 257              	.LBE48:
 258              		.loc 1 356 0
 259 0008 D701     		se_stw %r0,28(%r1)
 260              		.cfi_offset 65, 4
 261              	.LBB51:
 262              	.LBB50:
 263              		.loc 2 100 0
 264 000a 9871     		se_stb %r7,8(%r1)
 265              		.loc 2 101 0
 266              	 # 101 "./components/spc58ecxx_osal_component_rla/cfg/osal_cfg.h" 1
 267 000c 7CBE42A6 		mfspr %r5, 286
 268              	 # 0 "" 2
 269              		.loc 2 102 0
 270 0010 4826     		se_li %r6,2
 271              		.loc 2 101 0
 272 0012 9851     		se_stb %r5,8(%r1)
 273              		.loc 2 102 0
 274 0014 8851     		se_lbz %r5,8(%r1)
 275 0016 2215     		se_cmpli %r5,2
 276 0018 7A110006 		e_bgt %cr0,.L13
 277 001c 8861     		se_lbz %r6,8(%r1)
 278              	.L13:
 279              	.LBE50:
 280              	.LBE51:
 281              		.loc 1 357 0
 282 001e 6C46     		se_slwi %r6, 4
 283 0020 70A0E000 		e_lis %r5,.LANCHOR2@ha
 284              	.LBB52:
 285              	.LBB53:
GAS LISTING C:\Users\bayra\AppData\Local\Temp\ccS7zbex.s 			page 6


 286              		.loc 1 162 0
 287 0024 4807     		se_li %r7,0
 288              	.LBE53:
 289              	.LBE52:
 290              		.loc 1 357 0
 291 0026 1CA50000 		e_la %r5,.LANCHOR2@l(%r5)
 292              	.LBB56:
 293              	.LBB54:
 294              		.loc 1 162 0
 295 002a 2A03     		se_cmpi %r3,0
 296              	.LBE54:
 297              	.LBE56:
 298              		.loc 1 357 0
 299 002c 7CA5302E 		lwzx %r5,%r5,%r6
 300              	.LVL12:
 301              	.LBB57:
 302              	.LBB55:
 303              		.loc 1 162 0
 304 0030 7A120022 		e_beq %cr0,.L14
 305              		.loc 1 163 0
 306 0034 70E0E000 		e_lis %r7,.LANCHOR0@ha
 307 0038 70C8E31B 		e_lis %r6,0x431b
 308 003c 50E70000 		e_lwz %r7,.LANCHOR0@l(%r7)
 309 0040 70DBC683 		e_or2i %r6,56963
 310 0044 0537     		se_mullw %r7,%r3
 311 0046 18E784FF 		e_addi %r7,%r7,-1
 312 004a 7CE73016 		mulhwu %r7,%r7,%r6
 313 004e 6927     		se_srwi %r7,18
 314              		.loc 1 162 0
 315 0050 2007     		se_addi %r7,1
 316              	.L14:
 317              	.LBE55:
 318              	.LBE57:
 319              		.loc 1 357 0
 320 0052 0173     		se_mr %r3,%r7
 321              	.LVL13:
 322 0054 00B5     		se_mtctr %r5
 323 0056 0007     		se_bctrl
 324              	.LVL14:
 325              		.loc 1 358 0
 326 0058 C701     		se_lwz %r0,28(%r1)
 327 005a 0090     		se_mtlr %r0
 328              		.cfi_restore 65
 329 005c 2171     		se_addi %r1,24
 330              	.LCFI7:
 331              		.cfi_def_cfa_offset 0
 332 005e 0004     		se_blr
 333              		.cfi_endproc
 334              	.LFE13:
 335              		.size	osalThreadDelayMicroseconds, .-osalThreadDelayMicroseconds
 336              		.section	.text.osalThreadGetSeconds,"axv",@progbits
 337              		.align 1
 338              		.p2align 4,,15
 339              		.globl osalThreadGetSeconds
 340              		.type	osalThreadGetSeconds, @function
 341              	osalThreadGetSeconds:
 342              	.LFB14:
GAS LISTING C:\Users\bayra\AppData\Local\Temp\ccS7zbex.s 			page 7


 343              		.loc 1 367 0
 344              		.cfi_startproc
 345 0000 182106E8 		e_stwu %r1,-24(%r1)
 346              	.LCFI8:
 347              		.cfi_def_cfa_offset 24
 348 0004 0080     		se_mflr %r0
 349              	.LBB58:
 350              	.LBB59:
 351              		.loc 2 100 0
 352 0006 2C07     		se_bmaski %r7,0
 353              	.LBE59:
 354              	.LBE58:
 355              		.loc 1 367 0
 356 0008 D701     		se_stw %r0,28(%r1)
 357              		.cfi_offset 65, 4
 358              	.LBB61:
 359              	.LBB60:
 360              		.loc 2 100 0
 361 000a 9871     		se_stb %r7,8(%r1)
 362              		.loc 2 101 0
 363              	 # 101 "./components/spc58ecxx_osal_component_rla/cfg/osal_cfg.h" 1
 364 000c 7CDE42A6 		mfspr %r6, 286
 365              	 # 0 "" 2
 366              		.loc 2 102 0
 367 0010 4827     		se_li %r7,2
 368              		.loc 2 101 0
 369 0012 9861     		se_stb %r6,8(%r1)
 370              		.loc 2 102 0
 371 0014 8861     		se_lbz %r6,8(%r1)
 372 0016 2216     		se_cmpli %r6,2
 373 0018 7A110006 		e_bgt %cr0,.L18
 374 001c 8871     		se_lbz %r7,8(%r1)
 375              	.L18:
 376              	.LBE60:
 377              	.LBE61:
 378              		.loc 1 368 0
 379 001e 6C47     		se_slwi %r7, 4
 380 0020 70C0E000 		e_lis %r6,.LANCHOR2@ha
 381 0024 1CC60000 		e_la %r6,.LANCHOR2@l(%r6)
 382 0028 7CE63A14 		add %r7,%r6,%r7
 383 002c C177     		se_lwz %r7,4(%r7)
 384 002e 00B7     		se_mtctr %r7
 385 0030 0007     		se_bctrl
 386              	.LVL15:
 387              		.loc 1 369 0
 388 0032 C701     		se_lwz %r0,28(%r1)
 389 0034 0090     		se_mtlr %r0
 390              		.cfi_restore 65
 391              	.LBB62:
 392              	.LBB63:
 393              		.loc 1 177 0
 394 0036 70E0E000 		e_lis %r7,.LANCHOR0@ha
 395              	.LBE63:
 396              	.LBE62:
 397              		.loc 1 369 0
 398              	.LBB65:
 399              	.LBB64:
GAS LISTING C:\Users\bayra\AppData\Local\Temp\ccS7zbex.s 			page 8


 400              		.loc 1 177 0
 401 003a 50E70000 		e_lwz %r7,.LANCHOR0@l(%r7)
 402              	.LBE64:
 403              	.LBE65:
 404              		.loc 1 369 0
 405 003e 2171     		se_addi %r1,24
 406              	.LCFI9:
 407              		.cfi_def_cfa_offset 0
 408 0040 7C633B96 		divwu %r3,%r3,%r7
 409              	.LVL16:
 410 0044 0004     		se_blr
 411              		.cfi_endproc
 412              	.LFE14:
 413              		.size	osalThreadGetSeconds, .-osalThreadGetSeconds
 414              		.section	.text.osalThreadGetMilliseconds,"axv",@progbits
 415              		.align 1
 416              		.p2align 4,,15
 417              		.globl osalThreadGetMilliseconds
 418              		.type	osalThreadGetMilliseconds, @function
 419              	osalThreadGetMilliseconds:
 420              	.LFB15:
 421              		.loc 1 378 0
 422              		.cfi_startproc
 423 0000 182106E8 		e_stwu %r1,-24(%r1)
 424              	.LCFI10:
 425              		.cfi_def_cfa_offset 24
 426 0004 0080     		se_mflr %r0
 427              	.LBB66:
 428              	.LBB67:
 429              		.loc 2 100 0
 430 0006 2C07     		se_bmaski %r7,0
 431              	.LBE67:
 432              	.LBE66:
 433              		.loc 1 378 0
 434 0008 D701     		se_stw %r0,28(%r1)
 435              		.cfi_offset 65, 4
 436              	.LBB69:
 437              	.LBB68:
 438              		.loc 2 100 0
 439 000a 9871     		se_stb %r7,8(%r1)
 440              		.loc 2 101 0
 441              	 # 101 "./components/spc58ecxx_osal_component_rla/cfg/osal_cfg.h" 1
 442 000c 7CDE42A6 		mfspr %r6, 286
 443              	 # 0 "" 2
 444              		.loc 2 102 0
 445 0010 4827     		se_li %r7,2
 446              		.loc 2 101 0
 447 0012 9861     		se_stb %r6,8(%r1)
 448              		.loc 2 102 0
 449 0014 8861     		se_lbz %r6,8(%r1)
 450 0016 2216     		se_cmpli %r6,2
 451 0018 7A110006 		e_bgt %cr0,.L21
 452 001c 8871     		se_lbz %r7,8(%r1)
 453              	.L21:
 454              	.LBE68:
 455              	.LBE69:
 456              		.loc 1 379 0
GAS LISTING C:\Users\bayra\AppData\Local\Temp\ccS7zbex.s 			page 9


 457 001e 6C47     		se_slwi %r7, 4
 458 0020 70C0E000 		e_lis %r6,.LANCHOR2@ha
 459 0024 1CC60000 		e_la %r6,.LANCHOR2@l(%r6)
 460 0028 7CE63A14 		add %r7,%r6,%r7
 461 002c C177     		se_lwz %r7,4(%r7)
 462 002e 00B7     		se_mtctr %r7
 463 0030 0007     		se_bctrl
 464              	.LVL17:
 465              		.loc 1 380 0
 466 0032 C701     		se_lwz %r0,28(%r1)
 467 0034 0090     		se_mtlr %r0
 468              		.cfi_restore 65
 469              	.LBB70:
 470              	.LBB71:
 471              		.loc 1 191 0
 472 0036 7003A3E8 		e_mull2i %r3,1000
 473              	.LVL18:
 474 003a 70E0E000 		e_lis %r7,.LANCHOR0@ha
 475              	.LBE71:
 476              	.LBE70:
 477              		.loc 1 380 0
 478              	.LBB73:
 479              	.LBB72:
 480              		.loc 1 191 0
 481 003e 50E70000 		e_lwz %r7,.LANCHOR0@l(%r7)
 482              	.LBE72:
 483              	.LBE73:
 484              		.loc 1 380 0
 485 0042 2171     		se_addi %r1,24
 486              	.LCFI11:
 487              		.cfi_def_cfa_offset 0
 488 0044 7C633B96 		divwu %r3,%r3,%r7
 489 0048 0004     		se_blr
 490              		.cfi_endproc
 491              	.LFE15:
 492              		.size	osalThreadGetMilliseconds, .-osalThreadGetMilliseconds
 493              		.section	.text.osalThreadGetMicroseconds,"axv",@progbits
 494              		.align 1
 495              		.p2align 4,,15
 496              		.globl osalThreadGetMicroseconds
 497              		.type	osalThreadGetMicroseconds, @function
 498              	osalThreadGetMicroseconds:
 499              	.LFB16:
 500              		.loc 1 389 0
 501              		.cfi_startproc
 502 0000 182106E8 		e_stwu %r1,-24(%r1)
 503              	.LCFI12:
 504              		.cfi_def_cfa_offset 24
 505 0004 0080     		se_mflr %r0
 506              	.LBB74:
 507              	.LBB75:
 508              		.loc 2 100 0
 509 0006 2C07     		se_bmaski %r7,0
 510              	.LBE75:
 511              	.LBE74:
 512              		.loc 1 389 0
 513 0008 D701     		se_stw %r0,28(%r1)
GAS LISTING C:\Users\bayra\AppData\Local\Temp\ccS7zbex.s 			page 10


 514              		.cfi_offset 65, 4
 515              	.LBB77:
 516              	.LBB76:
 517              		.loc 2 100 0
 518 000a 9871     		se_stb %r7,8(%r1)
 519              		.loc 2 101 0
 520              	 # 101 "./components/spc58ecxx_osal_component_rla/cfg/osal_cfg.h" 1
 521 000c 7CDE42A6 		mfspr %r6, 286
 522              	 # 0 "" 2
 523              		.loc 2 102 0
 524 0010 4827     		se_li %r7,2
 525              		.loc 2 101 0
 526 0012 9861     		se_stb %r6,8(%r1)
 527              		.loc 2 102 0
 528 0014 8861     		se_lbz %r6,8(%r1)
 529 0016 2216     		se_cmpli %r6,2
 530 0018 7A110006 		e_bgt %cr0,.L24
 531 001c 8871     		se_lbz %r7,8(%r1)
 532              	.L24:
 533              	.LBE76:
 534              	.LBE77:
 535              		.loc 1 390 0
 536 001e 6C47     		se_slwi %r7, 4
 537 0020 70C0E000 		e_lis %r6,.LANCHOR2@ha
 538 0024 1CC60000 		e_la %r6,.LANCHOR2@l(%r6)
 539 0028 7CE63A14 		add %r7,%r6,%r7
 540 002c C177     		se_lwz %r7,4(%r7)
 541 002e 00B7     		se_mtctr %r7
 542 0030 0007     		se_bctrl
 543              	.LVL19:
 544              		.loc 1 391 0
 545 0032 C701     		se_lwz %r0,28(%r1)
 546 0034 0090     		se_mtlr %r0
 547              		.cfi_restore 65
 548              	.LBB78:
 549              	.LBB79:
 550              		.loc 1 205 0
 551 0036 70E0E000 		e_lis %r7,.LANCHOR0@ha
 552              	.LBE79:
 553              	.LBE78:
 554              		.loc 1 391 0
 555              	.LBB82:
 556              	.LBB80:
 557              		.loc 1 205 0
 558 003a 50C70000 		e_lwz %r6,.LANCHOR0@l(%r7)
 559              	.LBE80:
 560              	.LBE82:
 561              		.loc 1 391 0
 562 003e 2171     		se_addi %r1,24
 563              	.LCFI13:
 564              		.cfi_def_cfa_offset 0
 565              	.LBB83:
 566              	.LBB81:
 567              		.loc 1 205 0
 568 0040 70E0E00F 		e_lis %r7,0xf
 569 0044 70E8C240 		e_or2i %r7,16960
 570 0048 0573     		se_mullw %r3,%r7
GAS LISTING C:\Users\bayra\AppData\Local\Temp\ccS7zbex.s 			page 11


 571              	.LVL20:
 572              	.LBE81:
 573              	.LBE83:
 574              		.loc 1 391 0
 575 004a 7C633396 		divwu %r3,%r3,%r6
 576 004e 0004     		se_blr
 577              		.cfi_endproc
 578              	.LFE16:
 579              		.size	osalThreadGetMicroseconds, .-osalThreadGetMicroseconds
 580              		.section	.text.osalEnterCritical,"axv",@progbits
 581              		.align 1
 582              		.p2align 4,,15
 583              		.globl osalEnterCritical
 584              		.type	osalEnterCritical, @function
 585              	osalEnterCritical:
 586              	.LFB17:
 587              		.loc 1 399 0
 588              		.cfi_startproc
 589 0000 182106E8 		e_stwu %r1,-24(%r1)
 590              	.LCFI14:
 591              		.cfi_def_cfa_offset 24
 592 0004 0080     		se_mflr %r0
 593              	.LBB84:
 594              	.LBB85:
 595              		.loc 2 100 0
 596 0006 2C07     		se_bmaski %r7,0
 597              	.LBE85:
 598              	.LBE84:
 599              		.loc 1 399 0
 600 0008 D701     		se_stw %r0,28(%r1)
 601              		.cfi_offset 65, 4
 602              	.LBB87:
 603              	.LBB86:
 604              		.loc 2 100 0
 605 000a 9871     		se_stb %r7,8(%r1)
 606              		.loc 2 101 0
 607              	 # 101 "./components/spc58ecxx_osal_component_rla/cfg/osal_cfg.h" 1
 608 000c 7CDE42A6 		mfspr %r6, 286
 609              	 # 0 "" 2
 610              		.loc 2 102 0
 611 0010 4827     		se_li %r7,2
 612              		.loc 2 101 0
 613 0012 9861     		se_stb %r6,8(%r1)
 614              		.loc 2 102 0
 615 0014 8861     		se_lbz %r6,8(%r1)
 616 0016 2216     		se_cmpli %r6,2
 617 0018 7A110006 		e_bgt %cr0,.L27
 618 001c 8871     		se_lbz %r7,8(%r1)
 619              	.L27:
 620              	.LBE86:
 621              	.LBE87:
 622              		.loc 1 400 0
 623 001e 6C47     		se_slwi %r7, 4
 624 0020 70C0E000 		e_lis %r6,.LANCHOR2@ha
 625 0024 1CC60000 		e_la %r6,.LANCHOR2@l(%r6)
 626 0028 7CE63A14 		add %r7,%r6,%r7
 627 002c C277     		se_lwz %r7,8(%r7)
GAS LISTING C:\Users\bayra\AppData\Local\Temp\ccS7zbex.s 			page 12


 628 002e 00B7     		se_mtctr %r7
 629 0030 0007     		se_bctrl
 630              	.LVL21:
 631              		.loc 1 401 0
 632 0032 C701     		se_lwz %r0,28(%r1)
 633 0034 0090     		se_mtlr %r0
 634              		.cfi_restore 65
 635 0036 2171     		se_addi %r1,24
 636              	.LCFI15:
 637              		.cfi_def_cfa_offset 0
 638 0038 0004     		se_blr
 639              		.cfi_endproc
 640              	.LFE17:
 641              		.size	osalEnterCritical, .-osalEnterCritical
 642              		.section	.text.osalExitCritical,"axv",@progbits
 643              		.align 1
 644              		.p2align 4,,15
 645              		.globl osalExitCritical
 646              		.type	osalExitCritical, @function
 647              	osalExitCritical:
 648              	.LFB18:
 649              		.loc 1 408 0
 650              		.cfi_startproc
 651 0000 182106E8 		e_stwu %r1,-24(%r1)
 652              	.LCFI16:
 653              		.cfi_def_cfa_offset 24
 654 0004 0080     		se_mflr %r0
 655              	.LBB88:
 656              	.LBB89:
 657              		.loc 2 100 0
 658 0006 2C07     		se_bmaski %r7,0
 659              	.LBE89:
 660              	.LBE88:
 661              		.loc 1 408 0
 662 0008 D701     		se_stw %r0,28(%r1)
 663              		.cfi_offset 65, 4
 664              	.LBB91:
 665              	.LBB90:
 666              		.loc 2 100 0
 667 000a 9871     		se_stb %r7,8(%r1)
 668              		.loc 2 101 0
 669              	 # 101 "./components/spc58ecxx_osal_component_rla/cfg/osal_cfg.h" 1
 670 000c 7CDE42A6 		mfspr %r6, 286
 671              	 # 0 "" 2
 672              		.loc 2 102 0
 673 0010 4827     		se_li %r7,2
 674              		.loc 2 101 0
 675 0012 9861     		se_stb %r6,8(%r1)
 676              		.loc 2 102 0
 677 0014 8861     		se_lbz %r6,8(%r1)
 678 0016 2216     		se_cmpli %r6,2
 679 0018 7A110006 		e_bgt %cr0,.L30
 680 001c 8871     		se_lbz %r7,8(%r1)
 681              	.L30:
 682              	.LBE90:
 683              	.LBE91:
 684              		.loc 1 409 0
GAS LISTING C:\Users\bayra\AppData\Local\Temp\ccS7zbex.s 			page 13


 685 001e 6C47     		se_slwi %r7, 4
 686 0020 70C0E000 		e_lis %r6,.LANCHOR2@ha
 687 0024 1CC60000 		e_la %r6,.LANCHOR2@l(%r6)
 688 0028 7CE63A14 		add %r7,%r6,%r7
 689 002c C377     		se_lwz %r7,12(%r7)
 690 002e 00B7     		se_mtctr %r7
 691 0030 0007     		se_bctrl
 692              	.LVL22:
 693              		.loc 1 410 0
 694 0032 C701     		se_lwz %r0,28(%r1)
 695 0034 0090     		se_mtlr %r0
 696              		.cfi_restore 65
 697 0036 2171     		se_addi %r1,24
 698              	.LCFI17:
 699              		.cfi_def_cfa_offset 0
 700 0038 0004     		se_blr
 701              		.cfi_endproc
 702              	.LFE18:
 703              		.size	osalExitCritical, .-osalExitCritical
 704              		.section	.text.osalEnterCriticalFromISR,"axv",@progbits
 705              		.align 1
 706              		.p2align 4,,15
 707              		.globl osalEnterCriticalFromISR
 708              		.type	osalEnterCriticalFromISR, @function
 709              	osalEnterCriticalFromISR:
 710              	.LFB19:
 711              		.loc 1 417 0
 712              		.cfi_startproc
 713 0000 0004     		se_blr
 714              		.cfi_endproc
 715              	.LFE19:
 716              		.size	osalEnterCriticalFromISR, .-osalEnterCriticalFromISR
 717              		.section	.text.osalExitCriticalFromISR,"axv",@progbits
 718              		.align 1
 719              		.p2align 4,,15
 720              		.globl osalExitCriticalFromISR
 721              		.type	osalExitCriticalFromISR, @function
 722              	osalExitCriticalFromISR:
 723              	.LFB20:
 724              		.loc 1 429 0
 725              		.cfi_startproc
 726 0000 0004     		se_blr
 727              		.cfi_endproc
 728              	.LFE20:
 729              		.size	osalExitCriticalFromISR, .-osalExitCriticalFromISR
 730              		.section	.text.osalInit,"axv",@progbits
 731              		.align 1
 732              		.p2align 4,,15
 733              		.globl osalInit
 734              		.type	osalInit, @function
 735              	osalInit:
 736              	.LFB21:
 737              		.loc 1 442 0
 738              		.cfi_startproc
 739              		.loc 1 442 0
 740 0000 182106F0 		e_stwu %r1,-16(%r1)
 741              	.LCFI18:
GAS LISTING C:\Users\bayra\AppData\Local\Temp\ccS7zbex.s 			page 14


 742              		.cfi_def_cfa_offset 16
 743 0004 0080     		se_mflr %r0
 744 0006 D3F1     		se_stw %r31,12(%r1)
 745 0008 D501     		se_stw %r0,20(%r1)
 746              		.cfi_offset 65, 4
 747              		.cfi_offset 31, -4
 748              		.loc 1 452 0
 749 000a 4804     		se_li %r4,0
 750 000c 73E0E000 		e_lis %r31,.LANCHOR2@ha
 751 0010 4B05     		se_li %r5,48
 752 0012 1FFF0000 		e_la %r31,.LANCHOR2@l(%r31)
 753 0016 01F3     		se_mr %r3,%r31
 754 0018 78000001 		e_bl memset
 755              	.LVL23:
 756              		.loc 1 582 0
 757 001c C501     		se_lwz %r0,20(%r1)
 758 001e 0090     		se_mtlr %r0
 759              		.cfi_restore 65
 760              		.loc 1 528 0
 761 0020 70E0E000 		e_lis %r7,vTaskDelay@ha
 762 0024 1CE70000 		e_la %r7,vTaskDelay@l(%r7)
 763 0028 D87F     		se_stw %r7,32(%r31)
 764              		.loc 1 529 0
 765 002a 70E0E000 		e_lis %r7,xTaskGetTickCount@ha
 766 002e 1CE70000 		e_la %r7,xTaskGetTickCount@l(%r7)
 767 0032 D97F     		se_stw %r7,36(%r31)
 768              		.loc 1 531 0
 769 0034 70E0E000 		e_lis %r7,vTaskEnterCritical@ha
 770 0038 1CE70000 		e_la %r7,vTaskEnterCritical@l(%r7)
 771 003c DA7F     		se_stw %r7,40(%r31)
 772              		.loc 1 532 0
 773 003e 70E0E000 		e_lis %r7,vTaskExitCritical@ha
 774 0042 1CE70000 		e_la %r7,vTaskExitCritical@l(%r7)
 775 0046 DB7F     		se_stw %r7,44(%r31)
 776              		.loc 1 582 0
 777 0048 C3F1     		se_lwz %r31,12(%r1)
 778 004a 20F1     		se_addi %r1,16
 779              	.LCFI19:
 780              		.cfi_restore 31
 781              		.cfi_def_cfa_offset 0
 782 004c 0004     		se_blr
 783              		.cfi_endproc
 784              	.LFE21:
 785              		.size	osalInit, .-osalInit
 786              		.section	.bss.osalsystime,"aw",@nobits
 787              		.align 2
 788              		.set	.LANCHOR1,. + 0
 789              		.type	osalsystime, @object
 790              		.size	osalsystime, 4
 791              	osalsystime:
 792 0000 00000000 		.zero	4
 793              		.section	.bss.osal_ticks_per_sec,"aw",@nobits
 794              		.align 2
 795              		.set	.LANCHOR0,. + 0
 796              		.type	osal_ticks_per_sec, @object
 797              		.size	osal_ticks_per_sec, 4
 798              	osal_ticks_per_sec:
GAS LISTING C:\Users\bayra\AppData\Local\Temp\ccS7zbex.s 			page 15


 799 0000 00000000 		.zero	4
 800              		.section	.bss.osalTimeOps,"aw",@nobits
 801              		.align 2
 802              		.set	.LANCHOR2,. + 0
 803              		.type	osalTimeOps, @object
 804              		.size	osalTimeOps, 48
 805              	osalTimeOps:
 806 0000 00000000 		.zero	48
 806      00000000 
 806      00000000 
 806      00000000 
 806      00000000 
 807              		.section	".text","axv"
 808              	.Letext0:
 809              		.file 3 "c:\\spc5studio-6.0\\eclipse\\plugins\\com.st.tools.spc5.tools.gnu.gcc.ppcvle.win32_4.9.4.
 810              		.file 4 "c:\\spc5studio-6.0\\eclipse\\plugins\\com.st.tools.spc5.tools.gnu.gcc.ppcvle.win32_4.9.4.
 811              		.file 5 "./components/spc58ecxx_osal_component_rla/lib/include/osal.h"
 812              		.file 6 "./components/spc58ecxx_osal_component_rla/lib/include/systimer.h"