GAS LISTING C:\Users\bayra\AppData\Local\Temp\cc0Ytu1c.s 			page 1


   1              		.file	"port.c"
   2              		.section	".text","axv"
   3              	.Ltext0:
   4              		.cfi_sections	.debug_frame
   5              		.section	.text.pxPortInitialiseStack,"axv",@progbits
   6              		.align 1
   7              		.p2align 4,,15
   8              		.globl pxPortInitialiseStack
   9              		.type	pxPortInitialiseStack, @function
  10              	pxPortInitialiseStack:
  11              	.LFB3:
  12              		.file 1 "./components/spc5_freertos_component_rla/lib/portable/port.c"
  13              		.loc 1 124 0
  14              		.cfi_startproc
  15 0000 182106E8 		e_stwu %r1,-24(%r1)
  16              	.LCFI0:
  17              		.cfi_def_cfa_offset 24
  18 0004 D231     		se_stw %r3,8(%r1)
  19 0006 D341     		se_stw %r4,12(%r1)
  20 0008 D451     		se_stw %r5,16(%r1)
  21              		.loc 1 137 0
  22              	 # 137 "./components/spc5_freertos_component_rla/lib/portable/port.c" 1
  23 000a 7CC000A6 		mfmsr	%r6	
  24              	
  25              	 # 0 "" 2
  26              		.loc 1 138 0
  27              	 # 138 "./components/spc5_freertos_component_rla/lib/portable/port.c" 1
  28 000e 18C7D180 		e_ori	%r7, %r6, 32768	
  29              	
  30              	 # 0 "" 2
  31              		.loc 1 142 0
  32 0012 C251     		se_lwz %r5,8(%r1)
  33 0014 18A584E0 		e_addi %r5,%r5,-32
  34 0018 D251     		se_stw %r5,8(%r1)
  35              		.loc 1 143 0
  36 001a C251     		se_lwz %r5,8(%r1)
  37 001c 18A584FC 		e_addi %r5,%r5,-4
  38 0020 D251     		se_stw %r5,8(%r1)
  39 0022 C251     		se_lwz %r5,8(%r1)
  40 0024 4804     		se_li %r4,0
  41 0026 D045     		se_stw %r4,0(%r5)
  42              		.loc 1 144 0
  43 0028 C251     		se_lwz %r5,8(%r1)
  44 002a 18A584FC 		e_addi %r5,%r5,-4
  45 002e D251     		se_stw %r5,8(%r1)
  46 0030 C251     		se_lwz %r5,8(%r1)
  47 0032 4804     		se_li %r4,0
  48 0034 D045     		se_stw %r4,0(%r5)
  49              		.loc 1 145 0
  50 0036 C251     		se_lwz %r5,8(%r1)
  51 0038 18A584FC 		e_addi %r5,%r5,-4
  52 003c D251     		se_stw %r5,8(%r1)
  53 003e C341     		se_lwz %r4,12(%r1)
  54 0040 C251     		se_lwz %r5,8(%r1)
  55 0042 D045     		se_stw %r4,0(%r5)
  56              		.loc 1 146 0
  57 0044 C251     		se_lwz %r5,8(%r1)
GAS LISTING C:\Users\bayra\AppData\Local\Temp\cc0Ytu1c.s 			page 2


  58 0046 18A584FC 		e_addi %r5,%r5,-4
  59 004a D251     		se_stw %r5,8(%r1)
  60 004c C251     		se_lwz %r5,8(%r1)
  61 004e 4804     		se_li %r4,0
  62 0050 D045     		se_stw %r4,0(%r5)
  63              		.loc 1 147 0
  64 0052 C251     		se_lwz %r5,8(%r1)
  65 0054 18A584FC 		e_addi %r5,%r5,-4
  66 0058 D251     		se_stw %r5,8(%r1)
  67 005a C251     		se_lwz %r5,8(%r1)
  68 005c 4B14     		se_li %r4,49
  69 005e D045     		se_stw %r4,0(%r5)
  70              		.loc 1 148 0
  71 0060 C251     		se_lwz %r5,8(%r1)
  72 0062 18A584FC 		e_addi %r5,%r5,-4
  73 0066 D251     		se_stw %r5,8(%r1)
  74 0068 C251     		se_lwz %r5,8(%r1)
  75 006a 4B04     		se_li %r4,48
  76 006c D045     		se_stw %r4,0(%r5)
  77              		.loc 1 149 0
  78 006e C251     		se_lwz %r5,8(%r1)
  79 0070 18A584FC 		e_addi %r5,%r5,-4
  80 0074 D251     		se_stw %r5,8(%r1)
  81 0076 C251     		se_lwz %r5,8(%r1)
  82 0078 4A94     		se_li %r4,41
  83 007a D045     		se_stw %r4,0(%r5)
  84              		.loc 1 150 0
  85 007c C251     		se_lwz %r5,8(%r1)
  86 007e 18A584FC 		e_addi %r5,%r5,-4
  87 0082 D251     		se_stw %r5,8(%r1)
  88 0084 C251     		se_lwz %r5,8(%r1)
  89 0086 4A84     		se_li %r4,40
  90 0088 D045     		se_stw %r4,0(%r5)
  91              		.loc 1 151 0
  92 008a C251     		se_lwz %r5,8(%r1)
  93 008c 18A584FC 		e_addi %r5,%r5,-4
  94 0090 D251     		se_stw %r5,8(%r1)
  95 0092 C251     		se_lwz %r5,8(%r1)
  96 0094 4A74     		se_li %r4,39
  97 0096 D045     		se_stw %r4,0(%r5)
  98              		.loc 1 152 0
  99 0098 C251     		se_lwz %r5,8(%r1)
 100 009a 18A584FC 		e_addi %r5,%r5,-4
 101 009e D251     		se_stw %r5,8(%r1)
 102 00a0 C251     		se_lwz %r5,8(%r1)
 103 00a2 4A64     		se_li %r4,38
 104 00a4 D045     		se_stw %r4,0(%r5)
 105              		.loc 1 153 0
 106 00a6 C251     		se_lwz %r5,8(%r1)
 107 00a8 18A584FC 		e_addi %r5,%r5,-4
 108 00ac D251     		se_stw %r5,8(%r1)
 109 00ae C251     		se_lwz %r5,8(%r1)
 110 00b0 4A54     		se_li %r4,37
 111 00b2 D045     		se_stw %r4,0(%r5)
 112              		.loc 1 154 0
 113 00b4 C251     		se_lwz %r5,8(%r1)
 114 00b6 18A584FC 		e_addi %r5,%r5,-4
GAS LISTING C:\Users\bayra\AppData\Local\Temp\cc0Ytu1c.s 			page 3


 115 00ba D251     		se_stw %r5,8(%r1)
 116 00bc C251     		se_lwz %r5,8(%r1)
 117 00be 4A44     		se_li %r4,36
 118 00c0 D045     		se_stw %r4,0(%r5)
 119              		.loc 1 155 0
 120 00c2 C251     		se_lwz %r5,8(%r1)
 121 00c4 18A584FC 		e_addi %r5,%r5,-4
 122 00c8 D251     		se_stw %r5,8(%r1)
 123 00ca C251     		se_lwz %r5,8(%r1)
 124 00cc 4A34     		se_li %r4,35
 125 00ce D045     		se_stw %r4,0(%r5)
 126              		.loc 1 156 0
 127 00d0 C251     		se_lwz %r5,8(%r1)
 128 00d2 18A584FC 		e_addi %r5,%r5,-4
 129 00d6 D251     		se_stw %r5,8(%r1)
 130 00d8 C251     		se_lwz %r5,8(%r1)
 131 00da 4A24     		se_li %r4,34
 132 00dc D045     		se_stw %r4,0(%r5)
 133              		.loc 1 157 0
 134 00de C251     		se_lwz %r5,8(%r1)
 135 00e0 18A584FC 		e_addi %r5,%r5,-4
 136 00e4 D251     		se_stw %r5,8(%r1)
 137 00e6 C251     		se_lwz %r5,8(%r1)
 138 00e8 4A14     		se_li %r4,33
 139 00ea D045     		se_stw %r4,0(%r5)
 140              		.loc 1 158 0
 141 00ec C251     		se_lwz %r5,8(%r1)
 142 00ee 18A584FC 		e_addi %r5,%r5,-4
 143 00f2 D251     		se_stw %r5,8(%r1)
 144 00f4 C251     		se_lwz %r5,8(%r1)
 145 00f6 4A04     		se_li %r4,32
 146 00f8 D045     		se_stw %r4,0(%r5)
 147              		.loc 1 159 0
 148 00fa C251     		se_lwz %r5,8(%r1)
 149 00fc 18A584FC 		e_addi %r5,%r5,-4
 150 0100 D251     		se_stw %r5,8(%r1)
 151 0102 C251     		se_lwz %r5,8(%r1)
 152 0104 4994     		se_li %r4,25
 153 0106 D045     		se_stw %r4,0(%r5)
 154              		.loc 1 160 0
 155 0108 C251     		se_lwz %r5,8(%r1)
 156 010a 18A584FC 		e_addi %r5,%r5,-4
 157 010e D251     		se_stw %r5,8(%r1)
 158 0110 C251     		se_lwz %r5,8(%r1)
 159 0112 4984     		se_li %r4,24
 160 0114 D045     		se_stw %r4,0(%r5)
 161              		.loc 1 161 0
 162 0116 C251     		se_lwz %r5,8(%r1)
 163 0118 18A584FC 		e_addi %r5,%r5,-4
 164 011c D251     		se_stw %r5,8(%r1)
 165 011e C251     		se_lwz %r5,8(%r1)
 166 0120 4974     		se_li %r4,23
 167 0122 D045     		se_stw %r4,0(%r5)
 168              		.loc 1 162 0
 169 0124 C251     		se_lwz %r5,8(%r1)
 170 0126 18A584FC 		e_addi %r5,%r5,-4
 171 012a D251     		se_stw %r5,8(%r1)
GAS LISTING C:\Users\bayra\AppData\Local\Temp\cc0Ytu1c.s 			page 4


 172 012c C251     		se_lwz %r5,8(%r1)
 173 012e 4964     		se_li %r4,22
 174 0130 D045     		se_stw %r4,0(%r5)
 175              		.loc 1 163 0
 176 0132 C251     		se_lwz %r5,8(%r1)
 177 0134 18A584FC 		e_addi %r5,%r5,-4
 178 0138 D251     		se_stw %r5,8(%r1)
 179 013a C251     		se_lwz %r5,8(%r1)
 180 013c 4954     		se_li %r4,21
 181 013e D045     		se_stw %r4,0(%r5)
 182              		.loc 1 164 0
 183 0140 C251     		se_lwz %r5,8(%r1)
 184 0142 18A584FC 		e_addi %r5,%r5,-4
 185 0146 D251     		se_stw %r5,8(%r1)
 186 0148 C251     		se_lwz %r5,8(%r1)
 187 014a 4944     		se_li %r4,20
 188 014c D045     		se_stw %r4,0(%r5)
 189              		.loc 1 168 0
 190 014e C251     		se_lwz %r5,8(%r1)
 191 0150 18A584FC 		e_addi %r5,%r5,-4
 192 0154 D251     		se_stw %r5,8(%r1)
 193 0156 70A0E000 		e_lis %r5,__sdata2_start__@ha
 194 015a 1C850000 		e_la %r4,__sdata2_start__@l(%r5)
 195 015e C251     		se_lwz %r5,8(%r1)
 196 0160 D045     		se_stw %r4,0(%r5)
 197              		.loc 1 170 0
 198 0162 C251     		se_lwz %r5,8(%r1)
 199 0164 18A584FC 		e_addi %r5,%r5,-4
 200 0168 D251     		se_stw %r5,8(%r1)
 201 016a C251     		se_lwz %r5,8(%r1)
 202 016c 4924     		se_li %r4,18
 203 016e D045     		se_stw %r4,0(%r5)
 204              		.loc 1 171 0
 205 0170 C251     		se_lwz %r5,8(%r1)
 206 0172 18A584FC 		e_addi %r5,%r5,-4
 207 0176 D251     		se_stw %r5,8(%r1)
 208 0178 C251     		se_lwz %r5,8(%r1)
 209 017a 4914     		se_li %r4,17
 210 017c D045     		se_stw %r4,0(%r5)
 211              		.loc 1 172 0
 212 017e C251     		se_lwz %r5,8(%r1)
 213 0180 18A584FC 		e_addi %r5,%r5,-4
 214 0184 D251     		se_stw %r5,8(%r1)
 215 0186 C251     		se_lwz %r5,8(%r1)
 216 0188 4904     		se_li %r4,16
 217 018a D045     		se_stw %r4,0(%r5)
 218              		.loc 1 173 0
 219 018c C251     		se_lwz %r5,8(%r1)
 220 018e 18A584FC 		e_addi %r5,%r5,-4
 221 0192 D251     		se_stw %r5,8(%r1)
 222 0194 C251     		se_lwz %r5,8(%r1)
 223 0196 4894     		se_li %r4,9
 224 0198 D045     		se_stw %r4,0(%r5)
 225              		.loc 1 174 0
 226 019a C251     		se_lwz %r5,8(%r1)
 227 019c 18A584FC 		e_addi %r5,%r5,-4
 228 01a0 D251     		se_stw %r5,8(%r1)
GAS LISTING C:\Users\bayra\AppData\Local\Temp\cc0Ytu1c.s 			page 5


 229 01a2 C251     		se_lwz %r5,8(%r1)
 230 01a4 4884     		se_li %r4,8
 231 01a6 D045     		se_stw %r4,0(%r5)
 232              		.loc 1 175 0
 233 01a8 C251     		se_lwz %r5,8(%r1)
 234 01aa 18A584FC 		e_addi %r5,%r5,-4
 235 01ae D251     		se_stw %r5,8(%r1)
 236 01b0 C251     		se_lwz %r5,8(%r1)
 237 01b2 4874     		se_li %r4,7
 238 01b4 D045     		se_stw %r4,0(%r5)
 239              		.loc 1 176 0
 240 01b6 C251     		se_lwz %r5,8(%r1)
 241 01b8 18A584FC 		e_addi %r5,%r5,-4
 242 01bc D251     		se_stw %r5,8(%r1)
 243 01be C251     		se_lwz %r5,8(%r1)
 244 01c0 4864     		se_li %r4,6
 245 01c2 D045     		se_stw %r4,0(%r5)
 246              		.loc 1 177 0
 247 01c4 C251     		se_lwz %r5,8(%r1)
 248 01c6 18A584FC 		e_addi %r5,%r5,-4
 249 01ca D251     		se_stw %r5,8(%r1)
 250 01cc C251     		se_lwz %r5,8(%r1)
 251 01ce 4854     		se_li %r4,5
 252 01d0 D045     		se_stw %r4,0(%r5)
 253              		.loc 1 178 0
 254 01d2 C251     		se_lwz %r5,8(%r1)
 255 01d4 18A584FC 		e_addi %r5,%r5,-4
 256 01d8 D251     		se_stw %r5,8(%r1)
 257 01da C251     		se_lwz %r5,8(%r1)
 258 01dc 4844     		se_li %r4,4
 259 01de D045     		se_stw %r4,0(%r5)
 260              		.loc 1 179 0
 261 01e0 C251     		se_lwz %r5,8(%r1)
 262 01e2 18A584FC 		e_addi %r5,%r5,-4
 263 01e6 D251     		se_stw %r5,8(%r1)
 264 01e8 C441     		se_lwz %r4,16(%r1)
 265 01ea C251     		se_lwz %r5,8(%r1)
 266 01ec D045     		se_stw %r4,0(%r5)
 267              		.loc 1 183 0
 268 01ee C251     		se_lwz %r5,8(%r1)
 269 01f0 18A584FC 		e_addi %r5,%r5,-4
 270 01f4 D251     		se_stw %r5,8(%r1)
 271 01f6 70A0E000 		e_lis %r5,__sdata2_start__@ha
 272 01fa 1C850000 		e_la %r4,__sdata2_start__@l(%r5)
 273 01fe C251     		se_lwz %r5,8(%r1)
 274 0200 D045     		se_stw %r4,0(%r5)
 275              		.loc 1 185 0
 276 0202 C251     		se_lwz %r5,8(%r1)
 277 0204 18A584FC 		e_addi %r5,%r5,-4
 278 0208 D251     		se_stw %r5,8(%r1)
 279 020a C251     		se_lwz %r5,8(%r1)
 280 020c 4814     		se_li %r4,1
 281 020e D045     		se_stw %r4,0(%r5)
 282              		.loc 1 186 0
 283 0210 C251     		se_lwz %r5,8(%r1)
 284 0212 18A584FC 		e_addi %r5,%r5,-4
 285 0216 D251     		se_stw %r5,8(%r1)
GAS LISTING C:\Users\bayra\AppData\Local\Temp\cc0Ytu1c.s 			page 6


 286 0218 C251     		se_lwz %r5,8(%r1)
 287 021a 4804     		se_li %r4,0
 288 021c D045     		se_stw %r4,0(%r5)
 289              		.loc 1 187 0
 290 021e C251     		se_lwz %r5,8(%r1)
 291 0220 18A584FC 		e_addi %r5,%r5,-4
 292 0224 D251     		se_stw %r5,8(%r1)
 293 0226 0175     		se_mr %r5,%r7
 294 0228 C271     		se_lwz %r7,8(%r1)
 295 022a D057     		se_stw %r5,0(%r7)
 296              		.loc 1 188 0
 297 022c C271     		se_lwz %r7,8(%r1)
 298 022e 18E784FC 		e_addi %r7,%r7,-4
 299 0232 D271     		se_stw %r7,8(%r1)
 300 0234 C351     		se_lwz %r5,12(%r1)
 301 0236 C271     		se_lwz %r7,8(%r1)
 302 0238 D057     		se_stw %r5,0(%r7)
 303              		.loc 1 189 0
 304 023a C271     		se_lwz %r7,8(%r1)
 305 023c 18E784FC 		e_addi %r7,%r7,-4
 306 0240 D271     		se_stw %r7,8(%r1)
 307 0242 C271     		se_lwz %r7,8(%r1)
 308 0244 D067     		se_stw %r6,0(%r7)
 309              		.loc 1 191 0
 310 0246 C271     		se_lwz %r7,8(%r1)
 311 0248 18E784E0 		e_addi %r7,%r7,-32
 312 024c D271     		se_stw %r7,8(%r1)
 313              		.loc 1 192 0
 314 024e C271     		se_lwz %r7,8(%r1)
 315 0250 70D7E2DA 		e_lis %r6,0xbada
 316 0254 70D7C2DA 		e_or2i %r6,47834
 317 0258 D067     		se_stw %r6,0(%r7)
 318              		.loc 1 194 0
 319 025a C271     		se_lwz %r7,8(%r1)
 320              		.loc 1 195 0
 321 025c 0173     		se_mr %r3,%r7
 322 025e 2171     		se_addi %r1,24
 323              	.LCFI1:
 324              		.cfi_def_cfa_offset 0
 325 0260 0004     		se_blr
 326              		.cfi_endproc
 327              	.LFE3:
 328              		.size	pxPortInitialiseStack, .-pxPortInitialiseStack
 329              		.section	.text.xPortStartScheduler,"axv",@progbits
 330              		.align 1
 331              		.p2align 4,,15
 332              		.globl xPortStartScheduler
 333              		.type	xPortStartScheduler, @function
 334              	xPortStartScheduler:
 335              	.LFB4:
 336              		.loc 1 199 0
 337              		.cfi_startproc
 338 0000 182106F8 		e_stwu %r1,-8(%r1)
 339              	.LCFI2:
 340              		.cfi_def_cfa_offset 8
 341 0004 0080     		se_mflr %r0
 342 0006 D301     		se_stw %r0,12(%r1)
GAS LISTING C:\Users\bayra\AppData\Local\Temp\cc0Ytu1c.s 			page 7


 343              		.cfi_offset 65, 4
 344              		.loc 1 200 0
 345 0008 78000001 		e_bl prvPortTimerSetup
 346              		.loc 1 202 0
 347 000c 78000001 		e_bl vPortStartFirstTask
 348              		.loc 1 205 0
 349 0010 4807     		se_li %r7,0
 350              		.loc 1 206 0
 351 0012 0173     		se_mr %r3,%r7
 352 0014 C301     		se_lwz %r0,12(%r1)
 353 0016 0090     		se_mtlr %r0
 354 0018 2071     		se_addi %r1,8
 355              	.LCFI3:
 356              		.cfi_def_cfa_offset 0
 357 001a 0004     		se_blr
 358              		.cfi_endproc
 359              	.LFE4:
 360              		.size	xPortStartScheduler, .-xPortStartScheduler
 361              		.section	.text.vPortEndScheduler,"axv",@progbits
 362              		.align 1
 363              		.p2align 4,,15
 364              		.globl vPortEndScheduler
 365              		.type	vPortEndScheduler, @function
 366              	vPortEndScheduler:
 367              	.LFB5:
 368              		.loc 1 210 0
 369              		.cfi_startproc
 370              	.L6:
 371              		.loc 1 212 0 discriminator 1
 372 0000 78000000 		e_b .L6
 373              		.cfi_endproc
 374              	.LFE5:
 375              		.size	vPortEndScheduler, .-vPortEndScheduler
 376              		.section	.text.prvPortTimerSetup,"axv",@progbits
 377              		.align 1
 378              		.p2align 4,,15
 379              		.globl prvPortTimerSetup
 380              		.type	prvPortTimerSetup, @function
 381              	prvPortTimerSetup:
 382              	.LFB6:
 383              		.loc 1 217 0
 384              		.cfi_startproc
 385 0000 182106F8 		e_stwu %r1,-8(%r1)
 386              	.LCFI4:
 387              		.cfi_def_cfa_offset 8
 388 0004 0080     		se_mflr %r0
 389 0006 D301     		se_stw %r0,12(%r1)
 390              		.cfi_offset 65, 4
 391              		.loc 1 219 0
 392 0008 706003E8 		e_li %r3,1000
 393 000c 78000001 		e_bl osalSysTimeSetup
 394              		.loc 1 221 0
 395 0010 C301     		se_lwz %r0,12(%r1)
 396 0012 0090     		se_mtlr %r0
 397 0014 2071     		se_addi %r1,8
 398              	.LCFI5:
 399              		.cfi_def_cfa_offset 0
GAS LISTING C:\Users\bayra\AppData\Local\Temp\cc0Ytu1c.s 			page 8


 400 0016 0004     		se_blr
 401              		.cfi_endproc
 402              	.LFE6:
 403              		.size	prvPortTimerSetup, .-prvPortTimerSetup
 404              		.section	.text.vPortTimerReset,"axv",@progbits
 405              		.align 1
 406              		.p2align 4,,15
 407              		.globl vPortTimerReset
 408              		.type	vPortTimerReset, @function
 409              	vPortTimerReset:
 410              	.LFB7:
 411              		.loc 1 225 0
 412              		.cfi_startproc
 413 0000 182106F8 		e_stwu %r1,-8(%r1)
 414              	.LCFI6:
 415              		.cfi_def_cfa_offset 8
 416 0004 0080     		se_mflr %r0
 417 0006 D301     		se_stw %r0,12(%r1)
 418              		.cfi_offset 65, 4
 419              		.loc 1 227 0
 420 0008 78000001 		e_bl osalSysTimeReset
 421              		.loc 1 229 0
 422 000c C301     		se_lwz %r0,12(%r1)
 423 000e 0090     		se_mtlr %r0
 424 0010 2071     		se_addi %r1,8
 425              	.LCFI7:
 426              		.cfi_def_cfa_offset 0
 427 0012 0004     		se_blr
 428              		.cfi_endproc
 429              	.LFE7:
 430              		.size	vPortTimerReset, .-vPortTimerReset
 431              		.section	.text.vector226,"axv",@progbits
 432              		.align 1
 433              		.p2align 4,,15
 434              		.globl vector226
 435              		.type	vector226, @function
 436              	vector226:
 437              	.LFB8:
 438              		.loc 1 233 0
 439              		.cfi_startproc
 440 0000 182106F8 		e_stwu %r1,-8(%r1)
 441              	.LCFI8:
 442              		.cfi_def_cfa_offset 8
 443 0004 0080     		se_mflr %r0
 444 0006 D301     		se_stw %r0,12(%r1)
 445              		.cfi_offset 65, 4
 446              		.loc 1 234 0
 447 0008 78000001 		e_bl xTaskIncrementTick
 448              		.loc 1 239 0
 449 000c 78000001 		e_bl vTaskSwitchContext
 450              		.loc 1 241 0
 451 0010 78000001 		e_bl vPortTimerReset
 452              		.loc 1 242 0
 453 0014 C301     		se_lwz %r0,12(%r1)
 454 0016 0090     		se_mtlr %r0
 455 0018 2071     		se_addi %r1,8
 456              	.LCFI9:
GAS LISTING C:\Users\bayra\AppData\Local\Temp\cc0Ytu1c.s 			page 9


 457              		.cfi_def_cfa_offset 0
 458 001a 0004     		se_blr
 459              		.cfi_endproc
 460              	.LFE8:
 461              		.size	vector226, .-vector226
 462              		.section	".text","axv"
 463              	.Letext0:
 464              		.file 2 "./components/spc5_freertos_component_rla/lib/include/projdefs.h"
 465              		.file 3 "./components/spc5_freertos_component_rla/lib/portable/portmacro.h"