GAS LISTING C:\Users\bayra\AppData\Local\Temp\ccOqRaY7.s 			page 1


   1              		.file	"queue.c"
   2              		.section	".text","axv"
   3              	.Ltext0:
   4              		.cfi_sections	.debug_frame
   5              		.section	.text.xQueueGenericReset,"axv",@progbits
   6              		.align 1
   7              		.p2align 4,,15
   8              		.globl xQueueGenericReset
   9              		.type	xQueueGenericReset, @function
  10              	xQueueGenericReset:
  11              	.LFB0:
  12              		.file 1 "./components/spc5_freertos_component_rla/lib/src/queue.c"
  13              		.loc 1 256 0
  14              		.cfi_startproc
  15 0000 182106E0 		e_stwu %r1,-32(%r1)
  16              	.LCFI0:
  17              		.cfi_def_cfa_offset 32
  18 0004 0080     		se_mflr %r0
  19 0006 D901     		se_stw %r0,36(%r1)
  20              		.cfi_offset 65, 4
  21 0008 D631     		se_stw %r3,24(%r1)
  22 000a D741     		se_stw %r4,28(%r1)
  23              		.loc 1 257 0
  24 000c C671     		se_lwz %r7,24(%r1)
  25 000e D271     		se_stw %r7,8(%r1)
  26              		.loc 1 261 0
  27 0010 78000001 		e_bl vTaskEnterCritical
  28              		.loc 1 263 0
  29 0014 C271     		se_lwz %r7,8(%r1)
  30 0016 C067     		se_lwz %r6,0(%r7)
  31 0018 C271     		se_lwz %r7,8(%r1)
  32 001a CF57     		se_lwz %r5,60(%r7)
  33 001c C271     		se_lwz %r7,8(%r1)
  34 001e 50E70040 		e_lwz %r7,64(%r7)
  35 0022 0557     		se_mullw %r7,%r5
  36 0024 0476     		se_add %r6,%r7
  37 0026 C271     		se_lwz %r7,8(%r1)
  38 0028 D267     		se_stw %r6,8(%r7)
  39              		.loc 1 264 0
  40 002a C271     		se_lwz %r7,8(%r1)
  41 002c 4806     		se_li %r6,0
  42 002e DE67     		se_stw %r6,56(%r7)
  43              		.loc 1 265 0
  44 0030 C271     		se_lwz %r7,8(%r1)
  45 0032 C067     		se_lwz %r6,0(%r7)
  46 0034 C271     		se_lwz %r7,8(%r1)
  47 0036 D167     		se_stw %r6,4(%r7)
  48              		.loc 1 266 0
  49 0038 C271     		se_lwz %r7,8(%r1)
  50 003a C067     		se_lwz %r6,0(%r7)
  51 003c C271     		se_lwz %r7,8(%r1)
  52 003e CF77     		se_lwz %r7,60(%r7)
  53 0040 18A784FF 		e_addi %r5,%r7,-1
  54 0044 C271     		se_lwz %r7,8(%r1)
  55 0046 50E70040 		e_lwz %r7,64(%r7)
  56 004a 0557     		se_mullw %r7,%r5
  57 004c 0476     		se_add %r6,%r7
GAS LISTING C:\Users\bayra\AppData\Local\Temp\ccOqRaY7.s 			page 2


  58 004e C271     		se_lwz %r7,8(%r1)
  59 0050 D367     		se_stw %r6,12(%r7)
  60              		.loc 1 267 0
  61 0052 C271     		se_lwz %r7,8(%r1)
  62 0054 2C06     		se_bmaski %r6,0
  63 0056 34C70044 		e_stb %r6,68(%r7)
  64              		.loc 1 268 0
  65 005a C271     		se_lwz %r7,8(%r1)
  66 005c 2C06     		se_bmaski %r6,0
  67 005e 34C70045 		e_stb %r6,69(%r7)
  68              		.loc 1 270 0
  69 0062 C771     		se_lwz %r7,28(%r1)
  70 0064 2A07     		se_cmpi %r7,0
  71 0066 7F800020 		e_mcrf %cr7,%cr0
  72 006a 7CE00026 		mfcr %r7
  73 006e 74E7E007 		e_rlwinm %r7,%r7,28,0xf0000000
  74 0072 7CE80120 		mtcrf 128,%r7
  75 0076 7A020046 		e_bne %cr0,.L2
  76              		.loc 1 277 0
  77 007a C271     		se_lwz %r7,8(%r1)
  78 007c C477     		se_lwz %r7,16(%r7)
  79 007e 2A07     		se_cmpi %r7,0
  80 0080 7F800020 		e_mcrf %cr7,%cr0
  81 0084 7CE00026 		mfcr %r7
  82 0088 74E7E007 		e_rlwinm %r7,%r7,28,0xf0000000
  83 008c 7CE80120 		mtcrf 128,%r7
  84 0090 7A120042 		e_beq %cr0,.L3
  85              		.loc 1 279 0
  86 0094 C271     		se_lwz %r7,8(%r1)
  87 0096 20F7     		se_addi %r7,16
  88 0098 0173     		se_mr %r3,%r7
  89 009a 78000001 		e_bl xTaskRemoveFromEventList
  90 009e 0137     		se_mr %r7,%r3
  91 00a0 2A07     		se_cmpi %r7,0
  92 00a2 7F800020 		e_mcrf %cr7,%cr0
  93 00a6 7CE00026 		mfcr %r7
  94 00aa 74E7E007 		e_rlwinm %r7,%r7,28,0xf0000000
  95 00ae 7CE80120 		mtcrf 128,%r7
  96 00b2 7A120020 		e_beq %cr0,.L3
  97              		.loc 1 281 0
  98              	 # 281 "./components/spc5_freertos_component_rla/lib/src/queue.c" 1
  99 00b6 0002     		se_sc
 100              	 # 0 "" 2
 101 00b8 7800001A 		e_b .L3
 102              	.L2:
 103              		.loc 1 296 0
 104 00bc C271     		se_lwz %r7,8(%r1)
 105 00be 20F7     		se_addi %r7,16
 106 00c0 0173     		se_mr %r3,%r7
 107 00c2 78000001 		e_bl vListInitialise
 108              		.loc 1 297 0
 109 00c6 C271     		se_lwz %r7,8(%r1)
 110 00c8 18E78024 		e_addi %r7,%r7,36
 111 00cc 0173     		se_mr %r3,%r7
 112 00ce 78000001 		e_bl vListInitialise
 113              	.L3:
 114              		.loc 1 300 0
GAS LISTING C:\Users\bayra\AppData\Local\Temp\ccOqRaY7.s 			page 3


 115 00d2 78000001 		e_bl vTaskExitCritical
 116              		.loc 1 304 0
 117 00d6 4817     		se_li %r7,1
 118              		.loc 1 305 0
 119 00d8 0173     		se_mr %r3,%r7
 120 00da C901     		se_lwz %r0,36(%r1)
 121 00dc 0090     		se_mtlr %r0
 122 00de 21F1     		se_addi %r1,32
 123              	.LCFI1:
 124              		.cfi_def_cfa_offset 0
 125 00e0 0004     		se_blr
 126              		.cfi_endproc
 127              	.LFE0:
 128              		.size	xQueueGenericReset, .-xQueueGenericReset
 129              		.section	.text.xQueueGenericCreate,"axv",@progbits
 130              		.align 1
 131              		.p2align 4,,15
 132              		.globl xQueueGenericCreate
 133              		.type	xQueueGenericCreate, @function
 134              	xQueueGenericCreate:
 135              	.LFB1:
 136              		.loc 1 369 0
 137              		.cfi_startproc
 138 0000 182106D8 		e_stwu %r1,-40(%r1)
 139              	.LCFI2:
 140              		.cfi_def_cfa_offset 40
 141 0004 0080     		se_mflr %r0
 142 0006 DB01     		se_stw %r0,44(%r1)
 143              		.cfi_offset 65, 4
 144 0008 D631     		se_stw %r3,24(%r1)
 145 000a D741     		se_stw %r4,28(%r1)
 146 000c 0157     		se_mr %r7,%r5
 147 000e 34E10020 		e_stb %r7,32(%r1)
 148              		.loc 1 376 0
 149 0012 C771     		se_lwz %r7,28(%r1)
 150 0014 2A07     		se_cmpi %r7,0
 151 0016 7F800020 		e_mcrf %cr7,%cr0
 152 001a 7CE00026 		mfcr %r7
 153 001e 74E7E007 		e_rlwinm %r7,%r7,28,0xf0000000
 154 0022 7CE80120 		mtcrf 128,%r7
 155 0026 7A02000C 		e_bne %cr0,.L6
 156              		.loc 1 379 0
 157 002a 4807     		se_li %r7,0
 158 002c D271     		se_stw %r7,8(%r1)
 159 002e 7800000C 		e_b .L7
 160              	.L6:
 161              		.loc 1 385 0
 162 0032 C661     		se_lwz %r6,24(%r1)
 163 0034 C771     		se_lwz %r7,28(%r1)
 164 0036 0567     		se_mullw %r7,%r6
 165 0038 D271     		se_stw %r7,8(%r1)
 166              	.L7:
 167              		.loc 1 397 0
 168 003a C271     		se_lwz %r7,8(%r1)
 169 003c 18E78048 		e_addi %r7,%r7,72
 170 0040 0173     		se_mr %r3,%r7
 171 0042 78000001 		e_bl pvPortMalloc
GAS LISTING C:\Users\bayra\AppData\Local\Temp\ccOqRaY7.s 			page 4


 172 0046 D331     		se_stw %r3,12(%r1)
 173              		.loc 1 399 0
 174 0048 C371     		se_lwz %r7,12(%r1)
 175 004a 2A07     		se_cmpi %r7,0
 176 004c 7F800020 		e_mcrf %cr7,%cr0
 177 0050 7CE00026 		mfcr %r7
 178 0054 74E7E007 		e_rlwinm %r7,%r7,28,0xf0000000
 179 0058 7CE80120 		mtcrf 128,%r7
 180 005c 7A120024 		e_beq %cr0,.L8
 181              		.loc 1 403 0
 182 0060 C371     		se_lwz %r7,12(%r1)
 183 0062 D471     		se_stw %r7,16(%r1)
 184              		.loc 1 404 0
 185 0064 C471     		se_lwz %r7,16(%r1)
 186 0066 18E78048 		e_addi %r7,%r7,72
 187 006a D471     		se_stw %r7,16(%r1)
 188              		.loc 1 415 0
 189 006c 30E10020 		e_lbz %r7,32(%r1)
 190 0070 00C7     		se_extzb %r7
 191 0072 C631     		se_lwz %r3,24(%r1)
 192 0074 C741     		se_lwz %r4,28(%r1)
 193 0076 C451     		se_lwz %r5,16(%r1)
 194 0078 0176     		se_mr %r6,%r7
 195 007a C371     		se_lwz %r7,12(%r1)
 196 007c 78000001 		e_bl prvInitialiseNewQueue
 197              	.L8:
 198              		.loc 1 423 0
 199 0080 C371     		se_lwz %r7,12(%r1)
 200              		.loc 1 424 0
 201 0082 0173     		se_mr %r3,%r7
 202 0084 CB01     		se_lwz %r0,44(%r1)
 203 0086 0090     		se_mtlr %r0
 204 0088 18218028 		e_addi %r1,%r1,40
 205              	.LCFI3:
 206              		.cfi_def_cfa_offset 0
 207 008c 0004     		se_blr
 208              		.cfi_endproc
 209              	.LFE1:
 210              		.size	xQueueGenericCreate, .-xQueueGenericCreate
 211              		.section	.text.prvInitialiseNewQueue,"axv",@progbits
 212              		.align 1
 213              		.p2align 4,,15
 214              		.type	prvInitialiseNewQueue, @function
 215              	prvInitialiseNewQueue:
 216              	.LFB2:
 217              		.loc 1 430 0
 218              		.cfi_startproc
 219 0000 182106E0 		e_stwu %r1,-32(%r1)
 220              	.LCFI4:
 221              		.cfi_def_cfa_offset 32
 222 0004 0080     		se_mflr %r0
 223 0006 D901     		se_stw %r0,36(%r1)
 224              		.cfi_offset 65, 4
 225 0008 D231     		se_stw %r3,8(%r1)
 226 000a D341     		se_stw %r4,12(%r1)
 227 000c D451     		se_stw %r5,16(%r1)
 228 000e D671     		se_stw %r7,24(%r1)
GAS LISTING C:\Users\bayra\AppData\Local\Temp\ccOqRaY7.s 			page 5


 229 0010 34C10014 		e_stb %r6,20(%r1)
 230              		.loc 1 435 0
 231 0014 C371     		se_lwz %r7,12(%r1)
 232 0016 2A07     		se_cmpi %r7,0
 233 0018 7F800020 		e_mcrf %cr7,%cr0
 234 001c 7CE00026 		mfcr %r7
 235 0020 74E7E007 		e_rlwinm %r7,%r7,28,0xf0000000
 236 0024 7CE80120 		mtcrf 128,%r7
 237 0028 7A02000E 		e_bne %cr0,.L11
 238              		.loc 1 441 0
 239 002c C671     		se_lwz %r7,24(%r1)
 240 002e C661     		se_lwz %r6,24(%r1)
 241 0030 D067     		se_stw %r6,0(%r7)
 242 0032 7800000A 		e_b .L12
 243              	.L11:
 244              		.loc 1 446 0
 245 0036 C671     		se_lwz %r7,24(%r1)
 246 0038 C461     		se_lwz %r6,16(%r1)
 247 003a D067     		se_stw %r6,0(%r7)
 248              	.L12:
 249              		.loc 1 451 0
 250 003c C671     		se_lwz %r7,24(%r1)
 251 003e C261     		se_lwz %r6,8(%r1)
 252 0040 DF67     		se_stw %r6,60(%r7)
 253              		.loc 1 452 0
 254 0042 C671     		se_lwz %r7,24(%r1)
 255 0044 C361     		se_lwz %r6,12(%r1)
 256 0046 54C70040 		e_stw %r6,64(%r7)
 257              		.loc 1 453 0
 258 004a C631     		se_lwz %r3,24(%r1)
 259 004c 4814     		se_li %r4,1
 260 004e 78000001 		e_bl xQueueGenericReset
 261              		.loc 1 468 0
 262 0052 C901     		se_lwz %r0,36(%r1)
 263 0054 0090     		se_mtlr %r0
 264 0056 21F1     		se_addi %r1,32
 265              	.LCFI5:
 266              		.cfi_def_cfa_offset 0
 267 0058 0004     		se_blr
 268              		.cfi_endproc
 269              	.LFE2:
 270              		.size	prvInitialiseNewQueue, .-prvInitialiseNewQueue
 271              		.section	.text.prvInitialiseMutex,"axv",@progbits
 272              		.align 1
 273              		.p2align 4,,15
 274              		.type	prvInitialiseMutex, @function
 275              	prvInitialiseMutex:
 276              	.LFB3:
 277              		.loc 1 474 0
 278              		.cfi_startproc
 279 0000 182106F0 		e_stwu %r1,-16(%r1)
 280              	.LCFI6:
 281              		.cfi_def_cfa_offset 16
 282 0004 0080     		se_mflr %r0
 283 0006 D501     		se_stw %r0,20(%r1)
 284              		.cfi_offset 65, 4
 285 0008 D231     		se_stw %r3,8(%r1)
GAS LISTING C:\Users\bayra\AppData\Local\Temp\ccOqRaY7.s 			page 6


 286              		.loc 1 475 0
 287 000a C271     		se_lwz %r7,8(%r1)
 288 000c 2A07     		se_cmpi %r7,0
 289 000e 7F800020 		e_mcrf %cr7,%cr0
 290 0012 7CE00026 		mfcr %r7
 291 0016 74E7E007 		e_rlwinm %r7,%r7,28,0xf0000000
 292 001a 7CE80120 		mtcrf 128,%r7
 293 001e 7A120022 		e_beq %cr0,.L13
 294              		.loc 1 481 0
 295 0022 C271     		se_lwz %r7,8(%r1)
 296 0024 4806     		se_li %r6,0
 297 0026 D267     		se_stw %r6,8(%r7)
 298              		.loc 1 482 0
 299 0028 C271     		se_lwz %r7,8(%r1)
 300 002a 4806     		se_li %r6,0
 301 002c D067     		se_stw %r6,0(%r7)
 302              		.loc 1 485 0
 303 002e C271     		se_lwz %r7,8(%r1)
 304 0030 4806     		se_li %r6,0
 305 0032 D367     		se_stw %r6,12(%r7)
 306              		.loc 1 490 0
 307 0034 C231     		se_lwz %r3,8(%r1)
 308 0036 4804     		se_li %r4,0
 309 0038 4805     		se_li %r5,0
 310 003a 4806     		se_li %r6,0
 311 003c 78000001 		e_bl xQueueGenericSend
 312              	.L13:
 313              		.loc 1 496 0
 314 0040 C501     		se_lwz %r0,20(%r1)
 315 0042 0090     		se_mtlr %r0
 316 0044 20F1     		se_addi %r1,16
 317              	.LCFI7:
 318              		.cfi_def_cfa_offset 0
 319 0046 0004     		se_blr
 320              		.cfi_endproc
 321              	.LFE3:
 322              		.size	prvInitialiseMutex, .-prvInitialiseMutex
 323              		.section	.text.xQueueCreateMutex,"axv",@progbits
 324              		.align 1
 325              		.p2align 4,,15
 326              		.globl xQueueCreateMutex
 327              		.type	xQueueCreateMutex, @function
 328              	xQueueCreateMutex:
 329              	.LFB4:
 330              		.loc 1 504 0
 331              		.cfi_startproc
 332 0000 182106E0 		e_stwu %r1,-32(%r1)
 333              	.LCFI8:
 334              		.cfi_def_cfa_offset 32
 335 0004 0080     		se_mflr %r0
 336 0006 D901     		se_stw %r0,36(%r1)
 337              		.cfi_offset 65, 4
 338 0008 0137     		se_mr %r7,%r3
 339 000a 34E10018 		e_stb %r7,24(%r1)
 340              		.loc 1 506 0
 341 000e 4817     		se_li %r7,1
 342 0010 D271     		se_stw %r7,8(%r1)
GAS LISTING C:\Users\bayra\AppData\Local\Temp\ccOqRaY7.s 			page 7


 343 0012 4807     		se_li %r7,0
 344 0014 D371     		se_stw %r7,12(%r1)
 345              		.loc 1 508 0
 346 0016 30E10018 		e_lbz %r7,24(%r1)
 347 001a 00C7     		se_extzb %r7
 348 001c C231     		se_lwz %r3,8(%r1)
 349 001e C341     		se_lwz %r4,12(%r1)
 350 0020 0175     		se_mr %r5,%r7
 351 0022 78000001 		e_bl xQueueGenericCreate
 352 0026 D431     		se_stw %r3,16(%r1)
 353              		.loc 1 509 0
 354 0028 C431     		se_lwz %r3,16(%r1)
 355 002a 78000001 		e_bl prvInitialiseMutex
 356              		.loc 1 511 0
 357 002e C471     		se_lwz %r7,16(%r1)
 358              		.loc 1 512 0
 359 0030 0173     		se_mr %r3,%r7
 360 0032 C901     		se_lwz %r0,36(%r1)
 361 0034 0090     		se_mtlr %r0
 362 0036 21F1     		se_addi %r1,32
 363              	.LCFI9:
 364              		.cfi_def_cfa_offset 0
 365 0038 0004     		se_blr
 366              		.cfi_endproc
 367              	.LFE4:
 368              		.size	xQueueCreateMutex, .-xQueueCreateMutex
 369              		.section	.text.xQueueGenericSend,"axv",@progbits
 370              		.align 1
 371              		.p2align 4,,15
 372              		.globl xQueueGenericSend
 373              		.type	xQueueGenericSend, @function
 374              	xQueueGenericSend:
 375              	.LFB5:
 376              		.loc 1 748 0
 377              		.cfi_startproc
 378 0000 182106C8 		e_stwu %r1,-56(%r1)
 379              	.LCFI10:
 380              		.cfi_def_cfa_offset 56
 381 0004 0080     		se_mflr %r0
 382 0006 DF01     		se_stw %r0,60(%r1)
 383              		.cfi_offset 65, 4
 384 0008 DA31     		se_stw %r3,40(%r1)
 385 000a DB41     		se_stw %r4,44(%r1)
 386 000c DC51     		se_stw %r5,48(%r1)
 387 000e DD61     		se_stw %r6,52(%r1)
 388              		.loc 1 749 0
 389 0010 4807     		se_li %r7,0
 390 0012 D271     		se_stw %r7,8(%r1)
 391              		.loc 1 751 0
 392 0014 CA71     		se_lwz %r7,40(%r1)
 393 0016 D371     		se_stw %r7,12(%r1)
 394              	.L32:
 395              		.loc 1 768 0
 396 0018 78000001 		e_bl vTaskEnterCritical
 397              		.loc 1 774 0
 398 001c C371     		se_lwz %r7,12(%r1)
 399 001e CE67     		se_lwz %r6,56(%r7)
GAS LISTING C:\Users\bayra\AppData\Local\Temp\ccOqRaY7.s 			page 8


 400 0020 C371     		se_lwz %r7,12(%r1)
 401 0022 CF77     		se_lwz %r7,60(%r7)
 402 0024 7F863840 		cmpl %cr7,%r6,%r7
 403 0028 7CE00026 		mfcr %r7
 404 002c 74E7E007 		e_rlwinm %r7,%r7,28,0xf0000000
 405 0030 7CE80120 		mtcrf 128,%r7
 406 0034 7A10001C 		e_blt %cr0,.L18
 407              		.loc 1 774 0 is_stmt 0 discriminator 1
 408 0038 CD71     		se_lwz %r7,52(%r1)
 409 003a 2A27     		se_cmpi %r7,2
 410 003c 7F800020 		e_mcrf %cr7,%cr0
 411 0040 7CE00026 		mfcr %r7
 412 0044 74E7E007 		e_rlwinm %r7,%r7,28,0xf0000000
 413 0048 7CE80120 		mtcrf 128,%r7
 414 004c 7A020078 		e_bne %cr0,.L19
 415              	.L18:
 416              		.loc 1 840 0 is_stmt 1
 417 0050 C331     		se_lwz %r3,12(%r1)
 418 0052 CB41     		se_lwz %r4,44(%r1)
 419 0054 CD51     		se_lwz %r5,52(%r1)
 420 0056 78000001 		e_bl prvCopyDataToQueue
 421 005a D431     		se_stw %r3,16(%r1)
 422              		.loc 1 844 0
 423 005c C371     		se_lwz %r7,12(%r1)
 424 005e C977     		se_lwz %r7,36(%r7)
 425 0060 2A07     		se_cmpi %r7,0
 426 0062 7F800020 		e_mcrf %cr7,%cr0
 427 0066 7CE00026 		mfcr %r7
 428 006a 74E7E007 		e_rlwinm %r7,%r7,28,0xf0000000
 429 006e 7CE80120 		mtcrf 128,%r7
 430 0072 7A12002E 		e_beq %cr0,.L20
 431              		.loc 1 846 0
 432 0076 C371     		se_lwz %r7,12(%r1)
 433 0078 18E78024 		e_addi %r7,%r7,36
 434 007c 0173     		se_mr %r3,%r7
 435 007e 78000001 		e_bl xTaskRemoveFromEventList
 436 0082 0137     		se_mr %r7,%r3
 437 0084 2A07     		se_cmpi %r7,0
 438 0086 7F800020 		e_mcrf %cr7,%cr0
 439 008a 7CE00026 		mfcr %r7
 440 008e 74E7E007 		e_rlwinm %r7,%r7,28,0xf0000000
 441 0092 7CE80120 		mtcrf 128,%r7
 442 0096 7A120024 		e_beq %cr0,.L21
 443              		.loc 1 852 0
 444              	 # 852 "./components/spc5_freertos_component_rla/lib/src/queue.c" 1
 445 009a 0002     		se_sc
 446              	 # 0 "" 2
 447 009c 7800001E 		e_b .L21
 448              	.L20:
 449              		.loc 1 859 0
 450 00a0 C471     		se_lwz %r7,16(%r1)
 451 00a2 2A07     		se_cmpi %r7,0
 452 00a4 7F800020 		e_mcrf %cr7,%cr0
 453 00a8 7CE00026 		mfcr %r7
 454 00ac 74E7E007 		e_rlwinm %r7,%r7,28,0xf0000000
 455 00b0 7CE80120 		mtcrf 128,%r7
 456 00b4 7A120006 		e_beq %cr0,.L21
GAS LISTING C:\Users\bayra\AppData\Local\Temp\ccOqRaY7.s 			page 9


 457              		.loc 1 865 0
 458              	 # 865 "./components/spc5_freertos_component_rla/lib/src/queue.c" 1
 459 00b8 0002     		se_sc
 460              	 # 0 "" 2
 461              	.L21:
 462              		.loc 1 874 0
 463 00ba 78000001 		e_bl vTaskExitCritical
 464              		.loc 1 875 0
 465 00be 4817     		se_li %r7,1
 466 00c0 7800014C 		e_b .L33
 467              	.L19:
 468              		.loc 1 879 0
 469 00c4 CC71     		se_lwz %r7,48(%r1)
 470 00c6 2A07     		se_cmpi %r7,0
 471 00c8 7F800020 		e_mcrf %cr7,%cr0
 472 00cc 7CE00026 		mfcr %r7
 473 00d0 74E7E007 		e_rlwinm %r7,%r7,28,0xf0000000
 474 00d4 7CE80120 		mtcrf 128,%r7
 475 00d8 7A02000E 		e_bne %cr0,.L23
 476              		.loc 1 883 0
 477 00dc 78000001 		e_bl vTaskExitCritical
 478              		.loc 1 888 0
 479 00e0 4807     		se_li %r7,0
 480 00e2 7800012A 		e_b .L33
 481              	.L23:
 482              		.loc 1 890 0
 483 00e6 C271     		se_lwz %r7,8(%r1)
 484 00e8 2A07     		se_cmpi %r7,0
 485 00ea 7F800020 		e_mcrf %cr7,%cr0
 486 00ee 7CE00026 		mfcr %r7
 487 00f2 74E7E007 		e_rlwinm %r7,%r7,28,0xf0000000
 488 00f6 7CE80120 		mtcrf 128,%r7
 489 00fa 7A020012 		e_bne %cr0,.L24
 490              		.loc 1 894 0
 491 00fe 18E18014 		e_addi %r7,%r1,20
 492 0102 0173     		se_mr %r3,%r7
 493 0104 78000001 		e_bl vTaskInternalSetTimeOutState
 494              		.loc 1 895 0
 495 0108 4817     		se_li %r7,1
 496 010a D271     		se_stw %r7,8(%r1)
 497              	.L24:
 498              		.loc 1 904 0
 499 010c 78000001 		e_bl vTaskExitCritical
 500              		.loc 1 909 0
 501 0110 78000001 		e_bl vTaskSuspendAll
 502              		.loc 1 910 0
 503 0114 78000001 		e_bl vTaskEnterCritical
 504 0118 C371     		se_lwz %r7,12(%r1)
 505 011a 30E70044 		e_lbz %r7,68(%r7)
 506 011e 7CE60774 		extsb %r6,%r7
 507 0122 2C07     		se_bmaski %r7,0
 508 0124 7F863800 		cmp %cr7,%r6,%r7
 509 0128 7CE00026 		mfcr %r7
 510 012c 74E7E007 		e_rlwinm %r7,%r7,28,0xf0000000
 511 0130 7CE80120 		mtcrf 128,%r7
 512 0134 7A02000C 		e_bne %cr0,.L25
 513              		.loc 1 910 0 is_stmt 0 discriminator 1
GAS LISTING C:\Users\bayra\AppData\Local\Temp\ccOqRaY7.s 			page 10


 514 0138 C371     		se_lwz %r7,12(%r1)
 515 013a 4806     		se_li %r6,0
 516 013c 34C70044 		e_stb %r6,68(%r7)
 517              	.L25:
 518              		.loc 1 910 0 discriminator 3
 519 0140 C371     		se_lwz %r7,12(%r1)
 520 0142 30E70045 		e_lbz %r7,69(%r7)
 521 0146 7CE60774 		extsb %r6,%r7
 522 014a 2C07     		se_bmaski %r7,0
 523 014c 7F863800 		cmp %cr7,%r6,%r7
 524 0150 7CE00026 		mfcr %r7
 525 0154 74E7E007 		e_rlwinm %r7,%r7,28,0xf0000000
 526 0158 7CE80120 		mtcrf 128,%r7
 527 015c 7A02000C 		e_bne %cr0,.L26
 528              		.loc 1 910 0 discriminator 4
 529 0160 C371     		se_lwz %r7,12(%r1)
 530 0162 4806     		se_li %r6,0
 531 0164 34C70045 		e_stb %r6,69(%r7)
 532              	.L26:
 533              		.loc 1 910 0 discriminator 6
 534 0168 78000001 		e_bl vTaskExitCritical
 535              		.loc 1 913 0 is_stmt 1 discriminator 6
 536 016c 18C18014 		e_addi %r6,%r1,20
 537 0170 18E18030 		e_addi %r7,%r1,48
 538 0174 0163     		se_mr %r3,%r6
 539 0176 0174     		se_mr %r4,%r7
 540 0178 78000001 		e_bl xTaskCheckForTimeOut
 541 017c 0137     		se_mr %r7,%r3
 542 017e 2A07     		se_cmpi %r7,0
 543 0180 7F800020 		e_mcrf %cr7,%cr0
 544 0184 7CE00026 		mfcr %r7
 545 0188 74E7E007 		e_rlwinm %r7,%r7,28,0xf0000000
 546 018c 7CE80120 		mtcrf 128,%r7
 547 0190 7A020068 		e_bne %cr0,.L27
 548              		.loc 1 915 0
 549 0194 C331     		se_lwz %r3,12(%r1)
 550 0196 78000001 		e_bl prvIsQueueFull
 551 019a 0137     		se_mr %r7,%r3
 552 019c 2A07     		se_cmpi %r7,0
 553 019e 7F800020 		e_mcrf %cr7,%cr0
 554 01a2 7CE00026 		mfcr %r7
 555 01a6 74E7E007 		e_rlwinm %r7,%r7,28,0xf0000000
 556 01aa 7CE80120 		mtcrf 128,%r7
 557 01ae 7A12003C 		e_beq %cr0,.L28
 558              		.loc 1 918 0
 559 01b2 C371     		se_lwz %r7,12(%r1)
 560 01b4 18C78010 		e_addi %r6,%r7,16
 561 01b8 CC71     		se_lwz %r7,48(%r1)
 562 01ba 0163     		se_mr %r3,%r6
 563 01bc 0174     		se_mr %r4,%r7
 564 01be 78000001 		e_bl vTaskPlaceOnEventList
 565              		.loc 1 925 0
 566 01c2 C331     		se_lwz %r3,12(%r1)
 567 01c4 78000001 		e_bl prvUnlockQueue
 568              		.loc 1 932 0
 569 01c8 78000001 		e_bl xTaskResumeAll
 570 01cc 0137     		se_mr %r7,%r3
GAS LISTING C:\Users\bayra\AppData\Local\Temp\ccOqRaY7.s 			page 11


 571 01ce 2A07     		se_cmpi %r7,0
 572 01d0 7F800020 		e_mcrf %cr7,%cr0
 573 01d4 7CE00026 		mfcr %r7
 574 01d8 74E7E007 		e_rlwinm %r7,%r7,28,0xf0000000
 575 01dc 7CE80120 		mtcrf 128,%r7
 576 01e0 7A020028 		e_bne %cr0,.L31
 577              		.loc 1 934 0
 578              	 # 934 "./components/spc5_freertos_component_rla/lib/src/queue.c" 1
 579 01e4 0002     		se_sc
 580              	 # 0 "" 2
 581 01e6 78000022 		e_b .L31
 582              	.L28:
 583              		.loc 1 940 0
 584 01ea C331     		se_lwz %r3,12(%r1)
 585 01ec 78000001 		e_bl prvUnlockQueue
 586              		.loc 1 941 0
 587 01f0 78000001 		e_bl xTaskResumeAll
 588 01f4 79FFFE24 		e_b .L32
 589              	.L27:
 590              		.loc 1 947 0
 591 01f8 C331     		se_lwz %r3,12(%r1)
 592 01fa 78000001 		e_bl prvUnlockQueue
 593              		.loc 1 948 0
 594 01fe 78000001 		e_bl xTaskResumeAll
 595              		.loc 1 951 0
 596 0202 4807     		se_li %r7,0
 597 0204 78000008 		e_b .L33
 598              	.L31:
 599              		.loc 1 953 0 discriminator 2
 600 0208 79FFFE10 		e_b .L32
 601              	.L33:
 602              		.loc 1 954 0 discriminator 3
 603 020c 0173     		se_mr %r3,%r7
 604 020e CF01     		se_lwz %r0,60(%r1)
 605 0210 0090     		se_mtlr %r0
 606 0212 18218038 		e_addi %r1,%r1,56
 607              	.LCFI11:
 608              		.cfi_def_cfa_offset 0
 609 0216 0004     		se_blr
 610              		.cfi_endproc
 611              	.LFE5:
 612              		.size	xQueueGenericSend, .-xQueueGenericSend
 613              		.section	.text.xQueueGenericSendFromISR,"axv",@progbits
 614              		.align 1
 615              		.p2align 4,,15
 616              		.globl xQueueGenericSendFromISR
 617              		.type	xQueueGenericSendFromISR, @function
 618              	xQueueGenericSendFromISR:
 619              	.LFB6:
 620              		.loc 1 958 0
 621              		.cfi_startproc
 622 0000 182106D8 		e_stwu %r1,-40(%r1)
 623              	.LCFI12:
 624              		.cfi_def_cfa_offset 40
 625 0004 0080     		se_mflr %r0
 626 0006 DB01     		se_stw %r0,44(%r1)
 627              		.cfi_offset 65, 4
GAS LISTING C:\Users\bayra\AppData\Local\Temp\ccOqRaY7.s 			page 12


 628 0008 D631     		se_stw %r3,24(%r1)
 629 000a D741     		se_stw %r4,28(%r1)
 630 000c D851     		se_stw %r5,32(%r1)
 631 000e D961     		se_stw %r6,36(%r1)
 632              		.loc 1 961 0
 633 0010 C671     		se_lwz %r7,24(%r1)
 634 0012 D371     		se_stw %r7,12(%r1)
 635              		.loc 1 988 0
 636 0014 4807     		se_li %r7,0
 637 0016 D471     		se_stw %r7,16(%r1)
 638              		.loc 1 990 0
 639 0018 C371     		se_lwz %r7,12(%r1)
 640 001a CE67     		se_lwz %r6,56(%r7)
 641 001c C371     		se_lwz %r7,12(%r1)
 642 001e CF77     		se_lwz %r7,60(%r7)
 643 0020 7F863840 		cmpl %cr7,%r6,%r7
 644 0024 7CE00026 		mfcr %r7
 645 0028 74E7E007 		e_rlwinm %r7,%r7,28,0xf0000000
 646 002c 7CE80120 		mtcrf 128,%r7
 647 0030 7A10001C 		e_blt %cr0,.L35
 648              		.loc 1 990 0 is_stmt 0 discriminator 1
 649 0034 C971     		se_lwz %r7,36(%r1)
 650 0036 2A27     		se_cmpi %r7,2
 651 0038 7F800020 		e_mcrf %cr7,%cr0
 652 003c 7CE00026 		mfcr %r7
 653 0040 74E7E007 		e_rlwinm %r7,%r7,28,0xf0000000
 654 0044 7CE80120 		mtcrf 128,%r7
 655 0048 7A0200B2 		e_bne %cr0,.L36
 656              	.L35:
 657              	.LBB2:
 658              		.loc 1 992 0 is_stmt 1
 659 004c C371     		se_lwz %r7,12(%r1)
 660 004e 30E70045 		e_lbz %r7,69(%r7)
 661 0052 34E10014 		e_stb %r7,20(%r1)
 662              		.loc 1 1001 0
 663 0056 C331     		se_lwz %r3,12(%r1)
 664 0058 C741     		se_lwz %r4,28(%r1)
 665 005a C951     		se_lwz %r5,36(%r1)
 666 005c 78000001 		e_bl prvCopyDataToQueue
 667              		.loc 1 1005 0
 668 0060 30E10014 		e_lbz %r7,20(%r1)
 669 0064 7CE60774 		extsb %r6,%r7
 670 0068 2C07     		se_bmaski %r7,0
 671 006a 7F863800 		cmp %cr7,%r6,%r7
 672 006e 7CE00026 		mfcr %r7
 673 0072 74E7E007 		e_rlwinm %r7,%r7,28,0xf0000000
 674 0076 7CE80120 		mtcrf 128,%r7
 675 007a 7A020064 		e_bne %cr0,.L37
 676              		.loc 1 1060 0
 677 007e C371     		se_lwz %r7,12(%r1)
 678 0080 C977     		se_lwz %r7,36(%r7)
 679 0082 2A07     		se_cmpi %r7,0
 680 0084 7F800020 		e_mcrf %cr7,%cr0
 681 0088 7CE00026 		mfcr %r7
 682 008c 74E7E007 		e_rlwinm %r7,%r7,28,0xf0000000
 683 0090 7CE80120 		mtcrf 128,%r7
 684 0094 7A12005E 		e_beq %cr0,.L38
GAS LISTING C:\Users\bayra\AppData\Local\Temp\ccOqRaY7.s 			page 13


 685              		.loc 1 1062 0
 686 0098 C371     		se_lwz %r7,12(%r1)
 687 009a 18E78024 		e_addi %r7,%r7,36
 688 009e 0173     		se_mr %r3,%r7
 689 00a0 78000001 		e_bl xTaskRemoveFromEventList
 690 00a4 0137     		se_mr %r7,%r3
 691 00a6 2A07     		se_cmpi %r7,0
 692 00a8 7F800020 		e_mcrf %cr7,%cr0
 693 00ac 7CE00026 		mfcr %r7
 694 00b0 74E7E007 		e_rlwinm %r7,%r7,28,0xf0000000
 695 00b4 7CE80120 		mtcrf 128,%r7
 696 00b8 7A12003A 		e_beq %cr0,.L38
 697              		.loc 1 1066 0
 698 00bc C871     		se_lwz %r7,32(%r1)
 699 00be 2A07     		se_cmpi %r7,0
 700 00c0 7F800020 		e_mcrf %cr7,%cr0
 701 00c4 7CE00026 		mfcr %r7
 702 00c8 74E7E007 		e_rlwinm %r7,%r7,28,0xf0000000
 703 00cc 7CE80120 		mtcrf 128,%r7
 704 00d0 7A120022 		e_beq %cr0,.L38
 705              		.loc 1 1068 0
 706 00d4 C871     		se_lwz %r7,32(%r1)
 707 00d6 4816     		se_li %r6,1
 708 00d8 D067     		se_stw %r6,0(%r7)
 709 00da 78000018 		e_b .L38
 710              	.L37:
 711              		.loc 1 1091 0
 712 00de 30E10014 		e_lbz %r7,20(%r1)
 713 00e2 00C7     		se_extzb %r7
 714 00e4 2007     		se_addi %r7,1
 715 00e6 00C7     		se_extzb %r7
 716 00e8 7CE60774 		extsb %r6,%r7
 717 00ec C371     		se_lwz %r7,12(%r1)
 718 00ee 34C70045 		e_stb %r6,69(%r7)
 719              	.L38:
 720              		.loc 1 1094 0
 721 00f2 4817     		se_li %r7,1
 722 00f4 D271     		se_stw %r7,8(%r1)
 723              	.LBE2:
 724              		.loc 1 991 0
 725 00f6 78000008 		e_b .L39
 726              	.L36:
 727              		.loc 1 1099 0
 728 00fa 4807     		se_li %r7,0
 729 00fc D271     		se_stw %r7,8(%r1)
 730              	.L39:
 731              		.loc 1 1104 0
 732 00fe C271     		se_lwz %r7,8(%r1)
 733              		.loc 1 1105 0
 734 0100 0173     		se_mr %r3,%r7
 735 0102 CB01     		se_lwz %r0,44(%r1)
 736 0104 0090     		se_mtlr %r0
 737 0106 18218028 		e_addi %r1,%r1,40
 738              	.LCFI13:
 739              		.cfi_def_cfa_offset 0
 740 010a 0004     		se_blr
 741              		.cfi_endproc
GAS LISTING C:\Users\bayra\AppData\Local\Temp\ccOqRaY7.s 			page 14


 742              	.LFE6:
 743              		.size	xQueueGenericSendFromISR, .-xQueueGenericSendFromISR
 744              		.section	.text.xQueueGiveFromISR,"axv",@progbits
 745              		.align 1
 746              		.p2align 4,,15
 747              		.globl xQueueGiveFromISR
 748              		.type	xQueueGiveFromISR, @function
 749              	xQueueGiveFromISR:
 750              	.LFB7:
 751              		.loc 1 1109 0
 752              		.cfi_startproc
 753 0000 182106D0 		e_stwu %r1,-48(%r1)
 754              	.LCFI14:
 755              		.cfi_def_cfa_offset 48
 756 0004 0080     		se_mflr %r0
 757 0006 DD01     		se_stw %r0,52(%r1)
 758              		.cfi_offset 65, 4
 759 0008 DA31     		se_stw %r3,40(%r1)
 760 000a DB41     		se_stw %r4,44(%r1)
 761              		.loc 1 1112 0
 762 000c CA71     		se_lwz %r7,40(%r1)
 763 000e D371     		se_stw %r7,12(%r1)
 764              		.loc 1 1147 0
 765 0010 4807     		se_li %r7,0
 766 0012 D471     		se_stw %r7,16(%r1)
 767              	.LBB3:
 768              		.loc 1 1149 0
 769 0014 C371     		se_lwz %r7,12(%r1)
 770 0016 CE77     		se_lwz %r7,56(%r7)
 771 0018 D571     		se_stw %r7,20(%r1)
 772              		.loc 1 1154 0
 773 001a C371     		se_lwz %r7,12(%r1)
 774 001c CF67     		se_lwz %r6,60(%r7)
 775 001e C571     		se_lwz %r7,20(%r1)
 776 0020 7F863840 		cmpl %cr7,%r6,%r7
 777 0024 7CE00026 		mfcr %r7
 778 0028 74E7E007 		e_rlwinm %r7,%r7,28,0xf0000000
 779 002c 7CE80120 		mtcrf 128,%r7
 780 0030 7A0100B2 		e_ble %cr0,.L42
 781              	.LBB4:
 782              		.loc 1 1156 0
 783 0034 C371     		se_lwz %r7,12(%r1)
 784 0036 30E70045 		e_lbz %r7,69(%r7)
 785 003a 34E10018 		e_stb %r7,24(%r1)
 786              		.loc 1 1166 0
 787 003e C571     		se_lwz %r7,20(%r1)
 788 0040 18C78001 		e_addi %r6,%r7,1
 789 0044 C371     		se_lwz %r7,12(%r1)
 790 0046 DE67     		se_stw %r6,56(%r7)
 791              		.loc 1 1170 0
 792 0048 30E10018 		e_lbz %r7,24(%r1)
 793 004c 7CE60774 		extsb %r6,%r7
 794 0050 2C07     		se_bmaski %r7,0
 795 0052 7F863800 		cmp %cr7,%r6,%r7
 796 0056 7CE00026 		mfcr %r7
 797 005a 74E7E007 		e_rlwinm %r7,%r7,28,0xf0000000
 798 005e 7CE80120 		mtcrf 128,%r7
GAS LISTING C:\Users\bayra\AppData\Local\Temp\ccOqRaY7.s 			page 15


 799 0062 7A020064 		e_bne %cr0,.L43
 800              		.loc 1 1225 0
 801 0066 C371     		se_lwz %r7,12(%r1)
 802 0068 C977     		se_lwz %r7,36(%r7)
 803 006a 2A07     		se_cmpi %r7,0
 804 006c 7F800020 		e_mcrf %cr7,%cr0
 805 0070 7CE00026 		mfcr %r7
 806 0074 74E7E007 		e_rlwinm %r7,%r7,28,0xf0000000
 807 0078 7CE80120 		mtcrf 128,%r7
 808 007c 7A12005E 		e_beq %cr0,.L44
 809              		.loc 1 1227 0
 810 0080 C371     		se_lwz %r7,12(%r1)
 811 0082 18E78024 		e_addi %r7,%r7,36
 812 0086 0173     		se_mr %r3,%r7
 813 0088 78000001 		e_bl xTaskRemoveFromEventList
 814 008c 0137     		se_mr %r7,%r3
 815 008e 2A07     		se_cmpi %r7,0
 816 0090 7F800020 		e_mcrf %cr7,%cr0
 817 0094 7CE00026 		mfcr %r7
 818 0098 74E7E007 		e_rlwinm %r7,%r7,28,0xf0000000
 819 009c 7CE80120 		mtcrf 128,%r7
 820 00a0 7A12003A 		e_beq %cr0,.L44
 821              		.loc 1 1231 0
 822 00a4 CB71     		se_lwz %r7,44(%r1)
 823 00a6 2A07     		se_cmpi %r7,0
 824 00a8 7F800020 		e_mcrf %cr7,%cr0
 825 00ac 7CE00026 		mfcr %r7
 826 00b0 74E7E007 		e_rlwinm %r7,%r7,28,0xf0000000
 827 00b4 7CE80120 		mtcrf 128,%r7
 828 00b8 7A120022 		e_beq %cr0,.L44
 829              		.loc 1 1233 0
 830 00bc CB71     		se_lwz %r7,44(%r1)
 831 00be 4816     		se_li %r6,1
 832 00c0 D067     		se_stw %r6,0(%r7)
 833 00c2 78000018 		e_b .L44
 834              	.L43:
 835              		.loc 1 1256 0
 836 00c6 30E10018 		e_lbz %r7,24(%r1)
 837 00ca 00C7     		se_extzb %r7
 838 00cc 2007     		se_addi %r7,1
 839 00ce 00C7     		se_extzb %r7
 840 00d0 7CE60774 		extsb %r6,%r7
 841 00d4 C371     		se_lwz %r7,12(%r1)
 842 00d6 34C70045 		e_stb %r6,69(%r7)
 843              	.L44:
 844              		.loc 1 1259 0
 845 00da 4817     		se_li %r7,1
 846 00dc D271     		se_stw %r7,8(%r1)
 847              	.LBE4:
 848 00de 78000008 		e_b .L45
 849              	.L42:
 850              		.loc 1 1264 0
 851 00e2 4807     		se_li %r7,0
 852 00e4 D271     		se_stw %r7,8(%r1)
 853              	.L45:
 854              	.LBE3:
 855              		.loc 1 1269 0
GAS LISTING C:\Users\bayra\AppData\Local\Temp\ccOqRaY7.s 			page 16


 856 00e6 C271     		se_lwz %r7,8(%r1)
 857              		.loc 1 1270 0
 858 00e8 0173     		se_mr %r3,%r7
 859 00ea CD01     		se_lwz %r0,52(%r1)
 860 00ec 0090     		se_mtlr %r0
 861 00ee 18218030 		e_addi %r1,%r1,48
 862              	.LCFI15:
 863              		.cfi_def_cfa_offset 0
 864 00f2 0004     		se_blr
 865              		.cfi_endproc
 866              	.LFE7:
 867              		.size	xQueueGiveFromISR, .-xQueueGiveFromISR
 868              		.section	.text.xQueueReceive,"axv",@progbits
 869              		.align 1
 870              		.p2align 4,,15
 871              		.globl xQueueReceive
 872              		.type	xQueueReceive, @function
 873              	xQueueReceive:
 874              	.LFB8:
 875              		.loc 1 1274 0
 876              		.cfi_startproc
 877 0000 182106C8 		e_stwu %r1,-56(%r1)
 878              	.LCFI16:
 879              		.cfi_def_cfa_offset 56
 880 0004 0080     		se_mflr %r0
 881 0006 DF01     		se_stw %r0,60(%r1)
 882              		.cfi_offset 65, 4
 883 0008 DA31     		se_stw %r3,40(%r1)
 884 000a DB41     		se_stw %r4,44(%r1)
 885 000c DC51     		se_stw %r5,48(%r1)
 886              		.loc 1 1275 0
 887 000e 4807     		se_li %r7,0
 888 0010 D271     		se_stw %r7,8(%r1)
 889              		.loc 1 1277 0
 890 0012 CA71     		se_lwz %r7,40(%r1)
 891 0014 D371     		se_stw %r7,12(%r1)
 892              	.L59:
 893              		.loc 1 1299 0
 894 0016 78000001 		e_bl vTaskEnterCritical
 895              	.LBB5:
 896              		.loc 1 1301 0
 897 001a C371     		se_lwz %r7,12(%r1)
 898 001c CE77     		se_lwz %r7,56(%r7)
 899 001e D471     		se_stw %r7,16(%r1)
 900              		.loc 1 1305 0
 901 0020 C471     		se_lwz %r7,16(%r1)
 902 0022 2A07     		se_cmpi %r7,0
 903 0024 7F800020 		e_mcrf %cr7,%cr0
 904 0028 7CE00026 		mfcr %r7
 905 002c 74E7E007 		e_rlwinm %r7,%r7,28,0xf0000000
 906 0030 7CE80120 		mtcrf 128,%r7
 907 0034 7A12005E 		e_beq %cr0,.L48
 908              		.loc 1 1308 0
 909 0038 C331     		se_lwz %r3,12(%r1)
 910 003a CB41     		se_lwz %r4,44(%r1)
 911 003c 78000001 		e_bl prvCopyDataFromQueue
 912              		.loc 1 1310 0
GAS LISTING C:\Users\bayra\AppData\Local\Temp\ccOqRaY7.s 			page 17


 913 0040 C471     		se_lwz %r7,16(%r1)
 914 0042 18C784FF 		e_addi %r6,%r7,-1
 915 0046 C371     		se_lwz %r7,12(%r1)
 916 0048 DE67     		se_stw %r6,56(%r7)
 917              		.loc 1 1315 0
 918 004a C371     		se_lwz %r7,12(%r1)
 919 004c C477     		se_lwz %r7,16(%r7)
 920 004e 2A07     		se_cmpi %r7,0
 921 0050 7F800020 		e_mcrf %cr7,%cr0
 922 0054 7CE00026 		mfcr %r7
 923 0058 74E7E007 		e_rlwinm %r7,%r7,28,0xf0000000
 924 005c 7CE80120 		mtcrf 128,%r7
 925 0060 7A120028 		e_beq %cr0,.L49
 926              		.loc 1 1317 0
 927 0064 C371     		se_lwz %r7,12(%r1)
 928 0066 20F7     		se_addi %r7,16
 929 0068 0173     		se_mr %r3,%r7
 930 006a 78000001 		e_bl xTaskRemoveFromEventList
 931 006e 0137     		se_mr %r7,%r3
 932 0070 2A07     		se_cmpi %r7,0
 933 0072 7F800020 		e_mcrf %cr7,%cr0
 934 0076 7CE00026 		mfcr %r7
 935 007a 74E7E007 		e_rlwinm %r7,%r7,28,0xf0000000
 936 007e 7CE80120 		mtcrf 128,%r7
 937 0082 7A120006 		e_beq %cr0,.L49
 938              		.loc 1 1319 0
 939              	 # 1319 "./components/spc5_freertos_component_rla/lib/src/queue.c" 1
 940 0086 0002     		se_sc
 941              	 # 0 "" 2
 942              	.L49:
 943              		.loc 1 1331 0
 944 0088 78000001 		e_bl vTaskExitCritical
 945              		.loc 1 1332 0
 946 008c 4817     		se_li %r7,1
 947 008e 7800016A 		e_b .L60
 948              	.L48:
 949              		.loc 1 1336 0
 950 0092 CC71     		se_lwz %r7,48(%r1)
 951 0094 2A07     		se_cmpi %r7,0
 952 0096 7F800020 		e_mcrf %cr7,%cr0
 953 009a 7CE00026 		mfcr %r7
 954 009e 74E7E007 		e_rlwinm %r7,%r7,28,0xf0000000
 955 00a2 7CE80120 		mtcrf 128,%r7
 956 00a6 7A02000E 		e_bne %cr0,.L51
 957              		.loc 1 1340 0
 958 00aa 78000001 		e_bl vTaskExitCritical
 959              		.loc 1 1342 0
 960 00ae 4807     		se_li %r7,0
 961 00b0 78000148 		e_b .L60
 962              	.L51:
 963              		.loc 1 1344 0
 964 00b4 C271     		se_lwz %r7,8(%r1)
 965 00b6 2A07     		se_cmpi %r7,0
 966 00b8 7F800020 		e_mcrf %cr7,%cr0
 967 00bc 7CE00026 		mfcr %r7
 968 00c0 74E7E007 		e_rlwinm %r7,%r7,28,0xf0000000
 969 00c4 7CE80120 		mtcrf 128,%r7
GAS LISTING C:\Users\bayra\AppData\Local\Temp\ccOqRaY7.s 			page 18


 970 00c8 7A020012 		e_bne %cr0,.L52
 971              		.loc 1 1348 0
 972 00cc 18E18014 		e_addi %r7,%r1,20
 973 00d0 0173     		se_mr %r3,%r7
 974 00d2 78000001 		e_bl vTaskInternalSetTimeOutState
 975              		.loc 1 1349 0
 976 00d6 4817     		se_li %r7,1
 977 00d8 D271     		se_stw %r7,8(%r1)
 978              	.L52:
 979              	.LBE5:
 980              		.loc 1 1358 0
 981 00da 78000001 		e_bl vTaskExitCritical
 982              		.loc 1 1363 0
 983 00de 78000001 		e_bl vTaskSuspendAll
 984              		.loc 1 1364 0
 985 00e2 78000001 		e_bl vTaskEnterCritical
 986 00e6 C371     		se_lwz %r7,12(%r1)
 987 00e8 30E70044 		e_lbz %r7,68(%r7)
 988 00ec 7CE60774 		extsb %r6,%r7
 989 00f0 2C07     		se_bmaski %r7,0
 990 00f2 7F863800 		cmp %cr7,%r6,%r7
 991 00f6 7CE00026 		mfcr %r7
 992 00fa 74E7E007 		e_rlwinm %r7,%r7,28,0xf0000000
 993 00fe 7CE80120 		mtcrf 128,%r7
 994 0102 7A02000C 		e_bne %cr0,.L53
 995              		.loc 1 1364 0 is_stmt 0 discriminator 1
 996 0106 C371     		se_lwz %r7,12(%r1)
 997 0108 4806     		se_li %r6,0
 998 010a 34C70044 		e_stb %r6,68(%r7)
 999              	.L53:
 1000              		.loc 1 1364 0 discriminator 3
 1001 010e C371     		se_lwz %r7,12(%r1)
 1002 0110 30E70045 		e_lbz %r7,69(%r7)
 1003 0114 7CE60774 		extsb %r6,%r7
 1004 0118 2C07     		se_bmaski %r7,0
 1005 011a 7F863800 		cmp %cr7,%r6,%r7
 1006 011e 7CE00026 		mfcr %r7
 1007 0122 74E7E007 		e_rlwinm %r7,%r7,28,0xf0000000
 1008 0126 7CE80120 		mtcrf 128,%r7
 1009 012a 7A02000C 		e_bne %cr0,.L54
 1010              		.loc 1 1364 0 discriminator 4
 1011 012e C371     		se_lwz %r7,12(%r1)
 1012 0130 4806     		se_li %r6,0
 1013 0132 34C70045 		e_stb %r6,69(%r7)
 1014              	.L54:
 1015              		.loc 1 1364 0 discriminator 6
 1016 0136 78000001 		e_bl vTaskExitCritical
 1017              		.loc 1 1367 0 is_stmt 1 discriminator 6
 1018 013a 18C18014 		e_addi %r6,%r1,20
 1019 013e 18E18030 		e_addi %r7,%r1,48
 1020 0142 0163     		se_mr %r3,%r6
 1021 0144 0174     		se_mr %r4,%r7
 1022 0146 78000001 		e_bl xTaskCheckForTimeOut
 1023 014a 0137     		se_mr %r7,%r3
 1024 014c 2A07     		se_cmpi %r7,0
 1025 014e 7F800020 		e_mcrf %cr7,%cr0
 1026 0152 7CE00026 		mfcr %r7
GAS LISTING C:\Users\bayra\AppData\Local\Temp\ccOqRaY7.s 			page 19


 1027 0156 74E7E007 		e_rlwinm %r7,%r7,28,0xf0000000
 1028 015a 7CE80120 		mtcrf 128,%r7
 1029 015e 7A020068 		e_bne %cr0,.L55
 1030              		.loc 1 1371 0
 1031 0162 C331     		se_lwz %r3,12(%r1)
 1032 0164 78000001 		e_bl prvIsQueueEmpty
 1033 0168 0137     		se_mr %r7,%r3
 1034 016a 2A07     		se_cmpi %r7,0
 1035 016c 7F800020 		e_mcrf %cr7,%cr0
 1036 0170 7CE00026 		mfcr %r7
 1037 0174 74E7E007 		e_rlwinm %r7,%r7,28,0xf0000000
 1038 0178 7CE80120 		mtcrf 128,%r7
 1039 017c 7A12003C 		e_beq %cr0,.L56
 1040              		.loc 1 1374 0
 1041 0180 C371     		se_lwz %r7,12(%r1)
 1042 0182 18C78024 		e_addi %r6,%r7,36
 1043 0186 CC71     		se_lwz %r7,48(%r1)
 1044 0188 0163     		se_mr %r3,%r6
 1045 018a 0174     		se_mr %r4,%r7
 1046 018c 78000001 		e_bl vTaskPlaceOnEventList
 1047              		.loc 1 1375 0
 1048 0190 C331     		se_lwz %r3,12(%r1)
 1049 0192 78000001 		e_bl prvUnlockQueue
 1050              		.loc 1 1376 0
 1051 0196 78000001 		e_bl xTaskResumeAll
 1052 019a 0137     		se_mr %r7,%r3
 1053 019c 2A07     		se_cmpi %r7,0
 1054 019e 7F800020 		e_mcrf %cr7,%cr0
 1055 01a2 7CE00026 		mfcr %r7
 1056 01a6 74E7E007 		e_rlwinm %r7,%r7,28,0xf0000000
 1057 01aa 7CE80120 		mtcrf 128,%r7
 1058 01ae 7A020046 		e_bne %cr0,.L58
 1059              		.loc 1 1378 0
 1060              	 # 1378 "./components/spc5_freertos_component_rla/lib/src/queue.c" 1
 1061 01b2 0002     		se_sc
 1062              	 # 0 "" 2
 1063 01b4 78000040 		e_b .L58
 1064              	.L56:
 1065              		.loc 1 1389 0
 1066 01b8 C331     		se_lwz %r3,12(%r1)
 1067 01ba 78000001 		e_bl prvUnlockQueue
 1068              		.loc 1 1390 0
 1069 01be 78000001 		e_bl xTaskResumeAll
 1070 01c2 79FFFE54 		e_b .L59
 1071              	.L55:
 1072              		.loc 1 1397 0
 1073 01c6 C331     		se_lwz %r3,12(%r1)
 1074 01c8 78000001 		e_bl prvUnlockQueue
 1075              		.loc 1 1398 0
 1076 01cc 78000001 		e_bl xTaskResumeAll
 1077              		.loc 1 1400 0
 1078 01d0 C331     		se_lwz %r3,12(%r1)
 1079 01d2 78000001 		e_bl prvIsQueueEmpty
 1080 01d6 0137     		se_mr %r7,%r3
 1081 01d8 2A07     		se_cmpi %r7,0
 1082 01da 7F800020 		e_mcrf %cr7,%cr0
 1083 01de 7CE00026 		mfcr %r7
GAS LISTING C:\Users\bayra\AppData\Local\Temp\ccOqRaY7.s 			page 20


 1084 01e2 74E7E007 		e_rlwinm %r7,%r7,28,0xf0000000
 1085 01e6 7CE80120 		mtcrf 128,%r7
 1086 01ea 7A12000A 		e_beq %cr0,.L58
 1087              		.loc 1 1403 0
 1088 01ee 4807     		se_li %r7,0
 1089 01f0 78000008 		e_b .L60
 1090              	.L58:
 1091              		.loc 1 1410 0 discriminator 2
 1092 01f4 79FFFE22 		e_b .L59
 1093              	.L60:
 1094              		.loc 1 1411 0 discriminator 3
 1095 01f8 0173     		se_mr %r3,%r7
 1096 01fa CF01     		se_lwz %r0,60(%r1)
 1097 01fc 0090     		se_mtlr %r0
 1098 01fe 18218038 		e_addi %r1,%r1,56
 1099              	.LCFI17:
 1100              		.cfi_def_cfa_offset 0
 1101 0202 0004     		se_blr
 1102              		.cfi_endproc
 1103              	.LFE8:
 1104              		.size	xQueueReceive, .-xQueueReceive
 1105              		.section	.text.xQueueSemaphoreTake,"axv",@progbits
 1106              		.align 1
 1107              		.p2align 4,,15
 1108              		.globl xQueueSemaphoreTake
 1109              		.type	xQueueSemaphoreTake, @function
 1110              	xQueueSemaphoreTake:
 1111              	.LFB9:
 1112              		.loc 1 1415 0
 1113              		.cfi_startproc
 1114 0000 182106D0 		e_stwu %r1,-48(%r1)
 1115              	.LCFI18:
 1116              		.cfi_def_cfa_offset 48
 1117 0004 0080     		se_mflr %r0
 1118 0006 DD01     		se_stw %r0,52(%r1)
 1119              		.cfi_offset 65, 4
 1120 0008 DA31     		se_stw %r3,40(%r1)
 1121 000a DB41     		se_stw %r4,44(%r1)
 1122              		.loc 1 1416 0
 1123 000c 4807     		se_li %r7,0
 1124 000e D271     		se_stw %r7,8(%r1)
 1125              		.loc 1 1418 0
 1126 0010 CA71     		se_lwz %r7,40(%r1)
 1127 0012 D471     		se_stw %r7,16(%r1)
 1128              		.loc 1 1421 0
 1129 0014 4807     		se_li %r7,0
 1130 0016 D371     		se_stw %r7,12(%r1)
 1131              	.L76:
 1132              		.loc 1 1444 0
 1133 0018 78000001 		e_bl vTaskEnterCritical
 1134              	.LBB6:
 1135              		.loc 1 1448 0
 1136 001c C471     		se_lwz %r7,16(%r1)
 1137 001e CE77     		se_lwz %r7,56(%r7)
 1138 0020 D571     		se_stw %r7,20(%r1)
 1139              		.loc 1 1452 0
 1140 0022 C571     		se_lwz %r7,20(%r1)
GAS LISTING C:\Users\bayra\AppData\Local\Temp\ccOqRaY7.s 			page 21


 1141 0024 2A07     		se_cmpi %r7,0
 1142 0026 7F800020 		e_mcrf %cr7,%cr0
 1143 002a 7CE00026 		mfcr %r7
 1144 002e 74E7E007 		e_rlwinm %r7,%r7,28,0xf0000000
 1145 0032 7CE80120 		mtcrf 128,%r7
 1146 0036 7A12007A 		e_beq %cr0,.L62
 1147              		.loc 1 1458 0
 1148 003a C571     		se_lwz %r7,20(%r1)
 1149 003c 18C784FF 		e_addi %r6,%r7,-1
 1150 0040 C471     		se_lwz %r7,16(%r1)
 1151 0042 DE67     		se_stw %r6,56(%r7)
 1152              		.loc 1 1462 0
 1153 0044 C471     		se_lwz %r7,16(%r1)
 1154 0046 C077     		se_lwz %r7,0(%r7)
 1155 0048 2A07     		se_cmpi %r7,0
 1156 004a 7F800020 		e_mcrf %cr7,%cr0
 1157 004e 7CE00026 		mfcr %r7
 1158 0052 74E7E007 		e_rlwinm %r7,%r7,28,0xf0000000
 1159 0056 7CE80120 		mtcrf 128,%r7
 1160 005a 7A02000E 		e_bne %cr0,.L63
 1161              		.loc 1 1466 0
 1162 005e 78000001 		e_bl pvTaskIncrementMutexHeldCount
 1163 0062 0136     		se_mr %r6,%r3
 1164 0064 C471     		se_lwz %r7,16(%r1)
 1165 0066 D267     		se_stw %r6,8(%r7)
 1166              	.L63:
 1167              		.loc 1 1477 0
 1168 0068 C471     		se_lwz %r7,16(%r1)
 1169 006a C477     		se_lwz %r7,16(%r7)
 1170 006c 2A07     		se_cmpi %r7,0
 1171 006e 7F800020 		e_mcrf %cr7,%cr0
 1172 0072 7CE00026 		mfcr %r7
 1173 0076 74E7E007 		e_rlwinm %r7,%r7,28,0xf0000000
 1174 007a 7CE80120 		mtcrf 128,%r7
 1175 007e 7A120028 		e_beq %cr0,.L64
 1176              		.loc 1 1479 0
 1177 0082 C471     		se_lwz %r7,16(%r1)
 1178 0084 20F7     		se_addi %r7,16
 1179 0086 0173     		se_mr %r3,%r7
 1180 0088 78000001 		e_bl xTaskRemoveFromEventList
 1181 008c 0137     		se_mr %r7,%r3
 1182 008e 2A07     		se_cmpi %r7,0
 1183 0090 7F800020 		e_mcrf %cr7,%cr0
 1184 0094 7CE00026 		mfcr %r7
 1185 0098 74E7E007 		e_rlwinm %r7,%r7,28,0xf0000000
 1186 009c 7CE80120 		mtcrf 128,%r7
 1187 00a0 7A120006 		e_beq %cr0,.L64
 1188              		.loc 1 1481 0
 1189              	 # 1481 "./components/spc5_freertos_component_rla/lib/src/queue.c" 1
 1190 00a4 0002     		se_sc
 1191              	 # 0 "" 2
 1192              	.L64:
 1193              		.loc 1 1493 0
 1194 00a6 78000001 		e_bl vTaskExitCritical
 1195              		.loc 1 1494 0
 1196 00aa 4817     		se_li %r7,1
 1197 00ac 780001CC 		e_b .L77
GAS LISTING C:\Users\bayra\AppData\Local\Temp\ccOqRaY7.s 			page 22


 1198              	.L62:
 1199              		.loc 1 1498 0
 1200 00b0 CB71     		se_lwz %r7,44(%r1)
 1201 00b2 2A07     		se_cmpi %r7,0
 1202 00b4 7F800020 		e_mcrf %cr7,%cr0
 1203 00b8 7CE00026 		mfcr %r7
 1204 00bc 74E7E007 		e_rlwinm %r7,%r7,28,0xf0000000
 1205 00c0 7CE80120 		mtcrf 128,%r7
 1206 00c4 7A02000E 		e_bne %cr0,.L66
 1207              		.loc 1 1511 0
 1208 00c8 78000001 		e_bl vTaskExitCritical
 1209              		.loc 1 1513 0
 1210 00cc 4807     		se_li %r7,0
 1211 00ce 780001AA 		e_b .L77
 1212              	.L66:
 1213              		.loc 1 1515 0
 1214 00d2 C271     		se_lwz %r7,8(%r1)
 1215 00d4 2A07     		se_cmpi %r7,0
 1216 00d6 7F800020 		e_mcrf %cr7,%cr0
 1217 00da 7CE00026 		mfcr %r7
 1218 00de 74E7E007 		e_rlwinm %r7,%r7,28,0xf0000000
 1219 00e2 7CE80120 		mtcrf 128,%r7
 1220 00e6 7A020012 		e_bne %cr0,.L67
 1221              		.loc 1 1519 0
 1222 00ea 18E1801C 		e_addi %r7,%r1,28
 1223 00ee 0173     		se_mr %r3,%r7
 1224 00f0 78000001 		e_bl vTaskInternalSetTimeOutState
 1225              		.loc 1 1520 0
 1226 00f4 4817     		se_li %r7,1
 1227 00f6 D271     		se_stw %r7,8(%r1)
 1228              	.L67:
 1229              	.LBE6:
 1230              		.loc 1 1529 0
 1231 00f8 78000001 		e_bl vTaskExitCritical
 1232              		.loc 1 1534 0
 1233 00fc 78000001 		e_bl vTaskSuspendAll
 1234              		.loc 1 1535 0
 1235 0100 78000001 		e_bl vTaskEnterCritical
 1236 0104 C471     		se_lwz %r7,16(%r1)
 1237 0106 30E70044 		e_lbz %r7,68(%r7)
 1238 010a 7CE60774 		extsb %r6,%r7
 1239 010e 2C07     		se_bmaski %r7,0
 1240 0110 7F863800 		cmp %cr7,%r6,%r7
 1241 0114 7CE00026 		mfcr %r7
 1242 0118 74E7E007 		e_rlwinm %r7,%r7,28,0xf0000000
 1243 011c 7CE80120 		mtcrf 128,%r7
 1244 0120 7A02000C 		e_bne %cr0,.L68
 1245              		.loc 1 1535 0 is_stmt 0 discriminator 1
 1246 0124 C471     		se_lwz %r7,16(%r1)
 1247 0126 4806     		se_li %r6,0
 1248 0128 34C70044 		e_stb %r6,68(%r7)
 1249              	.L68:
 1250              		.loc 1 1535 0 discriminator 3
 1251 012c C471     		se_lwz %r7,16(%r1)
 1252 012e 30E70045 		e_lbz %r7,69(%r7)
 1253 0132 7CE60774 		extsb %r6,%r7
 1254 0136 2C07     		se_bmaski %r7,0
GAS LISTING C:\Users\bayra\AppData\Local\Temp\ccOqRaY7.s 			page 23


 1255 0138 7F863800 		cmp %cr7,%r6,%r7
 1256 013c 7CE00026 		mfcr %r7
 1257 0140 74E7E007 		e_rlwinm %r7,%r7,28,0xf0000000
 1258 0144 7CE80120 		mtcrf 128,%r7
 1259 0148 7A02000C 		e_bne %cr0,.L69
 1260              		.loc 1 1535 0 discriminator 4
 1261 014c C471     		se_lwz %r7,16(%r1)
 1262 014e 4806     		se_li %r6,0
 1263 0150 34C70045 		e_stb %r6,69(%r7)
 1264              	.L69:
 1265              		.loc 1 1535 0 discriminator 6
 1266 0154 78000001 		e_bl vTaskExitCritical
 1267              		.loc 1 1538 0 is_stmt 1 discriminator 6
 1268 0158 18C1801C 		e_addi %r6,%r1,28
 1269 015c 18E1802C 		e_addi %r7,%r1,44
 1270 0160 0163     		se_mr %r3,%r6
 1271 0162 0174     		se_mr %r4,%r7
 1272 0164 78000001 		e_bl xTaskCheckForTimeOut
 1273 0168 0137     		se_mr %r7,%r3
 1274 016a 2A07     		se_cmpi %r7,0
 1275 016c 7F800020 		e_mcrf %cr7,%cr0
 1276 0170 7CE00026 		mfcr %r7
 1277 0174 74E7E007 		e_rlwinm %r7,%r7,28,0xf0000000
 1278 0178 7CE80120 		mtcrf 128,%r7
 1279 017c 7A020096 		e_bne %cr0,.L70
 1280              		.loc 1 1544 0
 1281 0180 C431     		se_lwz %r3,16(%r1)
 1282 0182 78000001 		e_bl prvIsQueueEmpty
 1283 0186 0137     		se_mr %r7,%r3
 1284 0188 2A07     		se_cmpi %r7,0
 1285 018a 7F800020 		e_mcrf %cr7,%cr0
 1286 018e 7CE00026 		mfcr %r7
 1287 0192 74E7E007 		e_rlwinm %r7,%r7,28,0xf0000000
 1288 0196 7CE80120 		mtcrf 128,%r7
 1289 019a 7A12006A 		e_beq %cr0,.L71
 1290              		.loc 1 1550 0
 1291 019e C471     		se_lwz %r7,16(%r1)
 1292 01a0 C077     		se_lwz %r7,0(%r7)
 1293 01a2 2A07     		se_cmpi %r7,0
 1294 01a4 7F800020 		e_mcrf %cr7,%cr0
 1295 01a8 7CE00026 		mfcr %r7
 1296 01ac 74E7E007 		e_rlwinm %r7,%r7,28,0xf0000000
 1297 01b0 7CE80120 		mtcrf 128,%r7
 1298 01b4 7A020018 		e_bne %cr0,.L72
 1299              		.loc 1 1552 0
 1300 01b8 78000001 		e_bl vTaskEnterCritical
 1301              		.loc 1 1554 0
 1302 01bc C471     		se_lwz %r7,16(%r1)
 1303 01be C277     		se_lwz %r7,8(%r7)
 1304 01c0 0173     		se_mr %r3,%r7
 1305 01c2 78000001 		e_bl xTaskPriorityInherit
 1306 01c6 D331     		se_stw %r3,12(%r1)
 1307              		.loc 1 1556 0
 1308 01c8 78000001 		e_bl vTaskExitCritical
 1309              	.L72:
 1310              		.loc 1 1565 0
 1311 01cc C471     		se_lwz %r7,16(%r1)
GAS LISTING C:\Users\bayra\AppData\Local\Temp\ccOqRaY7.s 			page 24


 1312 01ce 18C78024 		e_addi %r6,%r7,36
 1313 01d2 CB71     		se_lwz %r7,44(%r1)
 1314 01d4 0163     		se_mr %r3,%r6
 1315 01d6 0174     		se_mr %r4,%r7
 1316 01d8 78000001 		e_bl vTaskPlaceOnEventList
 1317              		.loc 1 1566 0
 1318 01dc C431     		se_lwz %r3,16(%r1)
 1319 01de 78000001 		e_bl prvUnlockQueue
 1320              		.loc 1 1567 0
 1321 01e2 78000001 		e_bl xTaskResumeAll
 1322 01e6 0137     		se_mr %r7,%r3
 1323 01e8 2A07     		se_cmpi %r7,0
 1324 01ea 7F800020 		e_mcrf %cr7,%cr0
 1325 01ee 7CE00026 		mfcr %r7
 1326 01f2 74E7E007 		e_rlwinm %r7,%r7,28,0xf0000000
 1327 01f6 7CE80120 		mtcrf 128,%r7
 1328 01fa 7A02007A 		e_bne %cr0,.L74
 1329              		.loc 1 1569 0
 1330              	 # 1569 "./components/spc5_freertos_component_rla/lib/src/queue.c" 1
 1331 01fe 0002     		se_sc
 1332              	 # 0 "" 2
 1333 0200 78000074 		e_b .L74
 1334              	.L71:
 1335              		.loc 1 1580 0
 1336 0204 C431     		se_lwz %r3,16(%r1)
 1337 0206 78000001 		e_bl prvUnlockQueue
 1338              		.loc 1 1581 0
 1339 020a 78000001 		e_bl xTaskResumeAll
 1340 020e 79FFFE0A 		e_b .L76
 1341              	.L70:
 1342              		.loc 1 1587 0
 1343 0212 C431     		se_lwz %r3,16(%r1)
 1344 0214 78000001 		e_bl prvUnlockQueue
 1345              		.loc 1 1588 0
 1346 0218 78000001 		e_bl xTaskResumeAll
 1347              		.loc 1 1594 0
 1348 021c C431     		se_lwz %r3,16(%r1)
 1349 021e 78000001 		e_bl prvIsQueueEmpty
 1350 0222 0137     		se_mr %r7,%r3
 1351 0224 2A07     		se_cmpi %r7,0
 1352 0226 7F800020 		e_mcrf %cr7,%cr0
 1353 022a 7CE00026 		mfcr %r7
 1354 022e 74E7E007 		e_rlwinm %r7,%r7,28,0xf0000000
 1355 0232 7CE80120 		mtcrf 128,%r7
 1356 0236 7A12003E 		e_beq %cr0,.L74
 1357              		.loc 1 1601 0
 1358 023a C371     		se_lwz %r7,12(%r1)
 1359 023c 2A07     		se_cmpi %r7,0
 1360 023e 7F800020 		e_mcrf %cr7,%cr0
 1361 0242 7CE00026 		mfcr %r7
 1362 0246 74E7E007 		e_rlwinm %r7,%r7,28,0xf0000000
 1363 024a 7CE80120 		mtcrf 128,%r7
 1364 024e 7A120020 		e_beq %cr0,.L75
 1365              		.loc 1 1603 0
 1366 0252 78000001 		e_bl vTaskEnterCritical
 1367              	.LBB7:
 1368              		.loc 1 1612 0
GAS LISTING C:\Users\bayra\AppData\Local\Temp\ccOqRaY7.s 			page 25


 1369 0256 C431     		se_lwz %r3,16(%r1)
 1370 0258 78000001 		e_bl prvGetDisinheritPriorityAfterTimeout
 1371 025c D631     		se_stw %r3,24(%r1)
 1372              		.loc 1 1613 0
 1373 025e C471     		se_lwz %r7,16(%r1)
 1374 0260 C277     		se_lwz %r7,8(%r7)
 1375 0262 0173     		se_mr %r3,%r7
 1376 0264 C641     		se_lwz %r4,24(%r1)
 1377 0266 78000001 		e_bl vTaskPriorityDisinheritAfterTimeout
 1378              	.LBE7:
 1379              		.loc 1 1615 0
 1380 026a 78000001 		e_bl vTaskExitCritical
 1381              	.L75:
 1382              		.loc 1 1621 0
 1383 026e 4807     		se_li %r7,0
 1384 0270 78000008 		e_b .L77
 1385              	.L74:
 1386              		.loc 1 1628 0 discriminator 2
 1387 0274 79FFFDA4 		e_b .L76
 1388              	.L77:
 1389              		.loc 1 1629 0 discriminator 3
 1390 0278 0173     		se_mr %r3,%r7
 1391 027a CD01     		se_lwz %r0,52(%r1)
 1392 027c 0090     		se_mtlr %r0
 1393 027e 18218030 		e_addi %r1,%r1,48
 1394              	.LCFI19:
 1395              		.cfi_def_cfa_offset 0
 1396 0282 0004     		se_blr
 1397              		.cfi_endproc
 1398              	.LFE9:
 1399              		.size	xQueueSemaphoreTake, .-xQueueSemaphoreTake
 1400              		.section	.text.xQueuePeek,"axv",@progbits
 1401              		.align 1
 1402              		.p2align 4,,15
 1403              		.globl xQueuePeek
 1404              		.type	xQueuePeek, @function
 1405              	xQueuePeek:
 1406              	.LFB10:
 1407              		.loc 1 1633 0
 1408              		.cfi_startproc
 1409 0000 182106C8 		e_stwu %r1,-56(%r1)
 1410              	.LCFI20:
 1411              		.cfi_def_cfa_offset 56
 1412 0004 0080     		se_mflr %r0
 1413 0006 DF01     		se_stw %r0,60(%r1)
 1414              		.cfi_offset 65, 4
 1415 0008 DA31     		se_stw %r3,40(%r1)
 1416 000a DB41     		se_stw %r4,44(%r1)
 1417 000c DC51     		se_stw %r5,48(%r1)
 1418              		.loc 1 1634 0
 1419 000e 4807     		se_li %r7,0
 1420 0010 D271     		se_stw %r7,8(%r1)
 1421              		.loc 1 1637 0
 1422 0012 CA71     		se_lwz %r7,40(%r1)
 1423 0014 D371     		se_stw %r7,12(%r1)
 1424              	.L90:
 1425              		.loc 1 1659 0
GAS LISTING C:\Users\bayra\AppData\Local\Temp\ccOqRaY7.s 			page 26


 1426 0016 78000001 		e_bl vTaskEnterCritical
 1427              	.LBB8:
 1428              		.loc 1 1661 0
 1429 001a C371     		se_lwz %r7,12(%r1)
 1430 001c CE77     		se_lwz %r7,56(%r7)
 1431 001e D471     		se_stw %r7,16(%r1)
 1432              		.loc 1 1665 0
 1433 0020 C471     		se_lwz %r7,16(%r1)
 1434 0022 2A07     		se_cmpi %r7,0
 1435 0024 7F800020 		e_mcrf %cr7,%cr0
 1436 0028 7CE00026 		mfcr %r7
 1437 002c 74E7E007 		e_rlwinm %r7,%r7,28,0xf0000000
 1438 0030 7CE80120 		mtcrf 128,%r7
 1439 0034 7A120062 		e_beq %cr0,.L79
 1440              		.loc 1 1670 0
 1441 0038 C371     		se_lwz %r7,12(%r1)
 1442 003a C377     		se_lwz %r7,12(%r7)
 1443 003c D571     		se_stw %r7,20(%r1)
 1444              		.loc 1 1672 0
 1445 003e C331     		se_lwz %r3,12(%r1)
 1446 0040 CB41     		se_lwz %r4,44(%r1)
 1447 0042 78000001 		e_bl prvCopyDataFromQueue
 1448              		.loc 1 1676 0
 1449 0046 C371     		se_lwz %r7,12(%r1)
 1450 0048 C561     		se_lwz %r6,20(%r1)
 1451 004a D367     		se_stw %r6,12(%r7)
 1452              		.loc 1 1680 0
 1453 004c C371     		se_lwz %r7,12(%r1)
 1454 004e C977     		se_lwz %r7,36(%r7)
 1455 0050 2A07     		se_cmpi %r7,0
 1456 0052 7F800020 		e_mcrf %cr7,%cr0
 1457 0056 7CE00026 		mfcr %r7
 1458 005a 74E7E007 		e_rlwinm %r7,%r7,28,0xf0000000
 1459 005e 7CE80120 		mtcrf 128,%r7
 1460 0062 7A12002A 		e_beq %cr0,.L80
 1461              		.loc 1 1682 0
 1462 0066 C371     		se_lwz %r7,12(%r1)
 1463 0068 18E78024 		e_addi %r7,%r7,36
 1464 006c 0173     		se_mr %r3,%r7
 1465 006e 78000001 		e_bl xTaskRemoveFromEventList
 1466 0072 0137     		se_mr %r7,%r3
 1467 0074 2A07     		se_cmpi %r7,0
 1468 0076 7F800020 		e_mcrf %cr7,%cr0
 1469 007a 7CE00026 		mfcr %r7
 1470 007e 74E7E007 		e_rlwinm %r7,%r7,28,0xf0000000
 1471 0082 7CE80120 		mtcrf 128,%r7
 1472 0086 7A120006 		e_beq %cr0,.L80
 1473              		.loc 1 1685 0
 1474              	 # 1685 "./components/spc5_freertos_component_rla/lib/src/queue.c" 1
 1475 008a 0002     		se_sc
 1476              	 # 0 "" 2
 1477              	.L80:
 1478              		.loc 1 1697 0
 1479 008c 78000001 		e_bl vTaskExitCritical
 1480              		.loc 1 1698 0
 1481 0090 4817     		se_li %r7,1
 1482 0092 7800016A 		e_b .L91
GAS LISTING C:\Users\bayra\AppData\Local\Temp\ccOqRaY7.s 			page 27


 1483              	.L79:
 1484              		.loc 1 1702 0
 1485 0096 CC71     		se_lwz %r7,48(%r1)
 1486 0098 2A07     		se_cmpi %r7,0
 1487 009a 7F800020 		e_mcrf %cr7,%cr0
 1488 009e 7CE00026 		mfcr %r7
 1489 00a2 74E7E007 		e_rlwinm %r7,%r7,28,0xf0000000
 1490 00a6 7CE80120 		mtcrf 128,%r7
 1491 00aa 7A02000E 		e_bne %cr0,.L82
 1492              		.loc 1 1706 0
 1493 00ae 78000001 		e_bl vTaskExitCritical
 1494              		.loc 1 1708 0
 1495 00b2 4807     		se_li %r7,0
 1496 00b4 78000148 		e_b .L91
 1497              	.L82:
 1498              		.loc 1 1710 0
 1499 00b8 C271     		se_lwz %r7,8(%r1)
 1500 00ba 2A07     		se_cmpi %r7,0
 1501 00bc 7F800020 		e_mcrf %cr7,%cr0
 1502 00c0 7CE00026 		mfcr %r7
 1503 00c4 74E7E007 		e_rlwinm %r7,%r7,28,0xf0000000
 1504 00c8 7CE80120 		mtcrf 128,%r7
 1505 00cc 7A020012 		e_bne %cr0,.L83
 1506              		.loc 1 1715 0
 1507 00d0 18E18018 		e_addi %r7,%r1,24
 1508 00d4 0173     		se_mr %r3,%r7
 1509 00d6 78000001 		e_bl vTaskInternalSetTimeOutState
 1510              		.loc 1 1716 0
 1511 00da 4817     		se_li %r7,1
 1512 00dc D271     		se_stw %r7,8(%r1)
 1513              	.L83:
 1514              	.LBE8:
 1515              		.loc 1 1725 0
 1516 00de 78000001 		e_bl vTaskExitCritical
 1517              		.loc 1 1730 0
 1518 00e2 78000001 		e_bl vTaskSuspendAll
 1519              		.loc 1 1731 0
 1520 00e6 78000001 		e_bl vTaskEnterCritical
 1521 00ea C371     		se_lwz %r7,12(%r1)
 1522 00ec 30E70044 		e_lbz %r7,68(%r7)
 1523 00f0 7CE60774 		extsb %r6,%r7
 1524 00f4 2C07     		se_bmaski %r7,0
 1525 00f6 7F863800 		cmp %cr7,%r6,%r7
 1526 00fa 7CE00026 		mfcr %r7
 1527 00fe 74E7E007 		e_rlwinm %r7,%r7,28,0xf0000000
 1528 0102 7CE80120 		mtcrf 128,%r7
 1529 0106 7A02000C 		e_bne %cr0,.L84
 1530              		.loc 1 1731 0 is_stmt 0 discriminator 1
 1531 010a C371     		se_lwz %r7,12(%r1)
 1532 010c 4806     		se_li %r6,0
 1533 010e 34C70044 		e_stb %r6,68(%r7)
 1534              	.L84:
 1535              		.loc 1 1731 0 discriminator 3
 1536 0112 C371     		se_lwz %r7,12(%r1)
 1537 0114 30E70045 		e_lbz %r7,69(%r7)
 1538 0118 7CE60774 		extsb %r6,%r7
 1539 011c 2C07     		se_bmaski %r7,0
GAS LISTING C:\Users\bayra\AppData\Local\Temp\ccOqRaY7.s 			page 28


 1540 011e 7F863800 		cmp %cr7,%r6,%r7
 1541 0122 7CE00026 		mfcr %r7
 1542 0126 74E7E007 		e_rlwinm %r7,%r7,28,0xf0000000
 1543 012a 7CE80120 		mtcrf 128,%r7
 1544 012e 7A02000C 		e_bne %cr0,.L85
 1545              		.loc 1 1731 0 discriminator 4
 1546 0132 C371     		se_lwz %r7,12(%r1)
 1547 0134 4806     		se_li %r6,0
 1548 0136 34C70045 		e_stb %r6,69(%r7)
 1549              	.L85:
 1550              		.loc 1 1731 0 discriminator 6
 1551 013a 78000001 		e_bl vTaskExitCritical
 1552              		.loc 1 1734 0 is_stmt 1 discriminator 6
 1553 013e 18C18018 		e_addi %r6,%r1,24
 1554 0142 18E18030 		e_addi %r7,%r1,48
 1555 0146 0163     		se_mr %r3,%r6
 1556 0148 0174     		se_mr %r4,%r7
 1557 014a 78000001 		e_bl xTaskCheckForTimeOut
 1558 014e 0137     		se_mr %r7,%r3
 1559 0150 2A07     		se_cmpi %r7,0
 1560 0152 7F800020 		e_mcrf %cr7,%cr0
 1561 0156 7CE00026 		mfcr %r7
 1562 015a 74E7E007 		e_rlwinm %r7,%r7,28,0xf0000000
 1563 015e 7CE80120 		mtcrf 128,%r7
 1564 0162 7A020068 		e_bne %cr0,.L86
 1565              		.loc 1 1738 0
 1566 0166 C331     		se_lwz %r3,12(%r1)
 1567 0168 78000001 		e_bl prvIsQueueEmpty
 1568 016c 0137     		se_mr %r7,%r3
 1569 016e 2A07     		se_cmpi %r7,0
 1570 0170 7F800020 		e_mcrf %cr7,%cr0
 1571 0174 7CE00026 		mfcr %r7
 1572 0178 74E7E007 		e_rlwinm %r7,%r7,28,0xf0000000
 1573 017c 7CE80120 		mtcrf 128,%r7
 1574 0180 7A12003C 		e_beq %cr0,.L87
 1575              		.loc 1 1741 0
 1576 0184 C371     		se_lwz %r7,12(%r1)
 1577 0186 18C78024 		e_addi %r6,%r7,36
 1578 018a CC71     		se_lwz %r7,48(%r1)
 1579 018c 0163     		se_mr %r3,%r6
 1580 018e 0174     		se_mr %r4,%r7
 1581 0190 78000001 		e_bl vTaskPlaceOnEventList
 1582              		.loc 1 1742 0
 1583 0194 C331     		se_lwz %r3,12(%r1)
 1584 0196 78000001 		e_bl prvUnlockQueue
 1585              		.loc 1 1743 0
 1586 019a 78000001 		e_bl xTaskResumeAll
 1587 019e 0137     		se_mr %r7,%r3
 1588 01a0 2A07     		se_cmpi %r7,0
 1589 01a2 7F800020 		e_mcrf %cr7,%cr0
 1590 01a6 7CE00026 		mfcr %r7
 1591 01aa 74E7E007 		e_rlwinm %r7,%r7,28,0xf0000000
 1592 01ae 7CE80120 		mtcrf 128,%r7
 1593 01b2 7A020046 		e_bne %cr0,.L89
 1594              		.loc 1 1745 0
 1595              	 # 1745 "./components/spc5_freertos_component_rla/lib/src/queue.c" 1
 1596 01b6 0002     		se_sc
GAS LISTING C:\Users\bayra\AppData\Local\Temp\ccOqRaY7.s 			page 29


 1597              	 # 0 "" 2
 1598 01b8 78000040 		e_b .L89
 1599              	.L87:
 1600              		.loc 1 1756 0
 1601 01bc C331     		se_lwz %r3,12(%r1)
 1602 01be 78000001 		e_bl prvUnlockQueue
 1603              		.loc 1 1757 0
 1604 01c2 78000001 		e_bl xTaskResumeAll
 1605 01c6 79FFFE50 		e_b .L90
 1606              	.L86:
 1607              		.loc 1 1764 0
 1608 01ca C331     		se_lwz %r3,12(%r1)
 1609 01cc 78000001 		e_bl prvUnlockQueue
 1610              		.loc 1 1765 0
 1611 01d0 78000001 		e_bl xTaskResumeAll
 1612              		.loc 1 1767 0
 1613 01d4 C331     		se_lwz %r3,12(%r1)
 1614 01d6 78000001 		e_bl prvIsQueueEmpty
 1615 01da 0137     		se_mr %r7,%r3
 1616 01dc 2A07     		se_cmpi %r7,0
 1617 01de 7F800020 		e_mcrf %cr7,%cr0
 1618 01e2 7CE00026 		mfcr %r7
 1619 01e6 74E7E007 		e_rlwinm %r7,%r7,28,0xf0000000
 1620 01ea 7CE80120 		mtcrf 128,%r7
 1621 01ee 7A12000A 		e_beq %cr0,.L89
 1622              		.loc 1 1770 0
 1623 01f2 4807     		se_li %r7,0
 1624 01f4 78000008 		e_b .L91
 1625              	.L89:
 1626              		.loc 1 1777 0 discriminator 2
 1627 01f8 79FFFE1E 		e_b .L90
 1628              	.L91:
 1629              		.loc 1 1778 0 discriminator 3
 1630 01fc 0173     		se_mr %r3,%r7
 1631 01fe CF01     		se_lwz %r0,60(%r1)
 1632 0200 0090     		se_mtlr %r0
 1633 0202 18218038 		e_addi %r1,%r1,56
 1634              	.LCFI21:
 1635              		.cfi_def_cfa_offset 0
 1636 0206 0004     		se_blr
 1637              		.cfi_endproc
 1638              	.LFE10:
 1639              		.size	xQueuePeek, .-xQueuePeek
 1640              		.section	.text.xQueueReceiveFromISR,"axv",@progbits
 1641              		.align 1
 1642              		.p2align 4,,15
 1643              		.globl xQueueReceiveFromISR
 1644              		.type	xQueueReceiveFromISR, @function
 1645              	xQueueReceiveFromISR:
 1646              	.LFB11:
 1647              		.loc 1 1782 0
 1648              		.cfi_startproc
 1649 0000 182106C8 		e_stwu %r1,-56(%r1)
 1650              	.LCFI22:
 1651              		.cfi_def_cfa_offset 56
 1652 0004 0080     		se_mflr %r0
 1653 0006 DF01     		se_stw %r0,60(%r1)
GAS LISTING C:\Users\bayra\AppData\Local\Temp\ccOqRaY7.s 			page 30


 1654              		.cfi_offset 65, 4
 1655 0008 DA31     		se_stw %r3,40(%r1)
 1656 000a DB41     		se_stw %r4,44(%r1)
 1657 000c DC51     		se_stw %r5,48(%r1)
 1658              		.loc 1 1785 0
 1659 000e CA71     		se_lwz %r7,40(%r1)
 1660 0010 D371     		se_stw %r7,12(%r1)
 1661              		.loc 1 1806 0
 1662 0012 4807     		se_li %r7,0
 1663 0014 D471     		se_stw %r7,16(%r1)
 1664              	.LBB9:
 1665              		.loc 1 1808 0
 1666 0016 C371     		se_lwz %r7,12(%r1)
 1667 0018 CE77     		se_lwz %r7,56(%r7)
 1668 001a D571     		se_stw %r7,20(%r1)
 1669              		.loc 1 1811 0
 1670 001c C571     		se_lwz %r7,20(%r1)
 1671 001e 2A07     		se_cmpi %r7,0
 1672 0020 7F800020 		e_mcrf %cr7,%cr0
 1673 0024 7CE00026 		mfcr %r7
 1674 0028 74E7E007 		e_rlwinm %r7,%r7,28,0xf0000000
 1675 002c 7CE80120 		mtcrf 128,%r7
 1676 0030 7A1200B8 		e_beq %cr0,.L93
 1677              	.LBB10:
 1678              		.loc 1 1813 0
 1679 0034 C371     		se_lwz %r7,12(%r1)
 1680 0036 30E70044 		e_lbz %r7,68(%r7)
 1681 003a 34E10018 		e_stb %r7,24(%r1)
 1682              		.loc 1 1817 0
 1683 003e C331     		se_lwz %r3,12(%r1)
 1684 0040 CB41     		se_lwz %r4,44(%r1)
 1685 0042 78000001 		e_bl prvCopyDataFromQueue
 1686              		.loc 1 1818 0
 1687 0046 C571     		se_lwz %r7,20(%r1)
 1688 0048 18C784FF 		e_addi %r6,%r7,-1
 1689 004c C371     		se_lwz %r7,12(%r1)
 1690 004e DE67     		se_stw %r6,56(%r7)
 1691              		.loc 1 1824 0
 1692 0050 30E10018 		e_lbz %r7,24(%r1)
 1693 0054 7CE60774 		extsb %r6,%r7
 1694 0058 2C07     		se_bmaski %r7,0
 1695 005a 7F863800 		cmp %cr7,%r6,%r7
 1696 005e 7CE00026 		mfcr %r7
 1697 0062 74E7E007 		e_rlwinm %r7,%r7,28,0xf0000000
 1698 0066 7CE80120 		mtcrf 128,%r7
 1699 006a 7A020062 		e_bne %cr0,.L94
 1700              		.loc 1 1826 0
 1701 006e C371     		se_lwz %r7,12(%r1)
 1702 0070 C477     		se_lwz %r7,16(%r7)
 1703 0072 2A07     		se_cmpi %r7,0
 1704 0074 7F800020 		e_mcrf %cr7,%cr0
 1705 0078 7CE00026 		mfcr %r7
 1706 007c 74E7E007 		e_rlwinm %r7,%r7,28,0xf0000000
 1707 0080 7CE80120 		mtcrf 128,%r7
 1708 0084 7A12005C 		e_beq %cr0,.L95
 1709              		.loc 1 1828 0
 1710 0088 C371     		se_lwz %r7,12(%r1)
GAS LISTING C:\Users\bayra\AppData\Local\Temp\ccOqRaY7.s 			page 31


 1711 008a 20F7     		se_addi %r7,16
 1712 008c 0173     		se_mr %r3,%r7
 1713 008e 78000001 		e_bl xTaskRemoveFromEventList
 1714 0092 0137     		se_mr %r7,%r3
 1715 0094 2A07     		se_cmpi %r7,0
 1716 0096 7F800020 		e_mcrf %cr7,%cr0
 1717 009a 7CE00026 		mfcr %r7
 1718 009e 74E7E007 		e_rlwinm %r7,%r7,28,0xf0000000
 1719 00a2 7CE80120 		mtcrf 128,%r7
 1720 00a6 7A12003A 		e_beq %cr0,.L95
 1721              		.loc 1 1832 0
 1722 00aa CC71     		se_lwz %r7,48(%r1)
 1723 00ac 2A07     		se_cmpi %r7,0
 1724 00ae 7F800020 		e_mcrf %cr7,%cr0
 1725 00b2 7CE00026 		mfcr %r7
 1726 00b6 74E7E007 		e_rlwinm %r7,%r7,28,0xf0000000
 1727 00ba 7CE80120 		mtcrf 128,%r7
 1728 00be 7A120022 		e_beq %cr0,.L95
 1729              		.loc 1 1834 0
 1730 00c2 CC71     		se_lwz %r7,48(%r1)
 1731 00c4 4816     		se_li %r6,1
 1732 00c6 D067     		se_stw %r6,0(%r7)
 1733 00c8 78000018 		e_b .L95
 1734              	.L94:
 1735              		.loc 1 1855 0
 1736 00cc 30E10018 		e_lbz %r7,24(%r1)
 1737 00d0 00C7     		se_extzb %r7
 1738 00d2 2007     		se_addi %r7,1
 1739 00d4 00C7     		se_extzb %r7
 1740 00d6 7CE60774 		extsb %r6,%r7
 1741 00da C371     		se_lwz %r7,12(%r1)
 1742 00dc 34C70044 		e_stb %r6,68(%r7)
 1743              	.L95:
 1744              		.loc 1 1858 0
 1745 00e0 4817     		se_li %r7,1
 1746 00e2 D271     		se_stw %r7,8(%r1)
 1747              	.LBE10:
 1748 00e4 78000008 		e_b .L96
 1749              	.L93:
 1750              		.loc 1 1862 0
 1751 00e8 4807     		se_li %r7,0
 1752 00ea D271     		se_stw %r7,8(%r1)
 1753              	.L96:
 1754              	.LBE9:
 1755              		.loc 1 1868 0
 1756 00ec C271     		se_lwz %r7,8(%r1)
 1757              		.loc 1 1869 0
 1758 00ee 0173     		se_mr %r3,%r7
 1759 00f0 CF01     		se_lwz %r0,60(%r1)
 1760 00f2 0090     		se_mtlr %r0
 1761 00f4 18218038 		e_addi %r1,%r1,56
 1762              	.LCFI23:
 1763              		.cfi_def_cfa_offset 0
 1764 00f8 0004     		se_blr
 1765              		.cfi_endproc
 1766              	.LFE11:
 1767              		.size	xQueueReceiveFromISR, .-xQueueReceiveFromISR
GAS LISTING C:\Users\bayra\AppData\Local\Temp\ccOqRaY7.s 			page 32


 1768              		.section	.text.xQueuePeekFromISR,"axv",@progbits
 1769              		.align 1
 1770              		.p2align 4,,15
 1771              		.globl xQueuePeekFromISR
 1772              		.type	xQueuePeekFromISR, @function
 1773              	xQueuePeekFromISR:
 1774              	.LFB12:
 1775              		.loc 1 1873 0
 1776              		.cfi_startproc
 1777 0000 182106E0 		e_stwu %r1,-32(%r1)
 1778              	.LCFI24:
 1779              		.cfi_def_cfa_offset 32
 1780 0004 0080     		se_mflr %r0
 1781 0006 D901     		se_stw %r0,36(%r1)
 1782              		.cfi_offset 65, 4
 1783 0008 D631     		se_stw %r3,24(%r1)
 1784 000a D741     		se_stw %r4,28(%r1)
 1785              		.loc 1 1877 0
 1786 000c C671     		se_lwz %r7,24(%r1)
 1787 000e D371     		se_stw %r7,12(%r1)
 1788              		.loc 1 1899 0
 1789 0010 4807     		se_li %r7,0
 1790 0012 D471     		se_stw %r7,16(%r1)
 1791              		.loc 1 1902 0
 1792 0014 C371     		se_lwz %r7,12(%r1)
 1793 0016 CE77     		se_lwz %r7,56(%r7)
 1794 0018 2A07     		se_cmpi %r7,0
 1795 001a 7F800020 		e_mcrf %cr7,%cr0
 1796 001e 7CE00026 		mfcr %r7
 1797 0022 74E7E007 		e_rlwinm %r7,%r7,28,0xf0000000
 1798 0026 7CE80120 		mtcrf 128,%r7
 1799 002a 7A120020 		e_beq %cr0,.L99
 1800              		.loc 1 1908 0
 1801 002e C371     		se_lwz %r7,12(%r1)
 1802 0030 C377     		se_lwz %r7,12(%r7)
 1803 0032 D571     		se_stw %r7,20(%r1)
 1804              		.loc 1 1909 0
 1805 0034 C331     		se_lwz %r3,12(%r1)
 1806 0036 C741     		se_lwz %r4,28(%r1)
 1807 0038 78000001 		e_bl prvCopyDataFromQueue
 1808              		.loc 1 1910 0
 1809 003c C371     		se_lwz %r7,12(%r1)
 1810 003e C561     		se_lwz %r6,20(%r1)
 1811 0040 D367     		se_stw %r6,12(%r7)
 1812              		.loc 1 1912 0
 1813 0042 4817     		se_li %r7,1
 1814 0044 D271     		se_stw %r7,8(%r1)
 1815 0046 78000008 		e_b .L100
 1816              	.L99:
 1817              		.loc 1 1916 0
 1818 004a 4807     		se_li %r7,0
 1819 004c D271     		se_stw %r7,8(%r1)
 1820              	.L100:
 1821              		.loc 1 1922 0
 1822 004e C271     		se_lwz %r7,8(%r1)
 1823              		.loc 1 1923 0
 1824 0050 0173     		se_mr %r3,%r7
GAS LISTING C:\Users\bayra\AppData\Local\Temp\ccOqRaY7.s 			page 33


 1825 0052 C901     		se_lwz %r0,36(%r1)
 1826 0054 0090     		se_mtlr %r0
 1827 0056 21F1     		se_addi %r1,32
 1828              	.LCFI25:
 1829              		.cfi_def_cfa_offset 0
 1830 0058 0004     		se_blr
 1831              		.cfi_endproc
 1832              	.LFE12:
 1833              		.size	xQueuePeekFromISR, .-xQueuePeekFromISR
 1834              		.section	.text.uxQueueMessagesWaiting,"axv",@progbits
 1835              		.align 1
 1836              		.p2align 4,,15
 1837              		.globl uxQueueMessagesWaiting
 1838              		.type	uxQueueMessagesWaiting, @function
 1839              	uxQueueMessagesWaiting:
 1840              	.LFB13:
 1841              		.loc 1 1927 0
 1842              		.cfi_startproc
 1843 0000 182106E0 		e_stwu %r1,-32(%r1)
 1844              	.LCFI26:
 1845              		.cfi_def_cfa_offset 32
 1846 0004 0080     		se_mflr %r0
 1847 0006 D901     		se_stw %r0,36(%r1)
 1848              		.cfi_offset 65, 4
 1849 0008 D631     		se_stw %r3,24(%r1)
 1850              		.loc 1 1932 0
 1851 000a 78000001 		e_bl vTaskEnterCritical
 1852              		.loc 1 1934 0
 1853 000e C671     		se_lwz %r7,24(%r1)
 1854 0010 CE77     		se_lwz %r7,56(%r7)
 1855 0012 D271     		se_stw %r7,8(%r1)
 1856              		.loc 1 1936 0
 1857 0014 78000001 		e_bl vTaskExitCritical
 1858              		.loc 1 1938 0
 1859 0018 C271     		se_lwz %r7,8(%r1)
 1860              		.loc 1 1939 0
 1861 001a 0173     		se_mr %r3,%r7
 1862 001c C901     		se_lwz %r0,36(%r1)
 1863 001e 0090     		se_mtlr %r0
 1864 0020 21F1     		se_addi %r1,32
 1865              	.LCFI27:
 1866              		.cfi_def_cfa_offset 0
 1867 0022 0004     		se_blr
 1868              		.cfi_endproc
 1869              	.LFE13:
 1870              		.size	uxQueueMessagesWaiting, .-uxQueueMessagesWaiting
 1871              		.section	.text.uxQueueSpacesAvailable,"axv",@progbits
 1872              		.align 1
 1873              		.p2align 4,,15
 1874              		.globl uxQueueSpacesAvailable
 1875              		.type	uxQueueSpacesAvailable, @function
 1876              	uxQueueSpacesAvailable:
 1877              	.LFB14:
 1878              		.loc 1 1943 0
 1879              		.cfi_startproc
 1880 0000 182106E0 		e_stwu %r1,-32(%r1)
 1881              	.LCFI28:
GAS LISTING C:\Users\bayra\AppData\Local\Temp\ccOqRaY7.s 			page 34


 1882              		.cfi_def_cfa_offset 32
 1883 0004 0080     		se_mflr %r0
 1884 0006 D901     		se_stw %r0,36(%r1)
 1885              		.cfi_offset 65, 4
 1886 0008 D631     		se_stw %r3,24(%r1)
 1887              		.loc 1 1945 0
 1888 000a C671     		se_lwz %r7,24(%r1)
 1889 000c D271     		se_stw %r7,8(%r1)
 1890              		.loc 1 1949 0
 1891 000e 78000001 		e_bl vTaskEnterCritical
 1892              		.loc 1 1951 0
 1893 0012 C271     		se_lwz %r7,8(%r1)
 1894 0014 CF67     		se_lwz %r6,60(%r7)
 1895 0016 C271     		se_lwz %r7,8(%r1)
 1896 0018 CE77     		se_lwz %r7,56(%r7)
 1897 001a 0767     		se_subf %r7, %r6
 1898 001c D371     		se_stw %r7,12(%r1)
 1899              		.loc 1 1953 0
 1900 001e 78000001 		e_bl vTaskExitCritical
 1901              		.loc 1 1955 0
 1902 0022 C371     		se_lwz %r7,12(%r1)
 1903              		.loc 1 1956 0
 1904 0024 0173     		se_mr %r3,%r7
 1905 0026 C901     		se_lwz %r0,36(%r1)
 1906 0028 0090     		se_mtlr %r0
 1907 002a 21F1     		se_addi %r1,32
 1908              	.LCFI29:
 1909              		.cfi_def_cfa_offset 0
 1910 002c 0004     		se_blr
 1911              		.cfi_endproc
 1912              	.LFE14:
 1913              		.size	uxQueueSpacesAvailable, .-uxQueueSpacesAvailable
 1914              		.section	.text.uxQueueMessagesWaitingFromISR,"axv",@progbits
 1915              		.align 1
 1916              		.p2align 4,,15
 1917              		.globl uxQueueMessagesWaitingFromISR
 1918              		.type	uxQueueMessagesWaitingFromISR, @function
 1919              	uxQueueMessagesWaitingFromISR:
 1920              	.LFB15:
 1921              		.loc 1 1960 0
 1922              		.cfi_startproc
 1923 0000 182106E0 		e_stwu %r1,-32(%r1)
 1924              	.LCFI30:
 1925              		.cfi_def_cfa_offset 32
 1926 0004 D631     		se_stw %r3,24(%r1)
 1927              		.loc 1 1962 0
 1928 0006 C671     		se_lwz %r7,24(%r1)
 1929 0008 D271     		se_stw %r7,8(%r1)
 1930              		.loc 1 1965 0
 1931 000a C271     		se_lwz %r7,8(%r1)
 1932 000c CE77     		se_lwz %r7,56(%r7)
 1933 000e D371     		se_stw %r7,12(%r1)
 1934              		.loc 1 1967 0
 1935 0010 C371     		se_lwz %r7,12(%r1)
 1936              		.loc 1 1968 0
 1937 0012 0173     		se_mr %r3,%r7
 1938 0014 21F1     		se_addi %r1,32
GAS LISTING C:\Users\bayra\AppData\Local\Temp\ccOqRaY7.s 			page 35


 1939              	.LCFI31:
 1940              		.cfi_def_cfa_offset 0
 1941 0016 0004     		se_blr
 1942              		.cfi_endproc
 1943              	.LFE15:
 1944              		.size	uxQueueMessagesWaitingFromISR, .-uxQueueMessagesWaitingFromISR
 1945              		.section	.text.vQueueDelete,"axv",@progbits
 1946              		.align 1
 1947              		.p2align 4,,15
 1948              		.globl vQueueDelete
 1949              		.type	vQueueDelete, @function
 1950              	vQueueDelete:
 1951              	.LFB16:
 1952              		.loc 1 1972 0
 1953              		.cfi_startproc
 1954 0000 182106E0 		e_stwu %r1,-32(%r1)
 1955              	.LCFI32:
 1956              		.cfi_def_cfa_offset 32
 1957 0004 0080     		se_mflr %r0
 1958 0006 D901     		se_stw %r0,36(%r1)
 1959              		.cfi_offset 65, 4
 1960 0008 D631     		se_stw %r3,24(%r1)
 1961              		.loc 1 1973 0
 1962 000a C671     		se_lwz %r7,24(%r1)
 1963 000c D271     		se_stw %r7,8(%r1)
 1964              		.loc 1 1988 0
 1965 000e C231     		se_lwz %r3,8(%r1)
 1966 0010 78000001 		e_bl vPortFree
 1967              		.loc 1 2010 0
 1968 0014 C901     		se_lwz %r0,36(%r1)
 1969 0016 0090     		se_mtlr %r0
 1970 0018 21F1     		se_addi %r1,32
 1971              	.LCFI33:
 1972              		.cfi_def_cfa_offset 0
 1973 001a 0004     		se_blr
 1974              		.cfi_endproc
 1975              	.LFE16:
 1976              		.size	vQueueDelete, .-vQueueDelete
 1977              		.section	.text.prvGetDisinheritPriorityAfterTimeout,"axv",@progbits
 1978              		.align 1
 1979              		.p2align 4,,15
 1980              		.type	prvGetDisinheritPriorityAfterTimeout, @function
 1981              	prvGetDisinheritPriorityAfterTimeout:
 1982              	.LFB17:
 1983              		.loc 1 2046 0
 1984              		.cfi_startproc
 1985 0000 182106E0 		e_stwu %r1,-32(%r1)
 1986              	.LCFI34:
 1987              		.cfi_def_cfa_offset 32
 1988 0004 D631     		se_stw %r3,24(%r1)
 1989              		.loc 1 2055 0
 1990 0006 C671     		se_lwz %r7,24(%r1)
 1991 0008 C977     		se_lwz %r7,36(%r7)
 1992 000a 2A07     		se_cmpi %r7,0
 1993 000c 7F800020 		e_mcrf %cr7,%cr0
 1994 0010 7CE00026 		mfcr %r7
 1995 0014 74E7E007 		e_rlwinm %r7,%r7,28,0xf0000000
GAS LISTING C:\Users\bayra\AppData\Local\Temp\ccOqRaY7.s 			page 36


 1996 0018 7CE80120 		mtcrf 128,%r7
 1997 001c 7A120014 		e_beq %cr0,.L110
 1998              		.loc 1 2057 0
 1999 0020 C671     		se_lwz %r7,24(%r1)
 2000 0022 CC77     		se_lwz %r7,48(%r7)
 2001 0024 C077     		se_lwz %r7,0(%r7)
 2002 0026 18E7B004 		e_subfic %r7, %r7, 4
 2003 002a D271     		se_stw %r7,8(%r1)
 2004 002c 78000008 		e_b .L111
 2005              	.L110:
 2006              		.loc 1 2061 0
 2007 0030 4807     		se_li %r7,0
 2008 0032 D271     		se_stw %r7,8(%r1)
 2009              	.L111:
 2010              		.loc 1 2064 0
 2011 0034 C271     		se_lwz %r7,8(%r1)
 2012              		.loc 1 2065 0
 2013 0036 0173     		se_mr %r3,%r7
 2014 0038 21F1     		se_addi %r1,32
 2015              	.LCFI35:
 2016              		.cfi_def_cfa_offset 0
 2017 003a 0004     		se_blr
 2018              		.cfi_endproc
 2019              	.LFE17:
 2020              		.size	prvGetDisinheritPriorityAfterTimeout, .-prvGetDisinheritPriorityAfterTimeout
 2021              		.section	.text.prvCopyDataToQueue,"axv",@progbits
 2022              		.align 1
 2023              		.p2align 4,,15
 2024              		.type	prvCopyDataToQueue, @function
 2025              	prvCopyDataToQueue:
 2026              	.LFB18:
 2027              		.loc 1 2071 0
 2028              		.cfi_startproc
 2029 0000 182106D8 		e_stwu %r1,-40(%r1)
 2030              	.LCFI36:
 2031              		.cfi_def_cfa_offset 40
 2032 0004 0080     		se_mflr %r0
 2033 0006 DB01     		se_stw %r0,44(%r1)
 2034              		.cfi_offset 65, 4
 2035 0008 D631     		se_stw %r3,24(%r1)
 2036 000a D741     		se_stw %r4,28(%r1)
 2037 000c D851     		se_stw %r5,32(%r1)
 2038              		.loc 1 2072 0
 2039 000e 4807     		se_li %r7,0
 2040 0010 D271     		se_stw %r7,8(%r1)
 2041              		.loc 1 2077 0
 2042 0012 C671     		se_lwz %r7,24(%r1)
 2043 0014 CE77     		se_lwz %r7,56(%r7)
 2044 0016 D371     		se_stw %r7,12(%r1)
 2045              		.loc 1 2079 0
 2046 0018 C671     		se_lwz %r7,24(%r1)
 2047 001a 50E70040 		e_lwz %r7,64(%r7)
 2048 001e 2A07     		se_cmpi %r7,0
 2049 0020 7F800020 		e_mcrf %cr7,%cr0
 2050 0024 7CE00026 		mfcr %r7
 2051 0028 74E7E007 		e_rlwinm %r7,%r7,28,0xf0000000
 2052 002c 7CE80120 		mtcrf 128,%r7
GAS LISTING C:\Users\bayra\AppData\Local\Temp\ccOqRaY7.s 			page 37


 2053 0030 7A020034 		e_bne %cr0,.L114
 2054              		.loc 1 2083 0
 2055 0034 C671     		se_lwz %r7,24(%r1)
 2056 0036 C077     		se_lwz %r7,0(%r7)
 2057 0038 2A07     		se_cmpi %r7,0
 2058 003a 7F800020 		e_mcrf %cr7,%cr0
 2059 003e 7CE00026 		mfcr %r7
 2060 0042 74E7E007 		e_rlwinm %r7,%r7,28,0xf0000000
 2061 0046 7CE80120 		mtcrf 128,%r7
 2062 004a 7A02010A 		e_bne %cr0,.L115
 2063              		.loc 1 2086 0
 2064 004e C671     		se_lwz %r7,24(%r1)
 2065 0050 C277     		se_lwz %r7,8(%r7)
 2066 0052 0173     		se_mr %r3,%r7
 2067 0054 78000001 		e_bl xTaskPriorityDisinherit
 2068 0058 D231     		se_stw %r3,8(%r1)
 2069              		.loc 1 2087 0
 2070 005a C671     		se_lwz %r7,24(%r1)
 2071 005c 4806     		se_li %r6,0
 2072 005e D267     		se_stw %r6,8(%r7)
 2073 0060 780000F4 		e_b .L115
 2074              	.L114:
 2075              		.loc 1 2096 0
 2076 0064 C871     		se_lwz %r7,32(%r1)
 2077 0066 2A07     		se_cmpi %r7,0
 2078 0068 7F800020 		e_mcrf %cr7,%cr0
 2079 006c 7CE00026 		mfcr %r7
 2080 0070 74E7E007 		e_rlwinm %r7,%r7,28,0xf0000000
 2081 0074 7CE80120 		mtcrf 128,%r7
 2082 0078 7A020050 		e_bne %cr0,.L116
 2083              		.loc 1 2098 0
 2084 007c C671     		se_lwz %r7,24(%r1)
 2085 007e C167     		se_lwz %r6,4(%r7)
 2086 0080 C671     		se_lwz %r7,24(%r1)
 2087 0082 50E70040 		e_lwz %r7,64(%r7)
 2088 0086 0163     		se_mr %r3,%r6
 2089 0088 C741     		se_lwz %r4,28(%r1)
 2090 008a 0175     		se_mr %r5,%r7
 2091 008c 78000001 		e_bl memcpy
 2092              		.loc 1 2099 0
 2093 0090 C671     		se_lwz %r7,24(%r1)
 2094 0092 C167     		se_lwz %r6,4(%r7)
 2095 0094 C671     		se_lwz %r7,24(%r1)
 2096 0096 50E70040 		e_lwz %r7,64(%r7)
 2097 009a 0476     		se_add %r6,%r7
 2098 009c C671     		se_lwz %r7,24(%r1)
 2099 009e D167     		se_stw %r6,4(%r7)
 2100              		.loc 1 2100 0
 2101 00a0 C671     		se_lwz %r7,24(%r1)
 2102 00a2 C167     		se_lwz %r6,4(%r7)
 2103 00a4 C671     		se_lwz %r7,24(%r1)
 2104 00a6 C277     		se_lwz %r7,8(%r7)
 2105 00a8 7F863840 		cmpl %cr7,%r6,%r7
 2106 00ac 7CE00026 		mfcr %r7
 2107 00b0 74E7E007 		e_rlwinm %r7,%r7,28,0xf0000000
 2108 00b4 7CE80120 		mtcrf 128,%r7
 2109 00b8 7A10009C 		e_blt %cr0,.L115
GAS LISTING C:\Users\bayra\AppData\Local\Temp\ccOqRaY7.s 			page 38


 2110              		.loc 1 2102 0
 2111 00bc C671     		se_lwz %r7,24(%r1)
 2112 00be C067     		se_lwz %r6,0(%r7)
 2113 00c0 C671     		se_lwz %r7,24(%r1)
 2114 00c2 D167     		se_stw %r6,4(%r7)
 2115 00c4 78000090 		e_b .L115
 2116              	.L116:
 2117              		.loc 1 2111 0
 2118 00c8 C671     		se_lwz %r7,24(%r1)
 2119 00ca C367     		se_lwz %r6,12(%r7)
 2120 00cc C671     		se_lwz %r7,24(%r1)
 2121 00ce 50E70040 		e_lwz %r7,64(%r7)
 2122 00d2 0163     		se_mr %r3,%r6
 2123 00d4 C741     		se_lwz %r4,28(%r1)
 2124 00d6 0175     		se_mr %r5,%r7
 2125 00d8 78000001 		e_bl memcpy
 2126              		.loc 1 2112 0
 2127 00dc C671     		se_lwz %r7,24(%r1)
 2128 00de C367     		se_lwz %r6,12(%r7)
 2129 00e0 C671     		se_lwz %r7,24(%r1)
 2130 00e2 50E70040 		e_lwz %r7,64(%r7)
 2131 00e6 0037     		se_neg %r7
 2132 00e8 0476     		se_add %r6,%r7
 2133 00ea C671     		se_lwz %r7,24(%r1)
 2134 00ec D367     		se_stw %r6,12(%r7)
 2135              		.loc 1 2113 0
 2136 00ee C671     		se_lwz %r7,24(%r1)
 2137 00f0 C367     		se_lwz %r6,12(%r7)
 2138 00f2 C671     		se_lwz %r7,24(%r1)
 2139 00f4 C077     		se_lwz %r7,0(%r7)
 2140 00f6 7F863840 		cmpl %cr7,%r6,%r7
 2141 00fa 7CE00026 		mfcr %r7
 2142 00fe 74E7E007 		e_rlwinm %r7,%r7,28,0xf0000000
 2143 0102 7CE80120 		mtcrf 128,%r7
 2144 0106 7A000016 		e_bge %cr0,.L117
 2145              		.loc 1 2115 0
 2146 010a C671     		se_lwz %r7,24(%r1)
 2147 010c C267     		se_lwz %r6,8(%r7)
 2148 010e C671     		se_lwz %r7,24(%r1)
 2149 0110 50E70040 		e_lwz %r7,64(%r7)
 2150 0114 0037     		se_neg %r7
 2151 0116 0476     		se_add %r6,%r7
 2152 0118 C671     		se_lwz %r7,24(%r1)
 2153 011a D367     		se_stw %r6,12(%r7)
 2154              	.L117:
 2155              		.loc 1 2122 0
 2156 011c C871     		se_lwz %r7,32(%r1)
 2157 011e 2A27     		se_cmpi %r7,2
 2158 0120 7F800020 		e_mcrf %cr7,%cr0
 2159 0124 7CE00026 		mfcr %r7
 2160 0128 74E7E007 		e_rlwinm %r7,%r7,28,0xf0000000
 2161 012c 7CE80120 		mtcrf 128,%r7
 2162 0130 7A020024 		e_bne %cr0,.L115
 2163              		.loc 1 2124 0
 2164 0134 C371     		se_lwz %r7,12(%r1)
 2165 0136 2A07     		se_cmpi %r7,0
 2166 0138 7F800020 		e_mcrf %cr7,%cr0
GAS LISTING C:\Users\bayra\AppData\Local\Temp\ccOqRaY7.s 			page 39


 2167 013c 7CE00026 		mfcr %r7
 2168 0140 74E7E007 		e_rlwinm %r7,%r7,28,0xf0000000
 2169 0144 7CE80120 		mtcrf 128,%r7
 2170 0148 7A12000C 		e_beq %cr0,.L115
 2171              		.loc 1 2130 0
 2172 014c C371     		se_lwz %r7,12(%r1)
 2173 014e 18E784FF 		e_addi %r7,%r7,-1
 2174 0152 D371     		se_stw %r7,12(%r1)
 2175              	.L115:
 2176              		.loc 1 2143 0
 2177 0154 C371     		se_lwz %r7,12(%r1)
 2178 0156 18C78001 		e_addi %r6,%r7,1
 2179 015a C671     		se_lwz %r7,24(%r1)
 2180 015c DE67     		se_stw %r6,56(%r7)
 2181              		.loc 1 2145 0
 2182 015e C271     		se_lwz %r7,8(%r1)
 2183              		.loc 1 2146 0
 2184 0160 0173     		se_mr %r3,%r7
 2185 0162 CB01     		se_lwz %r0,44(%r1)
 2186 0164 0090     		se_mtlr %r0
 2187 0166 18218028 		e_addi %r1,%r1,40
 2188              	.LCFI37:
 2189              		.cfi_def_cfa_offset 0
 2190 016a 0004     		se_blr
 2191              		.cfi_endproc
 2192              	.LFE18:
 2193              		.size	prvCopyDataToQueue, .-prvCopyDataToQueue
 2194              		.section	.text.prvCopyDataFromQueue,"axv",@progbits
 2195              		.align 1
 2196              		.p2align 4,,15
 2197              		.type	prvCopyDataFromQueue, @function
 2198              	prvCopyDataFromQueue:
 2199              	.LFB19:
 2200              		.loc 1 2150 0
 2201              		.cfi_startproc
 2202 0000 182106F0 		e_stwu %r1,-16(%r1)
 2203              	.LCFI38:
 2204              		.cfi_def_cfa_offset 16
 2205 0004 0080     		se_mflr %r0
 2206 0006 D501     		se_stw %r0,20(%r1)
 2207              		.cfi_offset 65, 4
 2208 0008 D231     		se_stw %r3,8(%r1)
 2209 000a D341     		se_stw %r4,12(%r1)
 2210              		.loc 1 2151 0
 2211 000c C271     		se_lwz %r7,8(%r1)
 2212 000e 50E70040 		e_lwz %r7,64(%r7)
 2213 0012 2A07     		se_cmpi %r7,0
 2214 0014 7F800020 		e_mcrf %cr7,%cr0
 2215 0018 7CE00026 		mfcr %r7
 2216 001c 74E7E007 		e_rlwinm %r7,%r7,28,0xf0000000
 2217 0020 7CE80120 		mtcrf 128,%r7
 2218 0024 7A12004C 		e_beq %cr0,.L119
 2219              		.loc 1 2153 0
 2220 0028 C271     		se_lwz %r7,8(%r1)
 2221 002a C367     		se_lwz %r6,12(%r7)
 2222 002c C271     		se_lwz %r7,8(%r1)
 2223 002e 50E70040 		e_lwz %r7,64(%r7)
GAS LISTING C:\Users\bayra\AppData\Local\Temp\ccOqRaY7.s 			page 40


 2224 0032 0476     		se_add %r6,%r7
 2225 0034 C271     		se_lwz %r7,8(%r1)
 2226 0036 D367     		se_stw %r6,12(%r7)
 2227              		.loc 1 2154 0
 2228 0038 C271     		se_lwz %r7,8(%r1)
 2229 003a C367     		se_lwz %r6,12(%r7)
 2230 003c C271     		se_lwz %r7,8(%r1)
 2231 003e C277     		se_lwz %r7,8(%r7)
 2232 0040 7F863840 		cmpl %cr7,%r6,%r7
 2233 0044 7CE00026 		mfcr %r7
 2234 0048 74E7E007 		e_rlwinm %r7,%r7,28,0xf0000000
 2235 004c 7CE80120 		mtcrf 128,%r7
 2236 0050 7A10000C 		e_blt %cr0,.L121
 2237              		.loc 1 2156 0
 2238 0054 C271     		se_lwz %r7,8(%r1)
 2239 0056 C067     		se_lwz %r6,0(%r7)
 2240 0058 C271     		se_lwz %r7,8(%r1)
 2241 005a D367     		se_stw %r6,12(%r7)
 2242              	.L121:
 2243              		.loc 1 2162 0
 2244 005c C271     		se_lwz %r7,8(%r1)
 2245 005e C367     		se_lwz %r6,12(%r7)
 2246 0060 C271     		se_lwz %r7,8(%r1)
 2247 0062 50E70040 		e_lwz %r7,64(%r7)
 2248 0066 C331     		se_lwz %r3,12(%r1)
 2249 0068 0164     		se_mr %r4,%r6
 2250 006a 0175     		se_mr %r5,%r7
 2251 006c 78000001 		e_bl memcpy
 2252              	.L119:
 2253              		.loc 1 2164 0
 2254 0070 C501     		se_lwz %r0,20(%r1)
 2255 0072 0090     		se_mtlr %r0
 2256 0074 20F1     		se_addi %r1,16
 2257              	.LCFI39:
 2258              		.cfi_def_cfa_offset 0
 2259 0076 0004     		se_blr
 2260              		.cfi_endproc
 2261              	.LFE19:
 2262              		.size	prvCopyDataFromQueue, .-prvCopyDataFromQueue
 2263              		.section	.text.prvUnlockQueue,"axv",@progbits
 2264              		.align 1
 2265              		.p2align 4,,15
 2266              		.type	prvUnlockQueue, @function
 2267              	prvUnlockQueue:
 2268              	.LFB20:
 2269              		.loc 1 2168 0
 2270              		.cfi_startproc
 2271 0000 182106E0 		e_stwu %r1,-32(%r1)
 2272              	.LCFI40:
 2273              		.cfi_def_cfa_offset 32
 2274 0004 0080     		se_mflr %r0
 2275 0006 D901     		se_stw %r0,36(%r1)
 2276              		.cfi_offset 65, 4
 2277 0008 D631     		se_stw %r3,24(%r1)
 2278              		.loc 1 2175 0
 2279 000a 78000001 		e_bl vTaskEnterCritical
 2280              	.LBB11:
GAS LISTING C:\Users\bayra\AppData\Local\Temp\ccOqRaY7.s 			page 41


 2281              		.loc 1 2177 0
 2282 000e C671     		se_lwz %r7,24(%r1)
 2283 0010 30E70045 		e_lbz %r7,69(%r7)
 2284 0014 9871     		se_stb %r7,8(%r1)
 2285              		.loc 1 2180 0
 2286 0016 7800005A 		e_b .L123
 2287              	.L127:
 2288              		.loc 1 2228 0
 2289 001a C671     		se_lwz %r7,24(%r1)
 2290 001c C977     		se_lwz %r7,36(%r7)
 2291 001e 2A07     		se_cmpi %r7,0
 2292 0020 7F800020 		e_mcrf %cr7,%cr0
 2293 0024 7CE00026 		mfcr %r7
 2294 0028 74E7E007 		e_rlwinm %r7,%r7,28,0xf0000000
 2295 002c 7CE80120 		mtcrf 128,%r7
 2296 0030 7A120030 		e_beq %cr0,.L124
 2297              		.loc 1 2230 0
 2298 0034 C671     		se_lwz %r7,24(%r1)
 2299 0036 18E78024 		e_addi %r7,%r7,36
 2300 003a 0173     		se_mr %r3,%r7
 2301 003c 78000001 		e_bl xTaskRemoveFromEventList
 2302 0040 0137     		se_mr %r7,%r3
 2303 0042 2A07     		se_cmpi %r7,0
 2304 0044 7F800020 		e_mcrf %cr7,%cr0
 2305 0048 7CE00026 		mfcr %r7
 2306 004c 74E7E007 		e_rlwinm %r7,%r7,28,0xf0000000
 2307 0050 7CE80120 		mtcrf 128,%r7
 2308 0054 7A120010 		e_beq %cr0,.L125
 2309              		.loc 1 2234 0
 2310 0058 78000001 		e_bl vTaskMissedYield
 2311 005c 78000008 		e_b .L125
 2312              	.L124:
 2313              		.loc 1 2243 0
 2314 0060 7800002A 		e_b .L126
 2315              	.L125:
 2316              		.loc 1 2248 0
 2317 0064 8871     		se_lbz %r7,8(%r1)
 2318 0066 00C7     		se_extzb %r7
 2319 0068 18E784FF 		e_addi %r7,%r7,-1
 2320 006c 00C7     		se_extzb %r7
 2321 006e 9871     		se_stb %r7,8(%r1)
 2322              	.L123:
 2323              		.loc 1 2180 0
 2324 0070 8871     		se_lbz %r7,8(%r1)
 2325 0072 00D7     		se_extsb %r7
 2326 0074 2A07     		se_cmpi %r7,0
 2327 0076 7F800020 		e_mcrf %cr7,%cr0
 2328 007a 7CE00026 		mfcr %r7
 2329 007e 74E7E007 		e_rlwinm %r7,%r7,28,0xf0000000
 2330 0082 7CE80120 		mtcrf 128,%r7
 2331 0086 7A11FF94 		e_bgt %cr0,.L127
 2332              	.L126:
 2333              		.loc 1 2251 0
 2334 008a C671     		se_lwz %r7,24(%r1)
 2335 008c 2C06     		se_bmaski %r6,0
 2336 008e 34C70045 		e_stb %r6,69(%r7)
 2337              	.LBE11:
GAS LISTING C:\Users\bayra\AppData\Local\Temp\ccOqRaY7.s 			page 42


 2338              		.loc 1 2253 0
 2339 0092 78000001 		e_bl vTaskExitCritical
 2340              		.loc 1 2256 0
 2341 0096 78000001 		e_bl vTaskEnterCritical
 2342              	.LBB12:
 2343              		.loc 1 2258 0
 2344 009a C671     		se_lwz %r7,24(%r1)
 2345 009c 30E70044 		e_lbz %r7,68(%r7)
 2346 00a0 9971     		se_stb %r7,9(%r1)
 2347              		.loc 1 2260 0
 2348 00a2 78000058 		e_b .L128
 2349              	.L132:
 2350              		.loc 1 2262 0
 2351 00a6 C671     		se_lwz %r7,24(%r1)
 2352 00a8 C477     		se_lwz %r7,16(%r7)
 2353 00aa 2A07     		se_cmpi %r7,0
 2354 00ac 7F800020 		e_mcrf %cr7,%cr0
 2355 00b0 7CE00026 		mfcr %r7
 2356 00b4 74E7E007 		e_rlwinm %r7,%r7,28,0xf0000000
 2357 00b8 7CE80120 		mtcrf 128,%r7
 2358 00bc 7A12003A 		e_beq %cr0,.L129
 2359              		.loc 1 2264 0
 2360 00c0 C671     		se_lwz %r7,24(%r1)
 2361 00c2 20F7     		se_addi %r7,16
 2362 00c4 0173     		se_mr %r3,%r7
 2363 00c6 78000001 		e_bl xTaskRemoveFromEventList
 2364 00ca 0137     		se_mr %r7,%r3
 2365 00cc 2A07     		se_cmpi %r7,0
 2366 00ce 7F800020 		e_mcrf %cr7,%cr0
 2367 00d2 7CE00026 		mfcr %r7
 2368 00d6 74E7E007 		e_rlwinm %r7,%r7,28,0xf0000000
 2369 00da 7CE80120 		mtcrf 128,%r7
 2370 00de 7A120008 		e_beq %cr0,.L130
 2371              		.loc 1 2266 0
 2372 00e2 78000001 		e_bl vTaskMissedYield
 2373              	.L130:
 2374              		.loc 1 2273 0
 2375 00e6 8971     		se_lbz %r7,9(%r1)
 2376 00e8 00C7     		se_extzb %r7
 2377 00ea 18E784FF 		e_addi %r7,%r7,-1
 2378 00ee 00C7     		se_extzb %r7
 2379 00f0 9971     		se_stb %r7,9(%r1)
 2380 00f2 78000008 		e_b .L128
 2381              	.L129:
 2382              		.loc 1 2277 0
 2383 00f6 7800001E 		e_b .L131
 2384              	.L128:
 2385              		.loc 1 2260 0
 2386 00fa 8971     		se_lbz %r7,9(%r1)
 2387 00fc 00D7     		se_extsb %r7
 2388 00fe 2A07     		se_cmpi %r7,0
 2389 0100 7F800020 		e_mcrf %cr7,%cr0
 2390 0104 7CE00026 		mfcr %r7
 2391 0108 74E7E007 		e_rlwinm %r7,%r7,28,0xf0000000
 2392 010c 7CE80120 		mtcrf 128,%r7
 2393 0110 7A11FF96 		e_bgt %cr0,.L132
 2394              	.L131:
GAS LISTING C:\Users\bayra\AppData\Local\Temp\ccOqRaY7.s 			page 43


 2395              		.loc 1 2281 0
 2396 0114 C671     		se_lwz %r7,24(%r1)
 2397 0116 2C06     		se_bmaski %r6,0
 2398 0118 34C70044 		e_stb %r6,68(%r7)
 2399              	.LBE12:
 2400              		.loc 1 2283 0
 2401 011c 78000001 		e_bl vTaskExitCritical
 2402              		.loc 1 2284 0
 2403 0120 C901     		se_lwz %r0,36(%r1)
 2404 0122 0090     		se_mtlr %r0
 2405 0124 21F1     		se_addi %r1,32
 2406              	.LCFI41:
 2407              		.cfi_def_cfa_offset 0
 2408 0126 0004     		se_blr
 2409              		.cfi_endproc
 2410              	.LFE20:
 2411              		.size	prvUnlockQueue, .-prvUnlockQueue
 2412              		.section	.text.prvIsQueueEmpty,"axv",@progbits
 2413              		.align 1
 2414              		.p2align 4,,15
 2415              		.type	prvIsQueueEmpty, @function
 2416              	prvIsQueueEmpty:
 2417              	.LFB21:
 2418              		.loc 1 2288 0
 2419              		.cfi_startproc
 2420 0000 182106E0 		e_stwu %r1,-32(%r1)
 2421              	.LCFI42:
 2422              		.cfi_def_cfa_offset 32
 2423 0004 0080     		se_mflr %r0
 2424 0006 D901     		se_stw %r0,36(%r1)
 2425              		.cfi_offset 65, 4
 2426 0008 D631     		se_stw %r3,24(%r1)
 2427              		.loc 1 2291 0
 2428 000a 78000001 		e_bl vTaskEnterCritical
 2429              		.loc 1 2293 0
 2430 000e C671     		se_lwz %r7,24(%r1)
 2431 0010 CE77     		se_lwz %r7,56(%r7)
 2432 0012 2A07     		se_cmpi %r7,0
 2433 0014 7F800020 		e_mcrf %cr7,%cr0
 2434 0018 7CE00026 		mfcr %r7
 2435 001c 74E7E007 		e_rlwinm %r7,%r7,28,0xf0000000
 2436 0020 7CE80120 		mtcrf 128,%r7
 2437 0024 7A02000C 		e_bne %cr0,.L134
 2438              		.loc 1 2295 0
 2439 0028 4817     		se_li %r7,1
 2440 002a D271     		se_stw %r7,8(%r1)
 2441 002c 78000008 		e_b .L135
 2442              	.L134:
 2443              		.loc 1 2299 0
 2444 0030 4807     		se_li %r7,0
 2445 0032 D271     		se_stw %r7,8(%r1)
 2446              	.L135:
 2447              		.loc 1 2302 0
 2448 0034 78000001 		e_bl vTaskExitCritical
 2449              		.loc 1 2304 0
 2450 0038 C271     		se_lwz %r7,8(%r1)
 2451              		.loc 1 2305 0
GAS LISTING C:\Users\bayra\AppData\Local\Temp\ccOqRaY7.s 			page 44


 2452 003a 0173     		se_mr %r3,%r7
 2453 003c C901     		se_lwz %r0,36(%r1)
 2454 003e 0090     		se_mtlr %r0
 2455 0040 21F1     		se_addi %r1,32
 2456              	.LCFI43:
 2457              		.cfi_def_cfa_offset 0
 2458 0042 0004     		se_blr
 2459              		.cfi_endproc
 2460              	.LFE21:
 2461              		.size	prvIsQueueEmpty, .-prvIsQueueEmpty
 2462              		.section	.text.xQueueIsQueueEmptyFromISR,"axv",@progbits
 2463              		.align 1
 2464              		.p2align 4,,15
 2465              		.globl xQueueIsQueueEmptyFromISR
 2466              		.type	xQueueIsQueueEmptyFromISR, @function
 2467              	xQueueIsQueueEmptyFromISR:
 2468              	.LFB22:
 2469              		.loc 1 2309 0
 2470              		.cfi_startproc
 2471 0000 182106E0 		e_stwu %r1,-32(%r1)
 2472              	.LCFI44:
 2473              		.cfi_def_cfa_offset 32
 2474 0004 D631     		se_stw %r3,24(%r1)
 2475              		.loc 1 2311 0
 2476 0006 C671     		se_lwz %r7,24(%r1)
 2477 0008 D371     		se_stw %r7,12(%r1)
 2478              		.loc 1 2314 0
 2479 000a C371     		se_lwz %r7,12(%r1)
 2480 000c CE77     		se_lwz %r7,56(%r7)
 2481 000e 2A07     		se_cmpi %r7,0
 2482 0010 7F800020 		e_mcrf %cr7,%cr0
 2483 0014 7CE00026 		mfcr %r7
 2484 0018 74E7E007 		e_rlwinm %r7,%r7,28,0xf0000000
 2485 001c 7CE80120 		mtcrf 128,%r7
 2486 0020 7A02000C 		e_bne %cr0,.L138
 2487              		.loc 1 2316 0
 2488 0024 4817     		se_li %r7,1
 2489 0026 D271     		se_stw %r7,8(%r1)
 2490 0028 78000008 		e_b .L139
 2491              	.L138:
 2492              		.loc 1 2320 0
 2493 002c 4807     		se_li %r7,0
 2494 002e D271     		se_stw %r7,8(%r1)
 2495              	.L139:
 2496              		.loc 1 2323 0
 2497 0030 C271     		se_lwz %r7,8(%r1)
 2498              		.loc 1 2324 0
 2499 0032 0173     		se_mr %r3,%r7
 2500 0034 21F1     		se_addi %r1,32
 2501              	.LCFI45:
 2502              		.cfi_def_cfa_offset 0
 2503 0036 0004     		se_blr
 2504              		.cfi_endproc
 2505              	.LFE22:
 2506              		.size	xQueueIsQueueEmptyFromISR, .-xQueueIsQueueEmptyFromISR
 2507              		.section	.text.prvIsQueueFull,"axv",@progbits
 2508              		.align 1
GAS LISTING C:\Users\bayra\AppData\Local\Temp\ccOqRaY7.s 			page 45


 2509              		.p2align 4,,15
 2510              		.type	prvIsQueueFull, @function
 2511              	prvIsQueueFull:
 2512              	.LFB23:
 2513              		.loc 1 2328 0
 2514              		.cfi_startproc
 2515 0000 182106E0 		e_stwu %r1,-32(%r1)
 2516              	.LCFI46:
 2517              		.cfi_def_cfa_offset 32
 2518 0004 0080     		se_mflr %r0
 2519 0006 D901     		se_stw %r0,36(%r1)
 2520              		.cfi_offset 65, 4
 2521 0008 D631     		se_stw %r3,24(%r1)
 2522              		.loc 1 2331 0
 2523 000a 78000001 		e_bl vTaskEnterCritical
 2524              		.loc 1 2333 0
 2525 000e C671     		se_lwz %r7,24(%r1)
 2526 0010 CE67     		se_lwz %r6,56(%r7)
 2527 0012 C671     		se_lwz %r7,24(%r1)
 2528 0014 CF77     		se_lwz %r7,60(%r7)
 2529 0016 7F863840 		cmpl %cr7,%r6,%r7
 2530 001a 7CE00026 		mfcr %r7
 2531 001e 74E7E007 		e_rlwinm %r7,%r7,28,0xf0000000
 2532 0022 7CE80120 		mtcrf 128,%r7
 2533 0026 7A02000C 		e_bne %cr0,.L142
 2534              		.loc 1 2335 0
 2535 002a 4817     		se_li %r7,1
 2536 002c D271     		se_stw %r7,8(%r1)
 2537 002e 78000008 		e_b .L143
 2538              	.L142:
 2539              		.loc 1 2339 0
 2540 0032 4807     		se_li %r7,0
 2541 0034 D271     		se_stw %r7,8(%r1)
 2542              	.L143:
 2543              		.loc 1 2342 0
 2544 0036 78000001 		e_bl vTaskExitCritical
 2545              		.loc 1 2344 0
 2546 003a C271     		se_lwz %r7,8(%r1)
 2547              		.loc 1 2345 0
 2548 003c 0173     		se_mr %r3,%r7
 2549 003e C901     		se_lwz %r0,36(%r1)
 2550 0040 0090     		se_mtlr %r0
 2551 0042 21F1     		se_addi %r1,32
 2552              	.LCFI47:
 2553              		.cfi_def_cfa_offset 0
 2554 0044 0004     		se_blr
 2555              		.cfi_endproc
 2556              	.LFE23:
 2557              		.size	prvIsQueueFull, .-prvIsQueueFull
 2558              		.section	.text.xQueueIsQueueFullFromISR,"axv",@progbits
 2559              		.align 1
 2560              		.p2align 4,,15
 2561              		.globl xQueueIsQueueFullFromISR
 2562              		.type	xQueueIsQueueFullFromISR, @function
 2563              	xQueueIsQueueFullFromISR:
 2564              	.LFB24:
 2565              		.loc 1 2349 0
GAS LISTING C:\Users\bayra\AppData\Local\Temp\ccOqRaY7.s 			page 46


 2566              		.cfi_startproc
 2567 0000 182106E0 		e_stwu %r1,-32(%r1)
 2568              	.LCFI48:
 2569              		.cfi_def_cfa_offset 32
 2570 0004 D631     		se_stw %r3,24(%r1)
 2571              		.loc 1 2351 0
 2572 0006 C671     		se_lwz %r7,24(%r1)
 2573 0008 D371     		se_stw %r7,12(%r1)
 2574              		.loc 1 2354 0
 2575 000a C371     		se_lwz %r7,12(%r1)
 2576 000c CE67     		se_lwz %r6,56(%r7)
 2577 000e C371     		se_lwz %r7,12(%r1)
 2578 0010 CF77     		se_lwz %r7,60(%r7)
 2579 0012 7F863840 		cmpl %cr7,%r6,%r7
 2580 0016 7CE00026 		mfcr %r7
 2581 001a 74E7E007 		e_rlwinm %r7,%r7,28,0xf0000000
 2582 001e 7CE80120 		mtcrf 128,%r7
 2583 0022 7A02000C 		e_bne %cr0,.L146
 2584              		.loc 1 2356 0
 2585 0026 4817     		se_li %r7,1
 2586 0028 D271     		se_stw %r7,8(%r1)
 2587 002a 78000008 		e_b .L147
 2588              	.L146:
 2589              		.loc 1 2360 0
 2590 002e 4807     		se_li %r7,0
 2591 0030 D271     		se_stw %r7,8(%r1)
 2592              	.L147:
 2593              		.loc 1 2363 0
 2594 0032 C271     		se_lwz %r7,8(%r1)
 2595              		.loc 1 2364 0
 2596 0034 0173     		se_mr %r3,%r7
 2597 0036 21F1     		se_addi %r1,32
 2598              	.LCFI49:
 2599              		.cfi_def_cfa_offset 0
 2600 0038 0004     		se_blr
 2601              		.cfi_endproc
 2602              	.LFE24:
 2603              		.size	xQueueIsQueueFullFromISR, .-xQueueIsQueueFullFromISR
 2604              		.section	".text","axv"
 2605              	.Letext0:
 2606              		.file 2 "c:\\spc5studio-6.0\\eclipse\\plugins\\com.st.tools.spc5.tools.gnu.gcc.ppcvle.win32_4.9.4.
 2607              		.file 3 "c:\\spc5studio-6.0\\eclipse\\plugins\\com.st.tools.spc5.tools.gnu.gcc.ppcvle.win32_4.9.4.
 2608              		.file 4 "c:\\spc5studio-6.0\\eclipse\\plugins\\com.st.tools.spc5.tools.gnu.gcc.ppcvle.win32_4.9.4.
 2609              		.file 5 "./components/spc5_freertos_component_rla/lib/portable/portmacro.h"
 2610              		.file 6 "./components/spc5_freertos_component_rla/lib/include/list.h"
 2611              		.file 7 "./components/spc5_freertos_component_rla/lib/include/task.h"
 2612              		.file 8 "./components/spc5_freertos_component_rla/lib/include/queue.h"