GAS LISTING C:\Users\bayra\AppData\Local\Temp\ccMpacND.s 			page 1


   1              		.file	"spc5_edma.c"
   2              		.section	".text","axv"
   3              	.Ltext0:
   4              		.cfi_sections	.debug_frame
   5              		.section	.data.dma1_g0,"aw",@progbits
   6              		.align 2
   7              		.type	dma1_g0, @object
   8              		.size	dma1_g0, 16
   9              	dma1_g0:
  10 0000 00       		.byte	0
  11 0001 01       		.byte	1
  12 0002 02       		.byte	2
  13 0003 03       		.byte	3
  14 0004 04       		.byte	4
  15 0005 05       		.byte	5
  16 0006 06       		.byte	6
  17 0007 07       		.byte	7
  18 0008 08       		.byte	8
  19 0009 09       		.byte	9
  20 000a 0A       		.byte	10
  21 000b 0B       		.byte	11
  22 000c 0C       		.byte	12
  23 000d 0D       		.byte	13
  24 000e 0E       		.byte	14
  25 000f 0F       		.byte	15
  26              		.section	.data.dma1_g1,"aw",@progbits
  27              		.align 2
  28              		.type	dma1_g1, @object
  29              		.size	dma1_g1, 16
  30              	dma1_g1:
  31 0000 00       		.byte	0
  32 0001 01       		.byte	1
  33 0002 02       		.byte	2
  34 0003 03       		.byte	3
  35 0004 04       		.byte	4
  36 0005 05       		.byte	5
  37 0006 06       		.byte	6
  38 0007 07       		.byte	7
  39 0008 08       		.byte	8
  40 0009 09       		.byte	9
  41 000a 0A       		.byte	10
  42 000b 0B       		.byte	11
  43 000c 0C       		.byte	12
  44 000d 0D       		.byte	13
  45 000e 0E       		.byte	14
  46 000f 0F       		.byte	15
  47              		.section	.data.dma1_g2,"aw",@progbits
  48              		.align 2
  49              		.type	dma1_g2, @object
  50              		.size	dma1_g2, 16
  51              	dma1_g2:
  52 0000 00       		.byte	0
  53 0001 01       		.byte	1
  54 0002 02       		.byte	2
  55 0003 03       		.byte	3
  56 0004 04       		.byte	4
  57 0005 05       		.byte	5
GAS LISTING C:\Users\bayra\AppData\Local\Temp\ccMpacND.s 			page 2


  58 0006 06       		.byte	6
  59 0007 07       		.byte	7
  60 0008 08       		.byte	8
  61 0009 09       		.byte	9
  62 000a 0A       		.byte	10
  63 000b 0B       		.byte	11
  64 000c 0C       		.byte	12
  65 000d 0D       		.byte	13
  66 000e 0E       		.byte	14
  67 000f 0F       		.byte	15
  68              		.section	.data.dma1_g3,"aw",@progbits
  69              		.align 2
  70              		.type	dma1_g3, @object
  71              		.size	dma1_g3, 16
  72              	dma1_g3:
  73 0000 00       		.byte	0
  74 0001 01       		.byte	1
  75 0002 02       		.byte	2
  76 0003 03       		.byte	3
  77 0004 04       		.byte	4
  78 0005 05       		.byte	5
  79 0006 06       		.byte	6
  80 0007 07       		.byte	7
  81 0008 08       		.byte	8
  82 0009 09       		.byte	9
  83 000a 0A       		.byte	10
  84 000b 0B       		.byte	11
  85 000c 0C       		.byte	12
  86 000d 0D       		.byte	13
  87 000e 0E       		.byte	14
  88 000f 0F       		.byte	15
  89              		.section	.bss.channels,"aw",@nobits
  90              		.align 2
  91              		.type	channels, @object
  92              		.size	channels, 256
  93              	channels:
  94 0000 00000000 		.zero	256
  94      00000000 
  94      00000000 
  94      00000000 
  94      00000000 
  95              		.section	.text.vector52,"axv",@progbits
  96              		.align 1
  97              		.p2align 4,,15
  98              		.globl vector52
  99              		.type	vector52, @function
 100              	vector52:
 101              	.LFB3:
 102              		.file 1 "./components/spc58ecxx_low_level_drivers_component_rla/lib/src/spc5_edma.c"
 103              		.loc 1 72 0
 104              		.cfi_startproc
 105 0000 182106E8 		e_stwu %r1,-24(%r1)
 106              	.LCFI0:
 107              		.cfi_def_cfa_offset 24
 108 0004 0080     		se_mflr %r0
 109 0006 D701     		se_stw %r0,28(%r1)
 110              		.cfi_offset 65, 4
GAS LISTING C:\Users\bayra\AppData\Local\Temp\ccMpacND.s 			page 3


 111              		.loc 1 87 0
 112 0008 4807     		se_li %r7,0
 113 000a D271     		se_stw %r7,8(%r1)
 114              		.loc 1 95 0
 115 000c 70FEE40A 		e_lis %r7,0xf40a
 116 0010 6517     		se_bseti %r7,17
 117 0012 CB77     		se_lwz %r7,44(%r7)
 118 0014 D371     		se_stw %r7,12(%r1)
 119              		.loc 1 96 0
 120 0016 70FEE40A 		e_lis %r7,0xf40a
 121 001a 6517     		se_bseti %r7,17
 122 001c CA77     		se_lwz %r7,40(%r7)
 123 001e D471     		se_stw %r7,16(%r1)
 124              		.loc 1 97 0
 125 0020 780001D0 		e_b .L2
 126              	.L9:
 127              		.loc 1 113 0
 128 0024 C271     		se_lwz %r7,8(%r1)
 129 0026 23E7     		se_cmpli %r7,31
 130 0028 7F800020 		e_mcrf %cr7,%cr0
 131 002c 7CE00026 		mfcr %r7
 132 0030 74E7E007 		e_rlwinm %r7,%r7,28,0xf0000000
 133 0034 7CE80120 		mtcrf 128,%r7
 134 0038 7A1100C4 		e_bgt %cr0,.L3
 135              		.loc 1 114 0
 136 003c C271     		se_lwz %r7,8(%r1)
 137 003e C361     		se_lwz %r6,12(%r1)
 138 0040 7CC73C30 		srw %r7,%r6,%r7
 139 0044 2E17     		se_andi %r7,1
 140 0046 2A07     		se_cmpi %r7,0
 141 0048 7F800020 		e_mcrf %cr7,%cr0
 142 004c 7CE00026 		mfcr %r7
 143 0050 74E7E007 		e_rlwinm %r7,%r7,28,0xf0000000
 144 0054 7CE80120 		mtcrf 128,%r7
 145 0058 7A12017E 		e_beq %cr0,.L5
 146              		.loc 1 116 0
 147 005c 70FEE40A 		e_lis %r7,0xf40a
 148 0060 6517     		se_bseti %r7,17
 149 0062 C261     		se_lwz %r6,8(%r1)
 150 0064 00C6     		se_extzb %r6
 151 0066 34C7001D 		e_stb %r6,29(%r7)
 152              		.loc 1 117 0
 153 006a 70FEE40A 		e_lis %r7,0xf40a
 154 006e 6517     		se_bseti %r7,17
 155 0070 C177     		se_lwz %r7,4(%r7)
 156 0072 D571     		se_stw %r7,20(%r1)
 157              		.loc 1 121 0
 158 0074 70E0E000 		e_lis %r7,channels@ha
 159 0078 1CC70000 		e_la %r6,channels@l(%r7)
 160 007c C271     		se_lwz %r7,8(%r1)
 161 007e 6C27     		se_slwi %r7, 2
 162 0080 7CE63A14 		add %r7,%r6,%r7
 163 0084 C077     		se_lwz %r7,0(%r7)
 164 0086 2A07     		se_cmpi %r7,0
 165 0088 7F800020 		e_mcrf %cr7,%cr0
 166 008c 7CE00026 		mfcr %r7
 167 0090 74E7E007 		e_rlwinm %r7,%r7,28,0xf0000000
GAS LISTING C:\Users\bayra\AppData\Local\Temp\ccMpacND.s 			page 4


 168 0094 7CE80120 		mtcrf 128,%r7
 169 0098 7A12013E 		e_beq %cr0,.L5
 170              		.loc 1 122 0 discriminator 1
 171 009c 70E0E000 		e_lis %r7,channels@ha
 172 00a0 1CC70000 		e_la %r6,channels@l(%r7)
 173 00a4 C271     		se_lwz %r7,8(%r1)
 174 00a6 6C27     		se_slwi %r7, 2
 175 00a8 7CE63A14 		add %r7,%r6,%r7
 176 00ac C077     		se_lwz %r7,0(%r7)
 177 00ae C377     		se_lwz %r7,12(%r7)
 178              		.loc 1 121 0 discriminator 1
 179 00b0 2A07     		se_cmpi %r7,0
 180 00b2 7F800020 		e_mcrf %cr7,%cr0
 181 00b6 7CE00026 		mfcr %r7
 182 00ba 74E7E007 		e_rlwinm %r7,%r7,28,0xf0000000
 183 00be 7CE80120 		mtcrf 128,%r7
 184 00c2 7A120114 		e_beq %cr0,.L5
 185              		.loc 1 123 0
 186 00c6 70E0E000 		e_lis %r7,channels@ha
 187 00ca 1CC70000 		e_la %r6,channels@l(%r7)
 188 00ce C271     		se_lwz %r7,8(%r1)
 189 00d0 6C27     		se_slwi %r7, 2
 190 00d2 7CE63A14 		add %r7,%r6,%r7
 191 00d6 C077     		se_lwz %r7,0(%r7)
 192 00d8 C377     		se_lwz %r7,12(%r7)
 193              		.loc 1 124 0
 194 00da 70C0E000 		e_lis %r6,channels@ha
 195 00de 1CA60000 		e_la %r5,channels@l(%r6)
 196 00e2 C261     		se_lwz %r6,8(%r1)
 197 00e4 6C26     		se_slwi %r6, 2
 198 00e6 7CC53214 		add %r6,%r5,%r6
 199 00ea C066     		se_lwz %r6,0(%r6)
 200              		.loc 1 123 0
 201 00ec C466     		se_lwz %r6,16(%r6)
 202 00ee C231     		se_lwz %r3,8(%r1)
 203 00f0 0164     		se_mr %r4,%r6
 204 00f2 C551     		se_lwz %r5,20(%r1)
 205 00f4 00B7     		se_mtctr %r7
 206 00f6 0007     		se_bctrl
 207 00f8 780000DE 		e_b .L5
 208              	.L3:
 209              		.loc 1 131 0
 210 00fc C271     		se_lwz %r7,8(%r1)
 211 00fe 7007A83F 		e_cmpl16i %r7,63
 212 0102 7F800020 		e_mcrf %cr7,%cr0
 213 0106 7CE00026 		mfcr %r7
 214 010a 74E7E007 		e_rlwinm %r7,%r7,28,0xf0000000
 215 010e 7CE80120 		mtcrf 128,%r7
 216 0112 7A1100C4 		e_bgt %cr0,.L5
 217              		.loc 1 132 0
 218 0116 C271     		se_lwz %r7,8(%r1)
 219 0118 18E784E0 		e_addi %r7,%r7,-32
 220 011c 0176     		se_mr %r6,%r7
 221 011e C471     		se_lwz %r7,16(%r1)
 222 0120 4067     		se_srw %r7,%r6
 223 0122 2E17     		se_andi %r7,1
 224 0124 2A07     		se_cmpi %r7,0
GAS LISTING C:\Users\bayra\AppData\Local\Temp\ccMpacND.s 			page 5


 225 0126 7F800020 		e_mcrf %cr7,%cr0
 226 012a 7CE00026 		mfcr %r7
 227 012e 74E7E007 		e_rlwinm %r7,%r7,28,0xf0000000
 228 0132 7CE80120 		mtcrf 128,%r7
 229 0136 7A1200A0 		e_beq %cr0,.L5
 230              		.loc 1 134 0
 231 013a 70FEE40A 		e_lis %r7,0xf40a
 232 013e 6517     		se_bseti %r7,17
 233 0140 C261     		se_lwz %r6,8(%r1)
 234 0142 00C6     		se_extzb %r6
 235 0144 34C7001D 		e_stb %r6,29(%r7)
 236              		.loc 1 135 0
 237 0148 70FEE40A 		e_lis %r7,0xf40a
 238 014c 6517     		se_bseti %r7,17
 239 014e C177     		se_lwz %r7,4(%r7)
 240 0150 D571     		se_stw %r7,20(%r1)
 241              		.loc 1 139 0
 242 0152 70E0E000 		e_lis %r7,channels@ha
 243 0156 1CC70000 		e_la %r6,channels@l(%r7)
 244 015a C271     		se_lwz %r7,8(%r1)
 245 015c 6C27     		se_slwi %r7, 2
 246 015e 7CE63A14 		add %r7,%r6,%r7
 247 0162 C077     		se_lwz %r7,0(%r7)
 248 0164 2A07     		se_cmpi %r7,0
 249 0166 7F800020 		e_mcrf %cr7,%cr0
 250 016a 7CE00026 		mfcr %r7
 251 016e 74E7E007 		e_rlwinm %r7,%r7,28,0xf0000000
 252 0172 7CE80120 		mtcrf 128,%r7
 253 0176 7A120060 		e_beq %cr0,.L5
 254              		.loc 1 140 0 discriminator 1
 255 017a 70E0E000 		e_lis %r7,channels@ha
 256 017e 1CC70000 		e_la %r6,channels@l(%r7)
 257 0182 C271     		se_lwz %r7,8(%r1)
 258 0184 6C27     		se_slwi %r7, 2
 259 0186 7CE63A14 		add %r7,%r6,%r7
 260 018a C077     		se_lwz %r7,0(%r7)
 261 018c C377     		se_lwz %r7,12(%r7)
 262              		.loc 1 139 0 discriminator 1
 263 018e 2A07     		se_cmpi %r7,0
 264 0190 7F800020 		e_mcrf %cr7,%cr0
 265 0194 7CE00026 		mfcr %r7
 266 0198 74E7E007 		e_rlwinm %r7,%r7,28,0xf0000000
 267 019c 7CE80120 		mtcrf 128,%r7
 268 01a0 7A120036 		e_beq %cr0,.L5
 269              		.loc 1 141 0
 270 01a4 70E0E000 		e_lis %r7,channels@ha
 271 01a8 1CC70000 		e_la %r6,channels@l(%r7)
 272 01ac C271     		se_lwz %r7,8(%r1)
 273 01ae 6C27     		se_slwi %r7, 2
 274 01b0 7CE63A14 		add %r7,%r6,%r7
 275 01b4 C077     		se_lwz %r7,0(%r7)
 276 01b6 C377     		se_lwz %r7,12(%r7)
 277              		.loc 1 142 0
 278 01b8 70C0E000 		e_lis %r6,channels@ha
 279 01bc 1CA60000 		e_la %r5,channels@l(%r6)
 280 01c0 C261     		se_lwz %r6,8(%r1)
 281 01c2 6C26     		se_slwi %r6, 2
GAS LISTING C:\Users\bayra\AppData\Local\Temp\ccMpacND.s 			page 6


 282 01c4 7CC53214 		add %r6,%r5,%r6
 283 01c8 C066     		se_lwz %r6,0(%r6)
 284              		.loc 1 141 0
 285 01ca C466     		se_lwz %r6,16(%r6)
 286 01cc C231     		se_lwz %r3,8(%r1)
 287 01ce 0164     		se_mr %r4,%r6
 288 01d0 C551     		se_lwz %r5,20(%r1)
 289 01d2 00B7     		se_mtctr %r7
 290 01d4 0007     		se_bctrl
 291              	.L5:
 292              		.loc 1 166 0
 293 01d6 C271     		se_lwz %r7,8(%r1)
 294 01d8 2007     		se_addi %r7,1
 295 01da D271     		se_stw %r7,8(%r1)
 296              		.loc 1 173 0
 297 01dc 70FEE40A 		e_lis %r7,0xf40a
 298 01e0 6517     		se_bseti %r7,17
 299 01e2 CB77     		se_lwz %r7,44(%r7)
 300 01e4 D371     		se_stw %r7,12(%r1)
 301              		.loc 1 174 0
 302 01e6 70FEE40A 		e_lis %r7,0xf40a
 303 01ea 6517     		se_bseti %r7,17
 304 01ec CA77     		se_lwz %r7,40(%r7)
 305 01ee D471     		se_stw %r7,16(%r1)
 306              	.L2:
 307              		.loc 1 97 0
 308 01f0 C371     		se_lwz %r7,12(%r1)
 309 01f2 2A07     		se_cmpi %r7,0
 310 01f4 7F800020 		e_mcrf %cr7,%cr0
 311 01f8 7CE00026 		mfcr %r7
 312 01fc 74E7E007 		e_rlwinm %r7,%r7,28,0xf0000000
 313 0200 7CE80120 		mtcrf 128,%r7
 314 0204 7A02001C 		e_bne %cr0,.L7
 315              		.loc 1 97 0 is_stmt 0 discriminator 2
 316 0208 C471     		se_lwz %r7,16(%r1)
 317 020a 2A07     		se_cmpi %r7,0
 318 020c 7F800020 		e_mcrf %cr7,%cr0
 319 0210 7CE00026 		mfcr %r7
 320 0214 74E7E007 		e_rlwinm %r7,%r7,28,0xf0000000
 321 0218 7CE80120 		mtcrf 128,%r7
 322 021c 7A12001E 		e_beq %cr0,.L1
 323              	.L7:
 324              		.loc 1 97 0 discriminator 3
 325 0220 C271     		se_lwz %r7,8(%r1)
 326 0222 7007A83F 		e_cmpl16i %r7,63
 327 0226 7F800020 		e_mcrf %cr7,%cr0
 328 022a 7CE00026 		mfcr %r7
 329 022e 74E7E007 		e_rlwinm %r7,%r7,28,0xf0000000
 330 0232 7CE80120 		mtcrf 128,%r7
 331 0236 7A01FDEE 		e_ble %cr0,.L9
 332              	.L1:
 333              		.loc 1 188 0 is_stmt 1
 334 023a C701     		se_lwz %r0,28(%r1)
 335 023c 0090     		se_mtlr %r0
 336 023e 2171     		se_addi %r1,24
 337              	.LCFI1:
 338              		.cfi_def_cfa_offset 0
GAS LISTING C:\Users\bayra\AppData\Local\Temp\ccMpacND.s 			page 7


 339 0240 0004     		se_blr
 340              		.cfi_endproc
 341              	.LFE3:
 342              		.size	vector52, .-vector52
 343              		.section	.text.vector53,"axv",@progbits
 344              		.align 1
 345              		.p2align 4,,15
 346              		.globl vector53
 347              		.type	vector53, @function
 348              	vector53:
 349              	.LFB4:
 350              		.loc 1 198 0
 351              		.cfi_startproc
 352 0000 182106F8 		e_stwu %r1,-8(%r1)
 353              	.LCFI2:
 354              		.cfi_def_cfa_offset 8
 355 0004 0080     		se_mflr %r0
 356 0006 D301     		se_stw %r0,12(%r1)
 357              		.cfi_offset 65, 4
 358              		.loc 1 202 0
 359 0008 70E0E000 		e_lis %r7,channels@ha
 360 000c 1CE70000 		e_la %r7,channels@l(%r7)
 361 0010 C077     		se_lwz %r7,0(%r7)
 362 0012 2A07     		se_cmpi %r7,0
 363 0014 7F800020 		e_mcrf %cr7,%cr0
 364 0018 7CE00026 		mfcr %r7
 365 001c 74E7E007 		e_rlwinm %r7,%r7,28,0xf0000000
 366 0020 7CE80120 		mtcrf 128,%r7
 367 0024 7A020008 		e_bne %cr0,.L11
 368              		.loc 1 203 0
 369 0028 78000001 		e_bl irqSysHalt
 370              	.L11:
 371              		.loc 1 205 0
 372 002c 70FEE40A 		e_lis %r7,0xf40a
 373 0030 6517     		se_bseti %r7,17
 374 0032 4806     		se_li %r6,0
 375 0034 34C7001C 		e_stb %r6,28(%r7)
 376              		.loc 1 206 0
 377 0038 70E0E000 		e_lis %r7,channels@ha
 378 003c 1CE70000 		e_la %r7,channels@l(%r7)
 379 0040 C077     		se_lwz %r7,0(%r7)
 380 0042 C277     		se_lwz %r7,8(%r7)
 381 0044 70C0E000 		e_lis %r6,channels@ha
 382 0048 1CC60000 		e_la %r6,channels@l(%r6)
 383 004c C066     		se_lwz %r6,0(%r6)
 384 004e C466     		se_lwz %r6,16(%r6)
 385 0050 4803     		se_li %r3,0
 386 0052 0164     		se_mr %r4,%r6
 387 0054 00B7     		se_mtctr %r7
 388 0056 0007     		se_bctrl
 389              		.loc 1 209 0
 390 0058 C301     		se_lwz %r0,12(%r1)
 391 005a 0090     		se_mtlr %r0
 392 005c 2071     		se_addi %r1,8
 393              	.LCFI3:
 394              		.cfi_def_cfa_offset 0
 395 005e 0004     		se_blr
GAS LISTING C:\Users\bayra\AppData\Local\Temp\ccMpacND.s 			page 8


 396              		.cfi_endproc
 397              	.LFE4:
 398              		.size	vector53, .-vector53
 399              		.section	.text.vector54,"axv",@progbits
 400              		.align 1
 401              		.p2align 4,,15
 402              		.globl vector54
 403              		.type	vector54, @function
 404              	vector54:
 405              	.LFB5:
 406              		.loc 1 219 0
 407              		.cfi_startproc
 408 0000 182106F8 		e_stwu %r1,-8(%r1)
 409              	.LCFI4:
 410              		.cfi_def_cfa_offset 8
 411 0004 0080     		se_mflr %r0
 412 0006 D301     		se_stw %r0,12(%r1)
 413              		.cfi_offset 65, 4
 414              		.loc 1 223 0
 415 0008 70E0E000 		e_lis %r7,channels@ha
 416 000c 1CE70000 		e_la %r7,channels@l(%r7)
 417 0010 C177     		se_lwz %r7,4(%r7)
 418 0012 2A07     		se_cmpi %r7,0
 419 0014 7F800020 		e_mcrf %cr7,%cr0
 420 0018 7CE00026 		mfcr %r7
 421 001c 74E7E007 		e_rlwinm %r7,%r7,28,0xf0000000
 422 0020 7CE80120 		mtcrf 128,%r7
 423 0024 7A020008 		e_bne %cr0,.L13
 424              		.loc 1 224 0
 425 0028 78000001 		e_bl irqSysHalt
 426              	.L13:
 427              		.loc 1 226 0
 428 002c 70FEE40A 		e_lis %r7,0xf40a
 429 0030 6517     		se_bseti %r7,17
 430 0032 4816     		se_li %r6,1
 431 0034 34C7001C 		e_stb %r6,28(%r7)
 432              		.loc 1 227 0
 433 0038 70E0E000 		e_lis %r7,channels@ha
 434 003c 1CE70000 		e_la %r7,channels@l(%r7)
 435 0040 C177     		se_lwz %r7,4(%r7)
 436 0042 C277     		se_lwz %r7,8(%r7)
 437 0044 70C0E000 		e_lis %r6,channels@ha
 438 0048 1CC60000 		e_la %r6,channels@l(%r6)
 439 004c C166     		se_lwz %r6,4(%r6)
 440 004e C466     		se_lwz %r6,16(%r6)
 441 0050 4813     		se_li %r3,1
 442 0052 0164     		se_mr %r4,%r6
 443 0054 00B7     		se_mtctr %r7
 444 0056 0007     		se_bctrl
 445              		.loc 1 230 0
 446 0058 C301     		se_lwz %r0,12(%r1)
 447 005a 0090     		se_mtlr %r0
 448 005c 2071     		se_addi %r1,8
 449              	.LCFI5:
 450              		.cfi_def_cfa_offset 0
 451 005e 0004     		se_blr
 452              		.cfi_endproc
GAS LISTING C:\Users\bayra\AppData\Local\Temp\ccMpacND.s 			page 9


 453              	.LFE5:
 454              		.size	vector54, .-vector54
 455              		.section	.text.vector55,"axv",@progbits
 456              		.align 1
 457              		.p2align 4,,15
 458              		.globl vector55
 459              		.type	vector55, @function
 460              	vector55:
 461              	.LFB6:
 462              		.loc 1 240 0
 463              		.cfi_startproc
 464 0000 182106F8 		e_stwu %r1,-8(%r1)
 465              	.LCFI6:
 466              		.cfi_def_cfa_offset 8
 467 0004 0080     		se_mflr %r0
 468 0006 D301     		se_stw %r0,12(%r1)
 469              		.cfi_offset 65, 4
 470              		.loc 1 244 0
 471 0008 70E0E000 		e_lis %r7,channels@ha
 472 000c 1CE70000 		e_la %r7,channels@l(%r7)
 473 0010 C277     		se_lwz %r7,8(%r7)
 474 0012 2A07     		se_cmpi %r7,0
 475 0014 7F800020 		e_mcrf %cr7,%cr0
 476 0018 7CE00026 		mfcr %r7
 477 001c 74E7E007 		e_rlwinm %r7,%r7,28,0xf0000000
 478 0020 7CE80120 		mtcrf 128,%r7
 479 0024 7A020008 		e_bne %cr0,.L15
 480              		.loc 1 245 0
 481 0028 78000001 		e_bl irqSysHalt
 482              	.L15:
 483              		.loc 1 247 0
 484 002c 70FEE40A 		e_lis %r7,0xf40a
 485 0030 6517     		se_bseti %r7,17
 486 0032 4826     		se_li %r6,2
 487 0034 34C7001C 		e_stb %r6,28(%r7)
 488              		.loc 1 248 0
 489 0038 70E0E000 		e_lis %r7,channels@ha
 490 003c 1CE70000 		e_la %r7,channels@l(%r7)
 491 0040 C277     		se_lwz %r7,8(%r7)
 492 0042 C277     		se_lwz %r7,8(%r7)
 493 0044 70C0E000 		e_lis %r6,channels@ha
 494 0048 1CC60000 		e_la %r6,channels@l(%r6)
 495 004c C266     		se_lwz %r6,8(%r6)
 496 004e C466     		se_lwz %r6,16(%r6)
 497 0050 4823     		se_li %r3,2
 498 0052 0164     		se_mr %r4,%r6
 499 0054 00B7     		se_mtctr %r7
 500 0056 0007     		se_bctrl
 501              		.loc 1 251 0
 502 0058 C301     		se_lwz %r0,12(%r1)
 503 005a 0090     		se_mtlr %r0
 504 005c 2071     		se_addi %r1,8
 505              	.LCFI7:
 506              		.cfi_def_cfa_offset 0
 507 005e 0004     		se_blr
 508              		.cfi_endproc
 509              	.LFE6:
GAS LISTING C:\Users\bayra\AppData\Local\Temp\ccMpacND.s 			page 10


 510              		.size	vector55, .-vector55
 511              		.section	.text.vector56,"axv",@progbits
 512              		.align 1
 513              		.p2align 4,,15
 514              		.globl vector56
 515              		.type	vector56, @function
 516              	vector56:
 517              	.LFB7:
 518              		.loc 1 261 0
 519              		.cfi_startproc
 520 0000 182106F8 		e_stwu %r1,-8(%r1)
 521              	.LCFI8:
 522              		.cfi_def_cfa_offset 8
 523 0004 0080     		se_mflr %r0
 524 0006 D301     		se_stw %r0,12(%r1)
 525              		.cfi_offset 65, 4
 526              		.loc 1 265 0
 527 0008 70E0E000 		e_lis %r7,channels@ha
 528 000c 1CE70000 		e_la %r7,channels@l(%r7)
 529 0010 C377     		se_lwz %r7,12(%r7)
 530 0012 2A07     		se_cmpi %r7,0
 531 0014 7F800020 		e_mcrf %cr7,%cr0
 532 0018 7CE00026 		mfcr %r7
 533 001c 74E7E007 		e_rlwinm %r7,%r7,28,0xf0000000
 534 0020 7CE80120 		mtcrf 128,%r7
 535 0024 7A020008 		e_bne %cr0,.L17
 536              		.loc 1 266 0
 537 0028 78000001 		e_bl irqSysHalt
 538              	.L17:
 539              		.loc 1 268 0
 540 002c 70FEE40A 		e_lis %r7,0xf40a
 541 0030 6517     		se_bseti %r7,17
 542 0032 4836     		se_li %r6,3
 543 0034 34C7001C 		e_stb %r6,28(%r7)
 544              		.loc 1 269 0
 545 0038 70E0E000 		e_lis %r7,channels@ha
 546 003c 1CE70000 		e_la %r7,channels@l(%r7)
 547 0040 C377     		se_lwz %r7,12(%r7)
 548 0042 C277     		se_lwz %r7,8(%r7)
 549 0044 70C0E000 		e_lis %r6,channels@ha
 550 0048 1CC60000 		e_la %r6,channels@l(%r6)
 551 004c C366     		se_lwz %r6,12(%r6)
 552 004e C466     		se_lwz %r6,16(%r6)
 553 0050 4833     		se_li %r3,3
 554 0052 0164     		se_mr %r4,%r6
 555 0054 00B7     		se_mtctr %r7
 556 0056 0007     		se_bctrl
 557              		.loc 1 272 0
 558 0058 C301     		se_lwz %r0,12(%r1)
 559 005a 0090     		se_mtlr %r0
 560 005c 2071     		se_addi %r1,8
 561              	.LCFI9:
 562              		.cfi_def_cfa_offset 0
 563 005e 0004     		se_blr
 564              		.cfi_endproc
 565              	.LFE7:
 566              		.size	vector56, .-vector56
GAS LISTING C:\Users\bayra\AppData\Local\Temp\ccMpacND.s 			page 11


 567              		.section	.text.vector57,"axv",@progbits
 568              		.align 1
 569              		.p2align 4,,15
 570              		.globl vector57
 571              		.type	vector57, @function
 572              	vector57:
 573              	.LFB8:
 574              		.loc 1 282 0
 575              		.cfi_startproc
 576 0000 182106F8 		e_stwu %r1,-8(%r1)
 577              	.LCFI10:
 578              		.cfi_def_cfa_offset 8
 579 0004 0080     		se_mflr %r0
 580 0006 D301     		se_stw %r0,12(%r1)
 581              		.cfi_offset 65, 4
 582              		.loc 1 286 0
 583 0008 70E0E000 		e_lis %r7,channels@ha
 584 000c 1CE70000 		e_la %r7,channels@l(%r7)
 585 0010 C477     		se_lwz %r7,16(%r7)
 586 0012 2A07     		se_cmpi %r7,0
 587 0014 7F800020 		e_mcrf %cr7,%cr0
 588 0018 7CE00026 		mfcr %r7
 589 001c 74E7E007 		e_rlwinm %r7,%r7,28,0xf0000000
 590 0020 7CE80120 		mtcrf 128,%r7
 591 0024 7A020008 		e_bne %cr0,.L19
 592              		.loc 1 287 0
 593 0028 78000001 		e_bl irqSysHalt
 594              	.L19:
 595              		.loc 1 289 0
 596 002c 70FEE40A 		e_lis %r7,0xf40a
 597 0030 6517     		se_bseti %r7,17
 598 0032 4846     		se_li %r6,4
 599 0034 34C7001C 		e_stb %r6,28(%r7)
 600              		.loc 1 290 0
 601 0038 70E0E000 		e_lis %r7,channels@ha
 602 003c 1CE70000 		e_la %r7,channels@l(%r7)
 603 0040 C477     		se_lwz %r7,16(%r7)
 604 0042 C277     		se_lwz %r7,8(%r7)
 605 0044 70C0E000 		e_lis %r6,channels@ha
 606 0048 1CC60000 		e_la %r6,channels@l(%r6)
 607 004c C466     		se_lwz %r6,16(%r6)
 608 004e C466     		se_lwz %r6,16(%r6)
 609 0050 4843     		se_li %r3,4
 610 0052 0164     		se_mr %r4,%r6
 611 0054 00B7     		se_mtctr %r7
 612 0056 0007     		se_bctrl
 613              		.loc 1 293 0
 614 0058 C301     		se_lwz %r0,12(%r1)
 615 005a 0090     		se_mtlr %r0
 616 005c 2071     		se_addi %r1,8
 617              	.LCFI11:
 618              		.cfi_def_cfa_offset 0
 619 005e 0004     		se_blr
 620              		.cfi_endproc
 621              	.LFE8:
 622              		.size	vector57, .-vector57
 623              		.section	.text.vector58,"axv",@progbits
GAS LISTING C:\Users\bayra\AppData\Local\Temp\ccMpacND.s 			page 12


 624              		.align 1
 625              		.p2align 4,,15
 626              		.globl vector58
 627              		.type	vector58, @function
 628              	vector58:
 629              	.LFB9:
 630              		.loc 1 303 0
 631              		.cfi_startproc
 632 0000 182106F8 		e_stwu %r1,-8(%r1)
 633              	.LCFI12:
 634              		.cfi_def_cfa_offset 8
 635 0004 0080     		se_mflr %r0
 636 0006 D301     		se_stw %r0,12(%r1)
 637              		.cfi_offset 65, 4
 638              		.loc 1 307 0
 639 0008 70E0E000 		e_lis %r7,channels@ha
 640 000c 1CE70000 		e_la %r7,channels@l(%r7)
 641 0010 C577     		se_lwz %r7,20(%r7)
 642 0012 2A07     		se_cmpi %r7,0
 643 0014 7F800020 		e_mcrf %cr7,%cr0
 644 0018 7CE00026 		mfcr %r7
 645 001c 74E7E007 		e_rlwinm %r7,%r7,28,0xf0000000
 646 0020 7CE80120 		mtcrf 128,%r7
 647 0024 7A020008 		e_bne %cr0,.L21
 648              		.loc 1 308 0
 649 0028 78000001 		e_bl irqSysHalt
 650              	.L21:
 651              		.loc 1 310 0
 652 002c 70FEE40A 		e_lis %r7,0xf40a
 653 0030 6517     		se_bseti %r7,17
 654 0032 4856     		se_li %r6,5
 655 0034 34C7001C 		e_stb %r6,28(%r7)
 656              		.loc 1 311 0
 657 0038 70E0E000 		e_lis %r7,channels@ha
 658 003c 1CE70000 		e_la %r7,channels@l(%r7)
 659 0040 C577     		se_lwz %r7,20(%r7)
 660 0042 C277     		se_lwz %r7,8(%r7)
 661 0044 70C0E000 		e_lis %r6,channels@ha
 662 0048 1CC60000 		e_la %r6,channels@l(%r6)
 663 004c C566     		se_lwz %r6,20(%r6)
 664 004e C466     		se_lwz %r6,16(%r6)
 665 0050 4853     		se_li %r3,5
 666 0052 0164     		se_mr %r4,%r6
 667 0054 00B7     		se_mtctr %r7
 668 0056 0007     		se_bctrl
 669              		.loc 1 314 0
 670 0058 C301     		se_lwz %r0,12(%r1)
 671 005a 0090     		se_mtlr %r0
 672 005c 2071     		se_addi %r1,8
 673              	.LCFI13:
 674              		.cfi_def_cfa_offset 0
 675 005e 0004     		se_blr
 676              		.cfi_endproc
 677              	.LFE9:
 678              		.size	vector58, .-vector58
 679              		.section	.text.vector59,"axv",@progbits
 680              		.align 1
GAS LISTING C:\Users\bayra\AppData\Local\Temp\ccMpacND.s 			page 13


 681              		.p2align 4,,15
 682              		.globl vector59
 683              		.type	vector59, @function
 684              	vector59:
 685              	.LFB10:
 686              		.loc 1 324 0
 687              		.cfi_startproc
 688 0000 182106F8 		e_stwu %r1,-8(%r1)
 689              	.LCFI14:
 690              		.cfi_def_cfa_offset 8
 691 0004 0080     		se_mflr %r0
 692 0006 D301     		se_stw %r0,12(%r1)
 693              		.cfi_offset 65, 4
 694              		.loc 1 328 0
 695 0008 70E0E000 		e_lis %r7,channels@ha
 696 000c 1CE70000 		e_la %r7,channels@l(%r7)
 697 0010 C677     		se_lwz %r7,24(%r7)
 698 0012 2A07     		se_cmpi %r7,0
 699 0014 7F800020 		e_mcrf %cr7,%cr0
 700 0018 7CE00026 		mfcr %r7
 701 001c 74E7E007 		e_rlwinm %r7,%r7,28,0xf0000000
 702 0020 7CE80120 		mtcrf 128,%r7
 703 0024 7A020008 		e_bne %cr0,.L23
 704              		.loc 1 329 0
 705 0028 78000001 		e_bl irqSysHalt
 706              	.L23:
 707              		.loc 1 331 0
 708 002c 70FEE40A 		e_lis %r7,0xf40a
 709 0030 6517     		se_bseti %r7,17
 710 0032 4866     		se_li %r6,6
 711 0034 34C7001C 		e_stb %r6,28(%r7)
 712              		.loc 1 332 0
 713 0038 70E0E000 		e_lis %r7,channels@ha
 714 003c 1CE70000 		e_la %r7,channels@l(%r7)
 715 0040 C677     		se_lwz %r7,24(%r7)
 716 0042 C277     		se_lwz %r7,8(%r7)
 717 0044 70C0E000 		e_lis %r6,channels@ha
 718 0048 1CC60000 		e_la %r6,channels@l(%r6)
 719 004c C666     		se_lwz %r6,24(%r6)
 720 004e C466     		se_lwz %r6,16(%r6)
 721 0050 4863     		se_li %r3,6
 722 0052 0164     		se_mr %r4,%r6
 723 0054 00B7     		se_mtctr %r7
 724 0056 0007     		se_bctrl
 725              		.loc 1 335 0
 726 0058 C301     		se_lwz %r0,12(%r1)
 727 005a 0090     		se_mtlr %r0
 728 005c 2071     		se_addi %r1,8
 729              	.LCFI15:
 730              		.cfi_def_cfa_offset 0
 731 005e 0004     		se_blr
 732              		.cfi_endproc
 733              	.LFE10:
 734              		.size	vector59, .-vector59
 735              		.section	.text.vector60,"axv",@progbits
 736              		.align 1
 737              		.p2align 4,,15
GAS LISTING C:\Users\bayra\AppData\Local\Temp\ccMpacND.s 			page 14


 738              		.globl vector60
 739              		.type	vector60, @function
 740              	vector60:
 741              	.LFB11:
 742              		.loc 1 345 0
 743              		.cfi_startproc
 744 0000 182106F8 		e_stwu %r1,-8(%r1)
 745              	.LCFI16:
 746              		.cfi_def_cfa_offset 8
 747 0004 0080     		se_mflr %r0
 748 0006 D301     		se_stw %r0,12(%r1)
 749              		.cfi_offset 65, 4
 750              		.loc 1 349 0
 751 0008 70E0E000 		e_lis %r7,channels@ha
 752 000c 1CE70000 		e_la %r7,channels@l(%r7)
 753 0010 C777     		se_lwz %r7,28(%r7)
 754 0012 2A07     		se_cmpi %r7,0
 755 0014 7F800020 		e_mcrf %cr7,%cr0
 756 0018 7CE00026 		mfcr %r7
 757 001c 74E7E007 		e_rlwinm %r7,%r7,28,0xf0000000
 758 0020 7CE80120 		mtcrf 128,%r7
 759 0024 7A020008 		e_bne %cr0,.L25
 760              		.loc 1 350 0
 761 0028 78000001 		e_bl irqSysHalt
 762              	.L25:
 763              		.loc 1 352 0
 764 002c 70FEE40A 		e_lis %r7,0xf40a
 765 0030 6517     		se_bseti %r7,17
 766 0032 4876     		se_li %r6,7
 767 0034 34C7001C 		e_stb %r6,28(%r7)
 768              		.loc 1 353 0
 769 0038 70E0E000 		e_lis %r7,channels@ha
 770 003c 1CE70000 		e_la %r7,channels@l(%r7)
 771 0040 C777     		se_lwz %r7,28(%r7)
 772 0042 C277     		se_lwz %r7,8(%r7)
 773 0044 70C0E000 		e_lis %r6,channels@ha
 774 0048 1CC60000 		e_la %r6,channels@l(%r6)
 775 004c C766     		se_lwz %r6,28(%r6)
 776 004e C466     		se_lwz %r6,16(%r6)
 777 0050 4873     		se_li %r3,7
 778 0052 0164     		se_mr %r4,%r6
 779 0054 00B7     		se_mtctr %r7
 780 0056 0007     		se_bctrl
 781              		.loc 1 356 0
 782 0058 C301     		se_lwz %r0,12(%r1)
 783 005a 0090     		se_mtlr %r0
 784 005c 2071     		se_addi %r1,8
 785              	.LCFI17:
 786              		.cfi_def_cfa_offset 0
 787 005e 0004     		se_blr
 788              		.cfi_endproc
 789              	.LFE11:
 790              		.size	vector60, .-vector60
 791              		.section	.text.vector61,"axv",@progbits
 792              		.align 1
 793              		.p2align 4,,15
 794              		.globl vector61
GAS LISTING C:\Users\bayra\AppData\Local\Temp\ccMpacND.s 			page 15


 795              		.type	vector61, @function
 796              	vector61:
 797              	.LFB12:
 798              		.loc 1 366 0
 799              		.cfi_startproc
 800 0000 182106F8 		e_stwu %r1,-8(%r1)
 801              	.LCFI18:
 802              		.cfi_def_cfa_offset 8
 803 0004 0080     		se_mflr %r0
 804 0006 D301     		se_stw %r0,12(%r1)
 805              		.cfi_offset 65, 4
 806              		.loc 1 370 0
 807 0008 70E0E000 		e_lis %r7,channels@ha
 808 000c 1CE70000 		e_la %r7,channels@l(%r7)
 809 0010 C877     		se_lwz %r7,32(%r7)
 810 0012 2A07     		se_cmpi %r7,0
 811 0014 7F800020 		e_mcrf %cr7,%cr0
 812 0018 7CE00026 		mfcr %r7
 813 001c 74E7E007 		e_rlwinm %r7,%r7,28,0xf0000000
 814 0020 7CE80120 		mtcrf 128,%r7
 815 0024 7A020008 		e_bne %cr0,.L27
 816              		.loc 1 371 0
 817 0028 78000001 		e_bl irqSysHalt
 818              	.L27:
 819              		.loc 1 373 0
 820 002c 70FEE40A 		e_lis %r7,0xf40a
 821 0030 6517     		se_bseti %r7,17
 822 0032 4886     		se_li %r6,8
 823 0034 34C7001C 		e_stb %r6,28(%r7)
 824              		.loc 1 374 0
 825 0038 70E0E000 		e_lis %r7,channels@ha
 826 003c 1CE70000 		e_la %r7,channels@l(%r7)
 827 0040 C877     		se_lwz %r7,32(%r7)
 828 0042 C277     		se_lwz %r7,8(%r7)
 829 0044 70C0E000 		e_lis %r6,channels@ha
 830 0048 1CC60000 		e_la %r6,channels@l(%r6)
 831 004c C866     		se_lwz %r6,32(%r6)
 832 004e C466     		se_lwz %r6,16(%r6)
 833 0050 4883     		se_li %r3,8
 834 0052 0164     		se_mr %r4,%r6
 835 0054 00B7     		se_mtctr %r7
 836 0056 0007     		se_bctrl
 837              		.loc 1 377 0
 838 0058 C301     		se_lwz %r0,12(%r1)
 839 005a 0090     		se_mtlr %r0
 840 005c 2071     		se_addi %r1,8
 841              	.LCFI19:
 842              		.cfi_def_cfa_offset 0
 843 005e 0004     		se_blr
 844              		.cfi_endproc
 845              	.LFE12:
 846              		.size	vector61, .-vector61
 847              		.section	.text.vector62,"axv",@progbits
 848              		.align 1
 849              		.p2align 4,,15
 850              		.globl vector62
 851              		.type	vector62, @function
GAS LISTING C:\Users\bayra\AppData\Local\Temp\ccMpacND.s 			page 16


 852              	vector62:
 853              	.LFB13:
 854              		.loc 1 387 0
 855              		.cfi_startproc
 856 0000 182106F8 		e_stwu %r1,-8(%r1)
 857              	.LCFI20:
 858              		.cfi_def_cfa_offset 8
 859 0004 0080     		se_mflr %r0
 860 0006 D301     		se_stw %r0,12(%r1)
 861              		.cfi_offset 65, 4
 862              		.loc 1 391 0
 863 0008 70E0E000 		e_lis %r7,channels@ha
 864 000c 1CE70000 		e_la %r7,channels@l(%r7)
 865 0010 C977     		se_lwz %r7,36(%r7)
 866 0012 2A07     		se_cmpi %r7,0
 867 0014 7F800020 		e_mcrf %cr7,%cr0
 868 0018 7CE00026 		mfcr %r7
 869 001c 74E7E007 		e_rlwinm %r7,%r7,28,0xf0000000
 870 0020 7CE80120 		mtcrf 128,%r7
 871 0024 7A020008 		e_bne %cr0,.L29
 872              		.loc 1 392 0
 873 0028 78000001 		e_bl irqSysHalt
 874              	.L29:
 875              		.loc 1 394 0
 876 002c 70FEE40A 		e_lis %r7,0xf40a
 877 0030 6517     		se_bseti %r7,17
 878 0032 4896     		se_li %r6,9
 879 0034 34C7001C 		e_stb %r6,28(%r7)
 880              		.loc 1 395 0
 881 0038 70E0E000 		e_lis %r7,channels@ha
 882 003c 1CE70000 		e_la %r7,channels@l(%r7)
 883 0040 C977     		se_lwz %r7,36(%r7)
 884 0042 C277     		se_lwz %r7,8(%r7)
 885 0044 70C0E000 		e_lis %r6,channels@ha
 886 0048 1CC60000 		e_la %r6,channels@l(%r6)
 887 004c C966     		se_lwz %r6,36(%r6)
 888 004e C466     		se_lwz %r6,16(%r6)
 889 0050 4893     		se_li %r3,9
 890 0052 0164     		se_mr %r4,%r6
 891 0054 00B7     		se_mtctr %r7
 892 0056 0007     		se_bctrl
 893              		.loc 1 398 0
 894 0058 C301     		se_lwz %r0,12(%r1)
 895 005a 0090     		se_mtlr %r0
 896 005c 2071     		se_addi %r1,8
 897              	.LCFI21:
 898              		.cfi_def_cfa_offset 0
 899 005e 0004     		se_blr
 900              		.cfi_endproc
 901              	.LFE13:
 902              		.size	vector62, .-vector62
 903              		.section	.text.vector63,"axv",@progbits
 904              		.align 1
 905              		.p2align 4,,15
 906              		.globl vector63
 907              		.type	vector63, @function
 908              	vector63:
GAS LISTING C:\Users\bayra\AppData\Local\Temp\ccMpacND.s 			page 17


 909              	.LFB14:
 910              		.loc 1 408 0
 911              		.cfi_startproc
 912 0000 182106F8 		e_stwu %r1,-8(%r1)
 913              	.LCFI22:
 914              		.cfi_def_cfa_offset 8
 915 0004 0080     		se_mflr %r0
 916 0006 D301     		se_stw %r0,12(%r1)
 917              		.cfi_offset 65, 4
 918              		.loc 1 412 0
 919 0008 70E0E000 		e_lis %r7,channels@ha
 920 000c 1CE70000 		e_la %r7,channels@l(%r7)
 921 0010 CA77     		se_lwz %r7,40(%r7)
 922 0012 2A07     		se_cmpi %r7,0
 923 0014 7F800020 		e_mcrf %cr7,%cr0
 924 0018 7CE00026 		mfcr %r7
 925 001c 74E7E007 		e_rlwinm %r7,%r7,28,0xf0000000
 926 0020 7CE80120 		mtcrf 128,%r7
 927 0024 7A020008 		e_bne %cr0,.L31
 928              		.loc 1 413 0
 929 0028 78000001 		e_bl irqSysHalt
 930              	.L31:
 931              		.loc 1 415 0
 932 002c 70FEE40A 		e_lis %r7,0xf40a
 933 0030 6517     		se_bseti %r7,17
 934 0032 48A6     		se_li %r6,10
 935 0034 34C7001C 		e_stb %r6,28(%r7)
 936              		.loc 1 416 0
 937 0038 70E0E000 		e_lis %r7,channels@ha
 938 003c 1CE70000 		e_la %r7,channels@l(%r7)
 939 0040 CA77     		se_lwz %r7,40(%r7)
 940 0042 C277     		se_lwz %r7,8(%r7)
 941 0044 70C0E000 		e_lis %r6,channels@ha
 942 0048 1CC60000 		e_la %r6,channels@l(%r6)
 943 004c CA66     		se_lwz %r6,40(%r6)
 944 004e C466     		se_lwz %r6,16(%r6)
 945 0050 48A3     		se_li %r3,10
 946 0052 0164     		se_mr %r4,%r6
 947 0054 00B7     		se_mtctr %r7
 948 0056 0007     		se_bctrl
 949              		.loc 1 419 0
 950 0058 C301     		se_lwz %r0,12(%r1)
 951 005a 0090     		se_mtlr %r0
 952 005c 2071     		se_addi %r1,8
 953              	.LCFI23:
 954              		.cfi_def_cfa_offset 0
 955 005e 0004     		se_blr
 956              		.cfi_endproc
 957              	.LFE14:
 958              		.size	vector63, .-vector63
 959              		.section	.text.vector64,"axv",@progbits
 960              		.align 1
 961              		.p2align 4,,15
 962              		.globl vector64
 963              		.type	vector64, @function
 964              	vector64:
 965              	.LFB15:
GAS LISTING C:\Users\bayra\AppData\Local\Temp\ccMpacND.s 			page 18


 966              		.loc 1 429 0
 967              		.cfi_startproc
 968 0000 182106F8 		e_stwu %r1,-8(%r1)
 969              	.LCFI24:
 970              		.cfi_def_cfa_offset 8
 971 0004 0080     		se_mflr %r0
 972 0006 D301     		se_stw %r0,12(%r1)
 973              		.cfi_offset 65, 4
 974              		.loc 1 433 0
 975 0008 70E0E000 		e_lis %r7,channels@ha
 976 000c 1CE70000 		e_la %r7,channels@l(%r7)
 977 0010 CB77     		se_lwz %r7,44(%r7)
 978 0012 2A07     		se_cmpi %r7,0
 979 0014 7F800020 		e_mcrf %cr7,%cr0
 980 0018 7CE00026 		mfcr %r7
 981 001c 74E7E007 		e_rlwinm %r7,%r7,28,0xf0000000
 982 0020 7CE80120 		mtcrf 128,%r7
 983 0024 7A020008 		e_bne %cr0,.L33
 984              		.loc 1 434 0
 985 0028 78000001 		e_bl irqSysHalt
 986              	.L33:
 987              		.loc 1 436 0
 988 002c 70FEE40A 		e_lis %r7,0xf40a
 989 0030 6517     		se_bseti %r7,17
 990 0032 48B6     		se_li %r6,11
 991 0034 34C7001C 		e_stb %r6,28(%r7)
 992              		.loc 1 437 0
 993 0038 70E0E000 		e_lis %r7,channels@ha
 994 003c 1CE70000 		e_la %r7,channels@l(%r7)
 995 0040 CB77     		se_lwz %r7,44(%r7)
 996 0042 C277     		se_lwz %r7,8(%r7)
 997 0044 70C0E000 		e_lis %r6,channels@ha
 998 0048 1CC60000 		e_la %r6,channels@l(%r6)
 999 004c CB66     		se_lwz %r6,44(%r6)
 1000 004e C466     		se_lwz %r6,16(%r6)
 1001 0050 48B3     		se_li %r3,11
 1002 0052 0164     		se_mr %r4,%r6
 1003 0054 00B7     		se_mtctr %r7
 1004 0056 0007     		se_bctrl
 1005              		.loc 1 440 0
 1006 0058 C301     		se_lwz %r0,12(%r1)
 1007 005a 0090     		se_mtlr %r0
 1008 005c 2071     		se_addi %r1,8
 1009              	.LCFI25:
 1010              		.cfi_def_cfa_offset 0
 1011 005e 0004     		se_blr
 1012              		.cfi_endproc
 1013              	.LFE15:
 1014              		.size	vector64, .-vector64
 1015              		.section	.text.vector65,"axv",@progbits
 1016              		.align 1
 1017              		.p2align 4,,15
 1018              		.globl vector65
 1019              		.type	vector65, @function
 1020              	vector65:
 1021              	.LFB16:
 1022              		.loc 1 450 0
GAS LISTING C:\Users\bayra\AppData\Local\Temp\ccMpacND.s 			page 19


 1023              		.cfi_startproc
 1024 0000 182106F8 		e_stwu %r1,-8(%r1)
 1025              	.LCFI26:
 1026              		.cfi_def_cfa_offset 8
 1027 0004 0080     		se_mflr %r0
 1028 0006 D301     		se_stw %r0,12(%r1)
 1029              		.cfi_offset 65, 4
 1030              		.loc 1 454 0
 1031 0008 70E0E000 		e_lis %r7,channels@ha
 1032 000c 1CE70000 		e_la %r7,channels@l(%r7)
 1033 0010 CC77     		se_lwz %r7,48(%r7)
 1034 0012 2A07     		se_cmpi %r7,0
 1035 0014 7F800020 		e_mcrf %cr7,%cr0
 1036 0018 7CE00026 		mfcr %r7
 1037 001c 74E7E007 		e_rlwinm %r7,%r7,28,0xf0000000
 1038 0020 7CE80120 		mtcrf 128,%r7
 1039 0024 7A020008 		e_bne %cr0,.L35
 1040              		.loc 1 455 0
 1041 0028 78000001 		e_bl irqSysHalt
 1042              	.L35:
 1043              		.loc 1 457 0
 1044 002c 70FEE40A 		e_lis %r7,0xf40a
 1045 0030 6517     		se_bseti %r7,17
 1046 0032 48C6     		se_li %r6,12
 1047 0034 34C7001C 		e_stb %r6,28(%r7)
 1048              		.loc 1 458 0
 1049 0038 70E0E000 		e_lis %r7,channels@ha
 1050 003c 1CE70000 		e_la %r7,channels@l(%r7)
 1051 0040 CC77     		se_lwz %r7,48(%r7)
 1052 0042 C277     		se_lwz %r7,8(%r7)
 1053 0044 70C0E000 		e_lis %r6,channels@ha
 1054 0048 1CC60000 		e_la %r6,channels@l(%r6)
 1055 004c CC66     		se_lwz %r6,48(%r6)
 1056 004e C466     		se_lwz %r6,16(%r6)
 1057 0050 48C3     		se_li %r3,12
 1058 0052 0164     		se_mr %r4,%r6
 1059 0054 00B7     		se_mtctr %r7
 1060 0056 0007     		se_bctrl
 1061              		.loc 1 461 0
 1062 0058 C301     		se_lwz %r0,12(%r1)
 1063 005a 0090     		se_mtlr %r0
 1064 005c 2071     		se_addi %r1,8
 1065              	.LCFI27:
 1066              		.cfi_def_cfa_offset 0
 1067 005e 0004     		se_blr
 1068              		.cfi_endproc
 1069              	.LFE16:
 1070              		.size	vector65, .-vector65
 1071              		.section	.text.vector66,"axv",@progbits
 1072              		.align 1
 1073              		.p2align 4,,15
 1074              		.globl vector66
 1075              		.type	vector66, @function
 1076              	vector66:
 1077              	.LFB17:
 1078              		.loc 1 471 0
 1079              		.cfi_startproc
GAS LISTING C:\Users\bayra\AppData\Local\Temp\ccMpacND.s 			page 20


 1080 0000 182106F8 		e_stwu %r1,-8(%r1)
 1081              	.LCFI28:
 1082              		.cfi_def_cfa_offset 8
 1083 0004 0080     		se_mflr %r0
 1084 0006 D301     		se_stw %r0,12(%r1)
 1085              		.cfi_offset 65, 4
 1086              		.loc 1 475 0
 1087 0008 70E0E000 		e_lis %r7,channels@ha
 1088 000c 1CE70000 		e_la %r7,channels@l(%r7)
 1089 0010 CD77     		se_lwz %r7,52(%r7)
 1090 0012 2A07     		se_cmpi %r7,0
 1091 0014 7F800020 		e_mcrf %cr7,%cr0
 1092 0018 7CE00026 		mfcr %r7
 1093 001c 74E7E007 		e_rlwinm %r7,%r7,28,0xf0000000
 1094 0020 7CE80120 		mtcrf 128,%r7
 1095 0024 7A020008 		e_bne %cr0,.L37
 1096              		.loc 1 476 0
 1097 0028 78000001 		e_bl irqSysHalt
 1098              	.L37:
 1099              		.loc 1 478 0
 1100 002c 70FEE40A 		e_lis %r7,0xf40a
 1101 0030 6517     		se_bseti %r7,17
 1102 0032 48D6     		se_li %r6,13
 1103 0034 34C7001C 		e_stb %r6,28(%r7)
 1104              		.loc 1 479 0
 1105 0038 70E0E000 		e_lis %r7,channels@ha
 1106 003c 1CE70000 		e_la %r7,channels@l(%r7)
 1107 0040 CD77     		se_lwz %r7,52(%r7)
 1108 0042 C277     		se_lwz %r7,8(%r7)
 1109 0044 70C0E000 		e_lis %r6,channels@ha
 1110 0048 1CC60000 		e_la %r6,channels@l(%r6)
 1111 004c CD66     		se_lwz %r6,52(%r6)
 1112 004e C466     		se_lwz %r6,16(%r6)
 1113 0050 48D3     		se_li %r3,13
 1114 0052 0164     		se_mr %r4,%r6
 1115 0054 00B7     		se_mtctr %r7
 1116 0056 0007     		se_bctrl
 1117              		.loc 1 482 0
 1118 0058 C301     		se_lwz %r0,12(%r1)
 1119 005a 0090     		se_mtlr %r0
 1120 005c 2071     		se_addi %r1,8
 1121              	.LCFI29:
 1122              		.cfi_def_cfa_offset 0
 1123 005e 0004     		se_blr
 1124              		.cfi_endproc
 1125              	.LFE17:
 1126              		.size	vector66, .-vector66
 1127              		.section	.text.vector67,"axv",@progbits
 1128              		.align 1
 1129              		.p2align 4,,15
 1130              		.globl vector67
 1131              		.type	vector67, @function
 1132              	vector67:
 1133              	.LFB18:
 1134              		.loc 1 492 0
 1135              		.cfi_startproc
 1136 0000 182106F8 		e_stwu %r1,-8(%r1)
GAS LISTING C:\Users\bayra\AppData\Local\Temp\ccMpacND.s 			page 21


 1137              	.LCFI30:
 1138              		.cfi_def_cfa_offset 8
 1139 0004 0080     		se_mflr %r0
 1140 0006 D301     		se_stw %r0,12(%r1)
 1141              		.cfi_offset 65, 4
 1142              		.loc 1 496 0
 1143 0008 70E0E000 		e_lis %r7,channels@ha
 1144 000c 1CE70000 		e_la %r7,channels@l(%r7)
 1145 0010 CE77     		se_lwz %r7,56(%r7)
 1146 0012 2A07     		se_cmpi %r7,0
 1147 0014 7F800020 		e_mcrf %cr7,%cr0
 1148 0018 7CE00026 		mfcr %r7
 1149 001c 74E7E007 		e_rlwinm %r7,%r7,28,0xf0000000
 1150 0020 7CE80120 		mtcrf 128,%r7
 1151 0024 7A020008 		e_bne %cr0,.L39
 1152              		.loc 1 497 0
 1153 0028 78000001 		e_bl irqSysHalt
 1154              	.L39:
 1155              		.loc 1 499 0
 1156 002c 70FEE40A 		e_lis %r7,0xf40a
 1157 0030 6517     		se_bseti %r7,17
 1158 0032 48E6     		se_li %r6,14
 1159 0034 34C7001C 		e_stb %r6,28(%r7)
 1160              		.loc 1 500 0
 1161 0038 70E0E000 		e_lis %r7,channels@ha
 1162 003c 1CE70000 		e_la %r7,channels@l(%r7)
 1163 0040 CE77     		se_lwz %r7,56(%r7)
 1164 0042 C277     		se_lwz %r7,8(%r7)
 1165 0044 70C0E000 		e_lis %r6,channels@ha
 1166 0048 1CC60000 		e_la %r6,channels@l(%r6)
 1167 004c CE66     		se_lwz %r6,56(%r6)
 1168 004e C466     		se_lwz %r6,16(%r6)
 1169 0050 48E3     		se_li %r3,14
 1170 0052 0164     		se_mr %r4,%r6
 1171 0054 00B7     		se_mtctr %r7
 1172 0056 0007     		se_bctrl
 1173              		.loc 1 503 0
 1174 0058 C301     		se_lwz %r0,12(%r1)
 1175 005a 0090     		se_mtlr %r0
 1176 005c 2071     		se_addi %r1,8
 1177              	.LCFI31:
 1178              		.cfi_def_cfa_offset 0
 1179 005e 0004     		se_blr
 1180              		.cfi_endproc
 1181              	.LFE18:
 1182              		.size	vector67, .-vector67
 1183              		.section	.text.vector68,"axv",@progbits
 1184              		.align 1
 1185              		.p2align 4,,15
 1186              		.globl vector68
 1187              		.type	vector68, @function
 1188              	vector68:
 1189              	.LFB19:
 1190              		.loc 1 513 0
 1191              		.cfi_startproc
 1192 0000 182106F8 		e_stwu %r1,-8(%r1)
 1193              	.LCFI32:
GAS LISTING C:\Users\bayra\AppData\Local\Temp\ccMpacND.s 			page 22


 1194              		.cfi_def_cfa_offset 8
 1195 0004 0080     		se_mflr %r0
 1196 0006 D301     		se_stw %r0,12(%r1)
 1197              		.cfi_offset 65, 4
 1198              		.loc 1 517 0
 1199 0008 70E0E000 		e_lis %r7,channels@ha
 1200 000c 1CE70000 		e_la %r7,channels@l(%r7)
 1201 0010 CF77     		se_lwz %r7,60(%r7)
 1202 0012 2A07     		se_cmpi %r7,0
 1203 0014 7F800020 		e_mcrf %cr7,%cr0
 1204 0018 7CE00026 		mfcr %r7
 1205 001c 74E7E007 		e_rlwinm %r7,%r7,28,0xf0000000
 1206 0020 7CE80120 		mtcrf 128,%r7
 1207 0024 7A020008 		e_bne %cr0,.L41
 1208              		.loc 1 518 0
 1209 0028 78000001 		e_bl irqSysHalt
 1210              	.L41:
 1211              		.loc 1 520 0
 1212 002c 70FEE40A 		e_lis %r7,0xf40a
 1213 0030 6517     		se_bseti %r7,17
 1214 0032 48F6     		se_li %r6,15
 1215 0034 34C7001C 		e_stb %r6,28(%r7)
 1216              		.loc 1 521 0
 1217 0038 70E0E000 		e_lis %r7,channels@ha
 1218 003c 1CE70000 		e_la %r7,channels@l(%r7)
 1219 0040 CF77     		se_lwz %r7,60(%r7)
 1220 0042 C277     		se_lwz %r7,8(%r7)
 1221 0044 70C0E000 		e_lis %r6,channels@ha
 1222 0048 1CC60000 		e_la %r6,channels@l(%r6)
 1223 004c CF66     		se_lwz %r6,60(%r6)
 1224 004e C466     		se_lwz %r6,16(%r6)
 1225 0050 48F3     		se_li %r3,15
 1226 0052 0164     		se_mr %r4,%r6
 1227 0054 00B7     		se_mtctr %r7
 1228 0056 0007     		se_bctrl
 1229              		.loc 1 524 0
 1230 0058 C301     		se_lwz %r0,12(%r1)
 1231 005a 0090     		se_mtlr %r0
 1232 005c 2071     		se_addi %r1,8
 1233              	.LCFI33:
 1234              		.cfi_def_cfa_offset 0
 1235 005e 0004     		se_blr
 1236              		.cfi_endproc
 1237              	.LFE19:
 1238              		.size	vector68, .-vector68
 1239              		.section	.text.vector69,"axv",@progbits
 1240              		.align 1
 1241              		.p2align 4,,15
 1242              		.globl vector69
 1243              		.type	vector69, @function
 1244              	vector69:
 1245              	.LFB20:
 1246              		.loc 1 535 0
 1247              		.cfi_startproc
 1248 0000 182106F8 		e_stwu %r1,-8(%r1)
 1249              	.LCFI34:
 1250              		.cfi_def_cfa_offset 8
GAS LISTING C:\Users\bayra\AppData\Local\Temp\ccMpacND.s 			page 23


 1251 0004 0080     		se_mflr %r0
 1252 0006 D301     		se_stw %r0,12(%r1)
 1253              		.cfi_offset 65, 4
 1254              		.loc 1 539 0
 1255 0008 70E0E000 		e_lis %r7,channels@ha
 1256 000c 1CE70000 		e_la %r7,channels@l(%r7)
 1257 0010 50E70040 		e_lwz %r7,64(%r7)
 1258 0014 2A07     		se_cmpi %r7,0
 1259 0016 7F800020 		e_mcrf %cr7,%cr0
 1260 001a 7CE00026 		mfcr %r7
 1261 001e 74E7E007 		e_rlwinm %r7,%r7,28,0xf0000000
 1262 0022 7CE80120 		mtcrf 128,%r7
 1263 0026 7A020008 		e_bne %cr0,.L43
 1264              		.loc 1 540 0
 1265 002a 78000001 		e_bl irqSysHalt
 1266              	.L43:
 1267              		.loc 1 542 0
 1268 002e 70FEE40A 		e_lis %r7,0xf40a
 1269 0032 6517     		se_bseti %r7,17
 1270 0034 4906     		se_li %r6,16
 1271 0036 34C7001C 		e_stb %r6,28(%r7)
 1272              		.loc 1 543 0
 1273 003a 70E0E000 		e_lis %r7,channels@ha
 1274 003e 1CE70000 		e_la %r7,channels@l(%r7)
 1275 0042 50E70040 		e_lwz %r7,64(%r7)
 1276 0046 C277     		se_lwz %r7,8(%r7)
 1277 0048 70C0E000 		e_lis %r6,channels@ha
 1278 004c 1CC60000 		e_la %r6,channels@l(%r6)
 1279 0050 50C60040 		e_lwz %r6,64(%r6)
 1280 0054 C466     		se_lwz %r6,16(%r6)
 1281 0056 4903     		se_li %r3,16
 1282 0058 0164     		se_mr %r4,%r6
 1283 005a 00B7     		se_mtctr %r7
 1284 005c 0007     		se_bctrl
 1285              		.loc 1 546 0
 1286 005e C301     		se_lwz %r0,12(%r1)
 1287 0060 0090     		se_mtlr %r0
 1288 0062 2071     		se_addi %r1,8
 1289              	.LCFI35:
 1290              		.cfi_def_cfa_offset 0
 1291 0064 0004     		se_blr
 1292              		.cfi_endproc
 1293              	.LFE20:
 1294              		.size	vector69, .-vector69
 1295              		.section	.text.vector70,"axv",@progbits
 1296              		.align 1
 1297              		.p2align 4,,15
 1298              		.globl vector70
 1299              		.type	vector70, @function
 1300              	vector70:
 1301              	.LFB21:
 1302              		.loc 1 556 0
 1303              		.cfi_startproc
 1304 0000 182106F8 		e_stwu %r1,-8(%r1)
 1305              	.LCFI36:
 1306              		.cfi_def_cfa_offset 8
 1307 0004 0080     		se_mflr %r0
GAS LISTING C:\Users\bayra\AppData\Local\Temp\ccMpacND.s 			page 24


 1308 0006 D301     		se_stw %r0,12(%r1)
 1309              		.cfi_offset 65, 4
 1310              		.loc 1 560 0
 1311 0008 70E0E000 		e_lis %r7,channels@ha
 1312 000c 1CE70000 		e_la %r7,channels@l(%r7)
 1313 0010 50E70044 		e_lwz %r7,68(%r7)
 1314 0014 2A07     		se_cmpi %r7,0
 1315 0016 7F800020 		e_mcrf %cr7,%cr0
 1316 001a 7CE00026 		mfcr %r7
 1317 001e 74E7E007 		e_rlwinm %r7,%r7,28,0xf0000000
 1318 0022 7CE80120 		mtcrf 128,%r7
 1319 0026 7A020008 		e_bne %cr0,.L45
 1320              		.loc 1 561 0
 1321 002a 78000001 		e_bl irqSysHalt
 1322              	.L45:
 1323              		.loc 1 563 0
 1324 002e 70FEE40A 		e_lis %r7,0xf40a
 1325 0032 6517     		se_bseti %r7,17
 1326 0034 4916     		se_li %r6,17
 1327 0036 34C7001C 		e_stb %r6,28(%r7)
 1328              		.loc 1 564 0
 1329 003a 70E0E000 		e_lis %r7,channels@ha
 1330 003e 1CE70000 		e_la %r7,channels@l(%r7)
 1331 0042 50E70044 		e_lwz %r7,68(%r7)
 1332 0046 C277     		se_lwz %r7,8(%r7)
 1333 0048 70C0E000 		e_lis %r6,channels@ha
 1334 004c 1CC60000 		e_la %r6,channels@l(%r6)
 1335 0050 50C60044 		e_lwz %r6,68(%r6)
 1336 0054 C466     		se_lwz %r6,16(%r6)
 1337 0056 4913     		se_li %r3,17
 1338 0058 0164     		se_mr %r4,%r6
 1339 005a 00B7     		se_mtctr %r7
 1340 005c 0007     		se_bctrl
 1341              		.loc 1 567 0
 1342 005e C301     		se_lwz %r0,12(%r1)
 1343 0060 0090     		se_mtlr %r0
 1344 0062 2071     		se_addi %r1,8
 1345              	.LCFI37:
 1346              		.cfi_def_cfa_offset 0
 1347 0064 0004     		se_blr
 1348              		.cfi_endproc
 1349              	.LFE21:
 1350              		.size	vector70, .-vector70
 1351              		.section	.text.vector71,"axv",@progbits
 1352              		.align 1
 1353              		.p2align 4,,15
 1354              		.globl vector71
 1355              		.type	vector71, @function
 1356              	vector71:
 1357              	.LFB22:
 1358              		.loc 1 577 0
 1359              		.cfi_startproc
 1360 0000 182106F8 		e_stwu %r1,-8(%r1)
 1361              	.LCFI38:
 1362              		.cfi_def_cfa_offset 8
 1363 0004 0080     		se_mflr %r0
 1364 0006 D301     		se_stw %r0,12(%r1)
GAS LISTING C:\Users\bayra\AppData\Local\Temp\ccMpacND.s 			page 25


 1365              		.cfi_offset 65, 4
 1366              		.loc 1 581 0
 1367 0008 70E0E000 		e_lis %r7,channels@ha
 1368 000c 1CE70000 		e_la %r7,channels@l(%r7)
 1369 0010 50E70048 		e_lwz %r7,72(%r7)
 1370 0014 2A07     		se_cmpi %r7,0
 1371 0016 7F800020 		e_mcrf %cr7,%cr0
 1372 001a 7CE00026 		mfcr %r7
 1373 001e 74E7E007 		e_rlwinm %r7,%r7,28,0xf0000000
 1374 0022 7CE80120 		mtcrf 128,%r7
 1375 0026 7A020008 		e_bne %cr0,.L47
 1376              		.loc 1 582 0
 1377 002a 78000001 		e_bl irqSysHalt
 1378              	.L47:
 1379              		.loc 1 584 0
 1380 002e 70FEE40A 		e_lis %r7,0xf40a
 1381 0032 6517     		se_bseti %r7,17
 1382 0034 4926     		se_li %r6,18
 1383 0036 34C7001C 		e_stb %r6,28(%r7)
 1384              		.loc 1 585 0
 1385 003a 70E0E000 		e_lis %r7,channels@ha
 1386 003e 1CE70000 		e_la %r7,channels@l(%r7)
 1387 0042 50E70048 		e_lwz %r7,72(%r7)
 1388 0046 C277     		se_lwz %r7,8(%r7)
 1389 0048 70C0E000 		e_lis %r6,channels@ha
 1390 004c 1CC60000 		e_la %r6,channels@l(%r6)
 1391 0050 50C60048 		e_lwz %r6,72(%r6)
 1392 0054 C466     		se_lwz %r6,16(%r6)
 1393 0056 4923     		se_li %r3,18
 1394 0058 0164     		se_mr %r4,%r6
 1395 005a 00B7     		se_mtctr %r7
 1396 005c 0007     		se_bctrl
 1397              		.loc 1 588 0
 1398 005e C301     		se_lwz %r0,12(%r1)
 1399 0060 0090     		se_mtlr %r0
 1400 0062 2071     		se_addi %r1,8
 1401              	.LCFI39:
 1402              		.cfi_def_cfa_offset 0
 1403 0064 0004     		se_blr
 1404              		.cfi_endproc
 1405              	.LFE22:
 1406              		.size	vector71, .-vector71
 1407              		.section	.text.vector72,"axv",@progbits
 1408              		.align 1
 1409              		.p2align 4,,15
 1410              		.globl vector72
 1411              		.type	vector72, @function
 1412              	vector72:
 1413              	.LFB23:
 1414              		.loc 1 598 0
 1415              		.cfi_startproc
 1416 0000 182106F8 		e_stwu %r1,-8(%r1)
 1417              	.LCFI40:
 1418              		.cfi_def_cfa_offset 8
 1419 0004 0080     		se_mflr %r0
 1420 0006 D301     		se_stw %r0,12(%r1)
 1421              		.cfi_offset 65, 4
GAS LISTING C:\Users\bayra\AppData\Local\Temp\ccMpacND.s 			page 26


 1422              		.loc 1 602 0
 1423 0008 70E0E000 		e_lis %r7,channels@ha
 1424 000c 1CE70000 		e_la %r7,channels@l(%r7)
 1425 0010 50E7004C 		e_lwz %r7,76(%r7)
 1426 0014 2A07     		se_cmpi %r7,0
 1427 0016 7F800020 		e_mcrf %cr7,%cr0
 1428 001a 7CE00026 		mfcr %r7
 1429 001e 74E7E007 		e_rlwinm %r7,%r7,28,0xf0000000
 1430 0022 7CE80120 		mtcrf 128,%r7
 1431 0026 7A020008 		e_bne %cr0,.L49
 1432              		.loc 1 603 0
 1433 002a 78000001 		e_bl irqSysHalt
 1434              	.L49:
 1435              		.loc 1 605 0
 1436 002e 70FEE40A 		e_lis %r7,0xf40a
 1437 0032 6517     		se_bseti %r7,17
 1438 0034 4936     		se_li %r6,19
 1439 0036 34C7001C 		e_stb %r6,28(%r7)
 1440              		.loc 1 606 0
 1441 003a 70E0E000 		e_lis %r7,channels@ha
 1442 003e 1CE70000 		e_la %r7,channels@l(%r7)
 1443 0042 50E7004C 		e_lwz %r7,76(%r7)
 1444 0046 C277     		se_lwz %r7,8(%r7)
 1445 0048 70C0E000 		e_lis %r6,channels@ha
 1446 004c 1CC60000 		e_la %r6,channels@l(%r6)
 1447 0050 50C6004C 		e_lwz %r6,76(%r6)
 1448 0054 C466     		se_lwz %r6,16(%r6)
 1449 0056 4933     		se_li %r3,19
 1450 0058 0164     		se_mr %r4,%r6
 1451 005a 00B7     		se_mtctr %r7
 1452 005c 0007     		se_bctrl
 1453              		.loc 1 609 0
 1454 005e C301     		se_lwz %r0,12(%r1)
 1455 0060 0090     		se_mtlr %r0
 1456 0062 2071     		se_addi %r1,8
 1457              	.LCFI41:
 1458              		.cfi_def_cfa_offset 0
 1459 0064 0004     		se_blr
 1460              		.cfi_endproc
 1461              	.LFE23:
 1462              		.size	vector72, .-vector72
 1463              		.section	.text.vector73,"axv",@progbits
 1464              		.align 1
 1465              		.p2align 4,,15
 1466              		.globl vector73
 1467              		.type	vector73, @function
 1468              	vector73:
 1469              	.LFB24:
 1470              		.loc 1 619 0
 1471              		.cfi_startproc
 1472 0000 182106F8 		e_stwu %r1,-8(%r1)
 1473              	.LCFI42:
 1474              		.cfi_def_cfa_offset 8
 1475 0004 0080     		se_mflr %r0
 1476 0006 D301     		se_stw %r0,12(%r1)
 1477              		.cfi_offset 65, 4
 1478              		.loc 1 623 0
GAS LISTING C:\Users\bayra\AppData\Local\Temp\ccMpacND.s 			page 27


 1479 0008 70E0E000 		e_lis %r7,channels@ha
 1480 000c 1CE70000 		e_la %r7,channels@l(%r7)
 1481 0010 50E70050 		e_lwz %r7,80(%r7)
 1482 0014 2A07     		se_cmpi %r7,0
 1483 0016 7F800020 		e_mcrf %cr7,%cr0
 1484 001a 7CE00026 		mfcr %r7
 1485 001e 74E7E007 		e_rlwinm %r7,%r7,28,0xf0000000
 1486 0022 7CE80120 		mtcrf 128,%r7
 1487 0026 7A020008 		e_bne %cr0,.L51
 1488              		.loc 1 624 0
 1489 002a 78000001 		e_bl irqSysHalt
 1490              	.L51:
 1491              		.loc 1 626 0
 1492 002e 70FEE40A 		e_lis %r7,0xf40a
 1493 0032 6517     		se_bseti %r7,17
 1494 0034 4946     		se_li %r6,20
 1495 0036 34C7001C 		e_stb %r6,28(%r7)
 1496              		.loc 1 627 0
 1497 003a 70E0E000 		e_lis %r7,channels@ha
 1498 003e 1CE70000 		e_la %r7,channels@l(%r7)
 1499 0042 50E70050 		e_lwz %r7,80(%r7)
 1500 0046 C277     		se_lwz %r7,8(%r7)
 1501 0048 70C0E000 		e_lis %r6,channels@ha
 1502 004c 1CC60000 		e_la %r6,channels@l(%r6)
 1503 0050 50C60050 		e_lwz %r6,80(%r6)
 1504 0054 C466     		se_lwz %r6,16(%r6)
 1505 0056 4943     		se_li %r3,20
 1506 0058 0164     		se_mr %r4,%r6
 1507 005a 00B7     		se_mtctr %r7
 1508 005c 0007     		se_bctrl
 1509              		.loc 1 630 0
 1510 005e C301     		se_lwz %r0,12(%r1)
 1511 0060 0090     		se_mtlr %r0
 1512 0062 2071     		se_addi %r1,8
 1513              	.LCFI43:
 1514              		.cfi_def_cfa_offset 0
 1515 0064 0004     		se_blr
 1516              		.cfi_endproc
 1517              	.LFE24:
 1518              		.size	vector73, .-vector73
 1519              		.section	.text.vector74,"axv",@progbits
 1520              		.align 1
 1521              		.p2align 4,,15
 1522              		.globl vector74
 1523              		.type	vector74, @function
 1524              	vector74:
 1525              	.LFB25:
 1526              		.loc 1 640 0
 1527              		.cfi_startproc
 1528 0000 182106F8 		e_stwu %r1,-8(%r1)
 1529              	.LCFI44:
 1530              		.cfi_def_cfa_offset 8
 1531 0004 0080     		se_mflr %r0
 1532 0006 D301     		se_stw %r0,12(%r1)
 1533              		.cfi_offset 65, 4
 1534              		.loc 1 644 0
 1535 0008 70E0E000 		e_lis %r7,channels@ha
GAS LISTING C:\Users\bayra\AppData\Local\Temp\ccMpacND.s 			page 28


 1536 000c 1CE70000 		e_la %r7,channels@l(%r7)
 1537 0010 50E70054 		e_lwz %r7,84(%r7)
 1538 0014 2A07     		se_cmpi %r7,0
 1539 0016 7F800020 		e_mcrf %cr7,%cr0
 1540 001a 7CE00026 		mfcr %r7
 1541 001e 74E7E007 		e_rlwinm %r7,%r7,28,0xf0000000
 1542 0022 7CE80120 		mtcrf 128,%r7
 1543 0026 7A020008 		e_bne %cr0,.L53
 1544              		.loc 1 645 0
 1545 002a 78000001 		e_bl irqSysHalt
 1546              	.L53:
 1547              		.loc 1 647 0
 1548 002e 70FEE40A 		e_lis %r7,0xf40a
 1549 0032 6517     		se_bseti %r7,17
 1550 0034 4956     		se_li %r6,21
 1551 0036 34C7001C 		e_stb %r6,28(%r7)
 1552              		.loc 1 648 0
 1553 003a 70E0E000 		e_lis %r7,channels@ha
 1554 003e 1CE70000 		e_la %r7,channels@l(%r7)
 1555 0042 50E70054 		e_lwz %r7,84(%r7)
 1556 0046 C277     		se_lwz %r7,8(%r7)
 1557 0048 70C0E000 		e_lis %r6,channels@ha
 1558 004c 1CC60000 		e_la %r6,channels@l(%r6)
 1559 0050 50C60054 		e_lwz %r6,84(%r6)
 1560 0054 C466     		se_lwz %r6,16(%r6)
 1561 0056 4953     		se_li %r3,21
 1562 0058 0164     		se_mr %r4,%r6
 1563 005a 00B7     		se_mtctr %r7
 1564 005c 0007     		se_bctrl
 1565              		.loc 1 651 0
 1566 005e C301     		se_lwz %r0,12(%r1)
 1567 0060 0090     		se_mtlr %r0
 1568 0062 2071     		se_addi %r1,8
 1569              	.LCFI45:
 1570              		.cfi_def_cfa_offset 0
 1571 0064 0004     		se_blr
 1572              		.cfi_endproc
 1573              	.LFE25:
 1574              		.size	vector74, .-vector74
 1575              		.section	.text.vector75,"axv",@progbits
 1576              		.align 1
 1577              		.p2align 4,,15
 1578              		.globl vector75
 1579              		.type	vector75, @function
 1580              	vector75:
 1581              	.LFB26:
 1582              		.loc 1 661 0
 1583              		.cfi_startproc
 1584 0000 182106F8 		e_stwu %r1,-8(%r1)
 1585              	.LCFI46:
 1586              		.cfi_def_cfa_offset 8
 1587 0004 0080     		se_mflr %r0
 1588 0006 D301     		se_stw %r0,12(%r1)
 1589              		.cfi_offset 65, 4
 1590              		.loc 1 665 0
 1591 0008 70E0E000 		e_lis %r7,channels@ha
 1592 000c 1CE70000 		e_la %r7,channels@l(%r7)
GAS LISTING C:\Users\bayra\AppData\Local\Temp\ccMpacND.s 			page 29


 1593 0010 50E70058 		e_lwz %r7,88(%r7)
 1594 0014 2A07     		se_cmpi %r7,0
 1595 0016 7F800020 		e_mcrf %cr7,%cr0
 1596 001a 7CE00026 		mfcr %r7
 1597 001e 74E7E007 		e_rlwinm %r7,%r7,28,0xf0000000
 1598 0022 7CE80120 		mtcrf 128,%r7
 1599 0026 7A020008 		e_bne %cr0,.L55
 1600              		.loc 1 666 0
 1601 002a 78000001 		e_bl irqSysHalt
 1602              	.L55:
 1603              		.loc 1 668 0
 1604 002e 70FEE40A 		e_lis %r7,0xf40a
 1605 0032 6517     		se_bseti %r7,17
 1606 0034 4966     		se_li %r6,22
 1607 0036 34C7001C 		e_stb %r6,28(%r7)
 1608              		.loc 1 669 0
 1609 003a 70E0E000 		e_lis %r7,channels@ha
 1610 003e 1CE70000 		e_la %r7,channels@l(%r7)
 1611 0042 50E70058 		e_lwz %r7,88(%r7)
 1612 0046 C277     		se_lwz %r7,8(%r7)
 1613 0048 70C0E000 		e_lis %r6,channels@ha
 1614 004c 1CC60000 		e_la %r6,channels@l(%r6)
 1615 0050 50C60058 		e_lwz %r6,88(%r6)
 1616 0054 C466     		se_lwz %r6,16(%r6)
 1617 0056 4963     		se_li %r3,22
 1618 0058 0164     		se_mr %r4,%r6
 1619 005a 00B7     		se_mtctr %r7
 1620 005c 0007     		se_bctrl
 1621              		.loc 1 672 0
 1622 005e C301     		se_lwz %r0,12(%r1)
 1623 0060 0090     		se_mtlr %r0
 1624 0062 2071     		se_addi %r1,8
 1625              	.LCFI47:
 1626              		.cfi_def_cfa_offset 0
 1627 0064 0004     		se_blr
 1628              		.cfi_endproc
 1629              	.LFE26:
 1630              		.size	vector75, .-vector75
 1631              		.section	.text.vector76,"axv",@progbits
 1632              		.align 1
 1633              		.p2align 4,,15
 1634              		.globl vector76
 1635              		.type	vector76, @function
 1636              	vector76:
 1637              	.LFB27:
 1638              		.loc 1 682 0
 1639              		.cfi_startproc
 1640 0000 182106F8 		e_stwu %r1,-8(%r1)
 1641              	.LCFI48:
 1642              		.cfi_def_cfa_offset 8
 1643 0004 0080     		se_mflr %r0
 1644 0006 D301     		se_stw %r0,12(%r1)
 1645              		.cfi_offset 65, 4
 1646              		.loc 1 686 0
 1647 0008 70E0E000 		e_lis %r7,channels@ha
 1648 000c 1CE70000 		e_la %r7,channels@l(%r7)
 1649 0010 50E7005C 		e_lwz %r7,92(%r7)
GAS LISTING C:\Users\bayra\AppData\Local\Temp\ccMpacND.s 			page 30


 1650 0014 2A07     		se_cmpi %r7,0
 1651 0016 7F800020 		e_mcrf %cr7,%cr0
 1652 001a 7CE00026 		mfcr %r7
 1653 001e 74E7E007 		e_rlwinm %r7,%r7,28,0xf0000000
 1654 0022 7CE80120 		mtcrf 128,%r7
 1655 0026 7A020008 		e_bne %cr0,.L57
 1656              		.loc 1 687 0
 1657 002a 78000001 		e_bl irqSysHalt
 1658              	.L57:
 1659              		.loc 1 689 0
 1660 002e 70FEE40A 		e_lis %r7,0xf40a
 1661 0032 6517     		se_bseti %r7,17
 1662 0034 4976     		se_li %r6,23
 1663 0036 34C7001C 		e_stb %r6,28(%r7)
 1664              		.loc 1 690 0
 1665 003a 70E0E000 		e_lis %r7,channels@ha
 1666 003e 1CE70000 		e_la %r7,channels@l(%r7)
 1667 0042 50E7005C 		e_lwz %r7,92(%r7)
 1668 0046 C277     		se_lwz %r7,8(%r7)
 1669 0048 70C0E000 		e_lis %r6,channels@ha
 1670 004c 1CC60000 		e_la %r6,channels@l(%r6)
 1671 0050 50C6005C 		e_lwz %r6,92(%r6)
 1672 0054 C466     		se_lwz %r6,16(%r6)
 1673 0056 4973     		se_li %r3,23
 1674 0058 0164     		se_mr %r4,%r6
 1675 005a 00B7     		se_mtctr %r7
 1676 005c 0007     		se_bctrl
 1677              		.loc 1 693 0
 1678 005e C301     		se_lwz %r0,12(%r1)
 1679 0060 0090     		se_mtlr %r0
 1680 0062 2071     		se_addi %r1,8
 1681              	.LCFI49:
 1682              		.cfi_def_cfa_offset 0
 1683 0064 0004     		se_blr
 1684              		.cfi_endproc
 1685              	.LFE27:
 1686              		.size	vector76, .-vector76
 1687              		.section	.text.vector77,"axv",@progbits
 1688              		.align 1
 1689              		.p2align 4,,15
 1690              		.globl vector77
 1691              		.type	vector77, @function
 1692              	vector77:
 1693              	.LFB28:
 1694              		.loc 1 703 0
 1695              		.cfi_startproc
 1696 0000 182106F8 		e_stwu %r1,-8(%r1)
 1697              	.LCFI50:
 1698              		.cfi_def_cfa_offset 8
 1699 0004 0080     		se_mflr %r0
 1700 0006 D301     		se_stw %r0,12(%r1)
 1701              		.cfi_offset 65, 4
 1702              		.loc 1 707 0
 1703 0008 70E0E000 		e_lis %r7,channels@ha
 1704 000c 1CE70000 		e_la %r7,channels@l(%r7)
 1705 0010 50E70060 		e_lwz %r7,96(%r7)
 1706 0014 2A07     		se_cmpi %r7,0
GAS LISTING C:\Users\bayra\AppData\Local\Temp\ccMpacND.s 			page 31


 1707 0016 7F800020 		e_mcrf %cr7,%cr0
 1708 001a 7CE00026 		mfcr %r7
 1709 001e 74E7E007 		e_rlwinm %r7,%r7,28,0xf0000000
 1710 0022 7CE80120 		mtcrf 128,%r7
 1711 0026 7A020008 		e_bne %cr0,.L59
 1712              		.loc 1 708 0
 1713 002a 78000001 		e_bl irqSysHalt
 1714              	.L59:
 1715              		.loc 1 710 0
 1716 002e 70FEE40A 		e_lis %r7,0xf40a
 1717 0032 6517     		se_bseti %r7,17
 1718 0034 4986     		se_li %r6,24
 1719 0036 34C7001C 		e_stb %r6,28(%r7)
 1720              		.loc 1 711 0
 1721 003a 70E0E000 		e_lis %r7,channels@ha
 1722 003e 1CE70000 		e_la %r7,channels@l(%r7)
 1723 0042 50E70060 		e_lwz %r7,96(%r7)
 1724 0046 C277     		se_lwz %r7,8(%r7)
 1725 0048 70C0E000 		e_lis %r6,channels@ha
 1726 004c 1CC60000 		e_la %r6,channels@l(%r6)
 1727 0050 50C60060 		e_lwz %r6,96(%r6)
 1728 0054 C466     		se_lwz %r6,16(%r6)
 1729 0056 4983     		se_li %r3,24
 1730 0058 0164     		se_mr %r4,%r6
 1731 005a 00B7     		se_mtctr %r7
 1732 005c 0007     		se_bctrl
 1733              		.loc 1 714 0
 1734 005e C301     		se_lwz %r0,12(%r1)
 1735 0060 0090     		se_mtlr %r0
 1736 0062 2071     		se_addi %r1,8
 1737              	.LCFI51:
 1738              		.cfi_def_cfa_offset 0
 1739 0064 0004     		se_blr
 1740              		.cfi_endproc
 1741              	.LFE28:
 1742              		.size	vector77, .-vector77
 1743              		.section	.text.vector78,"axv",@progbits
 1744              		.align 1
 1745              		.p2align 4,,15
 1746              		.globl vector78
 1747              		.type	vector78, @function
 1748              	vector78:
 1749              	.LFB29:
 1750              		.loc 1 724 0
 1751              		.cfi_startproc
 1752 0000 182106F8 		e_stwu %r1,-8(%r1)
 1753              	.LCFI52:
 1754              		.cfi_def_cfa_offset 8
 1755 0004 0080     		se_mflr %r0
 1756 0006 D301     		se_stw %r0,12(%r1)
 1757              		.cfi_offset 65, 4
 1758              		.loc 1 728 0
 1759 0008 70E0E000 		e_lis %r7,channels@ha
 1760 000c 1CE70000 		e_la %r7,channels@l(%r7)
 1761 0010 50E70064 		e_lwz %r7,100(%r7)
 1762 0014 2A07     		se_cmpi %r7,0
 1763 0016 7F800020 		e_mcrf %cr7,%cr0
GAS LISTING C:\Users\bayra\AppData\Local\Temp\ccMpacND.s 			page 32


 1764 001a 7CE00026 		mfcr %r7
 1765 001e 74E7E007 		e_rlwinm %r7,%r7,28,0xf0000000
 1766 0022 7CE80120 		mtcrf 128,%r7
 1767 0026 7A020008 		e_bne %cr0,.L61
 1768              		.loc 1 729 0
 1769 002a 78000001 		e_bl irqSysHalt
 1770              	.L61:
 1771              		.loc 1 731 0
 1772 002e 70FEE40A 		e_lis %r7,0xf40a
 1773 0032 6517     		se_bseti %r7,17
 1774 0034 4996     		se_li %r6,25
 1775 0036 34C7001C 		e_stb %r6,28(%r7)
 1776              		.loc 1 732 0
 1777 003a 70E0E000 		e_lis %r7,channels@ha
 1778 003e 1CE70000 		e_la %r7,channels@l(%r7)
 1779 0042 50E70064 		e_lwz %r7,100(%r7)
 1780 0046 C277     		se_lwz %r7,8(%r7)
 1781 0048 70C0E000 		e_lis %r6,channels@ha
 1782 004c 1CC60000 		e_la %r6,channels@l(%r6)
 1783 0050 50C60064 		e_lwz %r6,100(%r6)
 1784 0054 C466     		se_lwz %r6,16(%r6)
 1785 0056 4993     		se_li %r3,25
 1786 0058 0164     		se_mr %r4,%r6
 1787 005a 00B7     		se_mtctr %r7
 1788 005c 0007     		se_bctrl
 1789              		.loc 1 735 0
 1790 005e C301     		se_lwz %r0,12(%r1)
 1791 0060 0090     		se_mtlr %r0
 1792 0062 2071     		se_addi %r1,8
 1793              	.LCFI53:
 1794              		.cfi_def_cfa_offset 0
 1795 0064 0004     		se_blr
 1796              		.cfi_endproc
 1797              	.LFE29:
 1798              		.size	vector78, .-vector78
 1799              		.section	.text.vector79,"axv",@progbits
 1800              		.align 1
 1801              		.p2align 4,,15
 1802              		.globl vector79
 1803              		.type	vector79, @function
 1804              	vector79:
 1805              	.LFB30:
 1806              		.loc 1 745 0
 1807              		.cfi_startproc
 1808 0000 182106F8 		e_stwu %r1,-8(%r1)
 1809              	.LCFI54:
 1810              		.cfi_def_cfa_offset 8
 1811 0004 0080     		se_mflr %r0
 1812 0006 D301     		se_stw %r0,12(%r1)
 1813              		.cfi_offset 65, 4
 1814              		.loc 1 749 0
 1815 0008 70E0E000 		e_lis %r7,channels@ha
 1816 000c 1CE70000 		e_la %r7,channels@l(%r7)
 1817 0010 50E70068 		e_lwz %r7,104(%r7)
 1818 0014 2A07     		se_cmpi %r7,0
 1819 0016 7F800020 		e_mcrf %cr7,%cr0
 1820 001a 7CE00026 		mfcr %r7
GAS LISTING C:\Users\bayra\AppData\Local\Temp\ccMpacND.s 			page 33


 1821 001e 74E7E007 		e_rlwinm %r7,%r7,28,0xf0000000
 1822 0022 7CE80120 		mtcrf 128,%r7
 1823 0026 7A020008 		e_bne %cr0,.L63
 1824              		.loc 1 750 0
 1825 002a 78000001 		e_bl irqSysHalt
 1826              	.L63:
 1827              		.loc 1 752 0
 1828 002e 70FEE40A 		e_lis %r7,0xf40a
 1829 0032 6517     		se_bseti %r7,17
 1830 0034 49A6     		se_li %r6,26
 1831 0036 34C7001C 		e_stb %r6,28(%r7)
 1832              		.loc 1 753 0
 1833 003a 70E0E000 		e_lis %r7,channels@ha
 1834 003e 1CE70000 		e_la %r7,channels@l(%r7)
 1835 0042 50E70068 		e_lwz %r7,104(%r7)
 1836 0046 C277     		se_lwz %r7,8(%r7)
 1837 0048 70C0E000 		e_lis %r6,channels@ha
 1838 004c 1CC60000 		e_la %r6,channels@l(%r6)
 1839 0050 50C60068 		e_lwz %r6,104(%r6)
 1840 0054 C466     		se_lwz %r6,16(%r6)
 1841 0056 49A3     		se_li %r3,26
 1842 0058 0164     		se_mr %r4,%r6
 1843 005a 00B7     		se_mtctr %r7
 1844 005c 0007     		se_bctrl
 1845              		.loc 1 756 0
 1846 005e C301     		se_lwz %r0,12(%r1)
 1847 0060 0090     		se_mtlr %r0
 1848 0062 2071     		se_addi %r1,8
 1849              	.LCFI55:
 1850              		.cfi_def_cfa_offset 0
 1851 0064 0004     		se_blr
 1852              		.cfi_endproc
 1853              	.LFE30:
 1854              		.size	vector79, .-vector79
 1855              		.section	.text.vector80,"axv",@progbits
 1856              		.align 1
 1857              		.p2align 4,,15
 1858              		.globl vector80
 1859              		.type	vector80, @function
 1860              	vector80:
 1861              	.LFB31:
 1862              		.loc 1 766 0
 1863              		.cfi_startproc
 1864 0000 182106F8 		e_stwu %r1,-8(%r1)
 1865              	.LCFI56:
 1866              		.cfi_def_cfa_offset 8
 1867 0004 0080     		se_mflr %r0
 1868 0006 D301     		se_stw %r0,12(%r1)
 1869              		.cfi_offset 65, 4
 1870              		.loc 1 770 0
 1871 0008 70E0E000 		e_lis %r7,channels@ha
 1872 000c 1CE70000 		e_la %r7,channels@l(%r7)
 1873 0010 50E7006C 		e_lwz %r7,108(%r7)
 1874 0014 2A07     		se_cmpi %r7,0
 1875 0016 7F800020 		e_mcrf %cr7,%cr0
 1876 001a 7CE00026 		mfcr %r7
 1877 001e 74E7E007 		e_rlwinm %r7,%r7,28,0xf0000000
GAS LISTING C:\Users\bayra\AppData\Local\Temp\ccMpacND.s 			page 34


 1878 0022 7CE80120 		mtcrf 128,%r7
 1879 0026 7A020008 		e_bne %cr0,.L65
 1880              		.loc 1 771 0
 1881 002a 78000001 		e_bl irqSysHalt
 1882              	.L65:
 1883              		.loc 1 773 0
 1884 002e 70FEE40A 		e_lis %r7,0xf40a
 1885 0032 6517     		se_bseti %r7,17
 1886 0034 49B6     		se_li %r6,27
 1887 0036 34C7001C 		e_stb %r6,28(%r7)
 1888              		.loc 1 774 0
 1889 003a 70E0E000 		e_lis %r7,channels@ha
 1890 003e 1CE70000 		e_la %r7,channels@l(%r7)
 1891 0042 50E7006C 		e_lwz %r7,108(%r7)
 1892 0046 C277     		se_lwz %r7,8(%r7)
 1893 0048 70C0E000 		e_lis %r6,channels@ha
 1894 004c 1CC60000 		e_la %r6,channels@l(%r6)
 1895 0050 50C6006C 		e_lwz %r6,108(%r6)
 1896 0054 C466     		se_lwz %r6,16(%r6)
 1897 0056 49B3     		se_li %r3,27
 1898 0058 0164     		se_mr %r4,%r6
 1899 005a 00B7     		se_mtctr %r7
 1900 005c 0007     		se_bctrl
 1901              		.loc 1 777 0
 1902 005e C301     		se_lwz %r0,12(%r1)
 1903 0060 0090     		se_mtlr %r0
 1904 0062 2071     		se_addi %r1,8
 1905              	.LCFI57:
 1906              		.cfi_def_cfa_offset 0
 1907 0064 0004     		se_blr
 1908              		.cfi_endproc
 1909              	.LFE31:
 1910              		.size	vector80, .-vector80
 1911              		.section	.text.vector81,"axv",@progbits
 1912              		.align 1
 1913              		.p2align 4,,15
 1914              		.globl vector81
 1915              		.type	vector81, @function
 1916              	vector81:
 1917              	.LFB32:
 1918              		.loc 1 787 0
 1919              		.cfi_startproc
 1920 0000 182106F8 		e_stwu %r1,-8(%r1)
 1921              	.LCFI58:
 1922              		.cfi_def_cfa_offset 8
 1923 0004 0080     		se_mflr %r0
 1924 0006 D301     		se_stw %r0,12(%r1)
 1925              		.cfi_offset 65, 4
 1926              		.loc 1 791 0
 1927 0008 70E0E000 		e_lis %r7,channels@ha
 1928 000c 1CE70000 		e_la %r7,channels@l(%r7)
 1929 0010 50E70070 		e_lwz %r7,112(%r7)
 1930 0014 2A07     		se_cmpi %r7,0
 1931 0016 7F800020 		e_mcrf %cr7,%cr0
 1932 001a 7CE00026 		mfcr %r7
 1933 001e 74E7E007 		e_rlwinm %r7,%r7,28,0xf0000000
 1934 0022 7CE80120 		mtcrf 128,%r7
GAS LISTING C:\Users\bayra\AppData\Local\Temp\ccMpacND.s 			page 35


 1935 0026 7A020008 		e_bne %cr0,.L67
 1936              		.loc 1 792 0
 1937 002a 78000001 		e_bl irqSysHalt
 1938              	.L67:
 1939              		.loc 1 794 0
 1940 002e 70FEE40A 		e_lis %r7,0xf40a
 1941 0032 6517     		se_bseti %r7,17
 1942 0034 49C6     		se_li %r6,28
 1943 0036 34C7001C 		e_stb %r6,28(%r7)
 1944              		.loc 1 795 0
 1945 003a 70E0E000 		e_lis %r7,channels@ha
 1946 003e 1CE70000 		e_la %r7,channels@l(%r7)
 1947 0042 50E70070 		e_lwz %r7,112(%r7)
 1948 0046 C277     		se_lwz %r7,8(%r7)
 1949 0048 70C0E000 		e_lis %r6,channels@ha
 1950 004c 1CC60000 		e_la %r6,channels@l(%r6)
 1951 0050 50C60070 		e_lwz %r6,112(%r6)
 1952 0054 C466     		se_lwz %r6,16(%r6)
 1953 0056 49C3     		se_li %r3,28
 1954 0058 0164     		se_mr %r4,%r6
 1955 005a 00B7     		se_mtctr %r7
 1956 005c 0007     		se_bctrl
 1957              		.loc 1 798 0
 1958 005e C301     		se_lwz %r0,12(%r1)
 1959 0060 0090     		se_mtlr %r0
 1960 0062 2071     		se_addi %r1,8
 1961              	.LCFI59:
 1962              		.cfi_def_cfa_offset 0
 1963 0064 0004     		se_blr
 1964              		.cfi_endproc
 1965              	.LFE32:
 1966              		.size	vector81, .-vector81
 1967              		.section	.text.vector82,"axv",@progbits
 1968              		.align 1
 1969              		.p2align 4,,15
 1970              		.globl vector82
 1971              		.type	vector82, @function
 1972              	vector82:
 1973              	.LFB33:
 1974              		.loc 1 808 0
 1975              		.cfi_startproc
 1976 0000 182106F8 		e_stwu %r1,-8(%r1)
 1977              	.LCFI60:
 1978              		.cfi_def_cfa_offset 8
 1979 0004 0080     		se_mflr %r0
 1980 0006 D301     		se_stw %r0,12(%r1)
 1981              		.cfi_offset 65, 4
 1982              		.loc 1 812 0
 1983 0008 70E0E000 		e_lis %r7,channels@ha
 1984 000c 1CE70000 		e_la %r7,channels@l(%r7)
 1985 0010 50E70074 		e_lwz %r7,116(%r7)
 1986 0014 2A07     		se_cmpi %r7,0
 1987 0016 7F800020 		e_mcrf %cr7,%cr0
 1988 001a 7CE00026 		mfcr %r7
 1989 001e 74E7E007 		e_rlwinm %r7,%r7,28,0xf0000000
 1990 0022 7CE80120 		mtcrf 128,%r7
 1991 0026 7A020008 		e_bne %cr0,.L69
GAS LISTING C:\Users\bayra\AppData\Local\Temp\ccMpacND.s 			page 36


 1992              		.loc 1 813 0
 1993 002a 78000001 		e_bl irqSysHalt
 1994              	.L69:
 1995              		.loc 1 815 0
 1996 002e 70FEE40A 		e_lis %r7,0xf40a
 1997 0032 6517     		se_bseti %r7,17
 1998 0034 49D6     		se_li %r6,29
 1999 0036 34C7001C 		e_stb %r6,28(%r7)
 2000              		.loc 1 816 0
 2001 003a 70E0E000 		e_lis %r7,channels@ha
 2002 003e 1CE70000 		e_la %r7,channels@l(%r7)
 2003 0042 50E70074 		e_lwz %r7,116(%r7)
 2004 0046 C277     		se_lwz %r7,8(%r7)
 2005 0048 70C0E000 		e_lis %r6,channels@ha
 2006 004c 1CC60000 		e_la %r6,channels@l(%r6)
 2007 0050 50C60074 		e_lwz %r6,116(%r6)
 2008 0054 C466     		se_lwz %r6,16(%r6)
 2009 0056 49D3     		se_li %r3,29
 2010 0058 0164     		se_mr %r4,%r6
 2011 005a 00B7     		se_mtctr %r7
 2012 005c 0007     		se_bctrl
 2013              		.loc 1 819 0
 2014 005e C301     		se_lwz %r0,12(%r1)
 2015 0060 0090     		se_mtlr %r0
 2016 0062 2071     		se_addi %r1,8
 2017              	.LCFI61:
 2018              		.cfi_def_cfa_offset 0
 2019 0064 0004     		se_blr
 2020              		.cfi_endproc
 2021              	.LFE33:
 2022              		.size	vector82, .-vector82
 2023              		.section	.text.vector83,"axv",@progbits
 2024              		.align 1
 2025              		.p2align 4,,15
 2026              		.globl vector83
 2027              		.type	vector83, @function
 2028              	vector83:
 2029              	.LFB34:
 2030              		.loc 1 829 0
 2031              		.cfi_startproc
 2032 0000 182106F8 		e_stwu %r1,-8(%r1)
 2033              	.LCFI62:
 2034              		.cfi_def_cfa_offset 8
 2035 0004 0080     		se_mflr %r0
 2036 0006 D301     		se_stw %r0,12(%r1)
 2037              		.cfi_offset 65, 4
 2038              		.loc 1 833 0
 2039 0008 70E0E000 		e_lis %r7,channels@ha
 2040 000c 1CE70000 		e_la %r7,channels@l(%r7)
 2041 0010 50E70078 		e_lwz %r7,120(%r7)
 2042 0014 2A07     		se_cmpi %r7,0
 2043 0016 7F800020 		e_mcrf %cr7,%cr0
 2044 001a 7CE00026 		mfcr %r7
 2045 001e 74E7E007 		e_rlwinm %r7,%r7,28,0xf0000000
 2046 0022 7CE80120 		mtcrf 128,%r7
 2047 0026 7A020008 		e_bne %cr0,.L71
 2048              		.loc 1 834 0
GAS LISTING C:\Users\bayra\AppData\Local\Temp\ccMpacND.s 			page 37


 2049 002a 78000001 		e_bl irqSysHalt
 2050              	.L71:
 2051              		.loc 1 836 0
 2052 002e 70FEE40A 		e_lis %r7,0xf40a
 2053 0032 6517     		se_bseti %r7,17
 2054 0034 49E6     		se_li %r6,30
 2055 0036 34C7001C 		e_stb %r6,28(%r7)
 2056              		.loc 1 837 0
 2057 003a 70E0E000 		e_lis %r7,channels@ha
 2058 003e 1CE70000 		e_la %r7,channels@l(%r7)
 2059 0042 50E70078 		e_lwz %r7,120(%r7)
 2060 0046 C277     		se_lwz %r7,8(%r7)
 2061 0048 70C0E000 		e_lis %r6,channels@ha
 2062 004c 1CC60000 		e_la %r6,channels@l(%r6)
 2063 0050 50C60078 		e_lwz %r6,120(%r6)
 2064 0054 C466     		se_lwz %r6,16(%r6)
 2065 0056 49E3     		se_li %r3,30
 2066 0058 0164     		se_mr %r4,%r6
 2067 005a 00B7     		se_mtctr %r7
 2068 005c 0007     		se_bctrl
 2069              		.loc 1 840 0
 2070 005e C301     		se_lwz %r0,12(%r1)
 2071 0060 0090     		se_mtlr %r0
 2072 0062 2071     		se_addi %r1,8
 2073              	.LCFI63:
 2074              		.cfi_def_cfa_offset 0
 2075 0064 0004     		se_blr
 2076              		.cfi_endproc
 2077              	.LFE34:
 2078              		.size	vector83, .-vector83
 2079              		.section	.text.vector84,"axv",@progbits
 2080              		.align 1
 2081              		.p2align 4,,15
 2082              		.globl vector84
 2083              		.type	vector84, @function
 2084              	vector84:
 2085              	.LFB35:
 2086              		.loc 1 850 0
 2087              		.cfi_startproc
 2088 0000 182106F8 		e_stwu %r1,-8(%r1)
 2089              	.LCFI64:
 2090              		.cfi_def_cfa_offset 8
 2091 0004 0080     		se_mflr %r0
 2092 0006 D301     		se_stw %r0,12(%r1)
 2093              		.cfi_offset 65, 4
 2094              		.loc 1 854 0
 2095 0008 70E0E000 		e_lis %r7,channels@ha
 2096 000c 1CE70000 		e_la %r7,channels@l(%r7)
 2097 0010 50E7007C 		e_lwz %r7,124(%r7)
 2098 0014 2A07     		se_cmpi %r7,0
 2099 0016 7F800020 		e_mcrf %cr7,%cr0
 2100 001a 7CE00026 		mfcr %r7
 2101 001e 74E7E007 		e_rlwinm %r7,%r7,28,0xf0000000
 2102 0022 7CE80120 		mtcrf 128,%r7
 2103 0026 7A020008 		e_bne %cr0,.L73
 2104              		.loc 1 855 0
 2105 002a 78000001 		e_bl irqSysHalt
GAS LISTING C:\Users\bayra\AppData\Local\Temp\ccMpacND.s 			page 38


 2106              	.L73:
 2107              		.loc 1 857 0
 2108 002e 70FEE40A 		e_lis %r7,0xf40a
 2109 0032 6517     		se_bseti %r7,17
 2110 0034 49F6     		se_li %r6,31
 2111 0036 34C7001C 		e_stb %r6,28(%r7)
 2112              		.loc 1 858 0
 2113 003a 70E0E000 		e_lis %r7,channels@ha
 2114 003e 1CE70000 		e_la %r7,channels@l(%r7)
 2115 0042 50E7007C 		e_lwz %r7,124(%r7)
 2116 0046 C277     		se_lwz %r7,8(%r7)
 2117 0048 70C0E000 		e_lis %r6,channels@ha
 2118 004c 1CC60000 		e_la %r6,channels@l(%r6)
 2119 0050 50C6007C 		e_lwz %r6,124(%r6)
 2120 0054 C466     		se_lwz %r6,16(%r6)
 2121 0056 49F3     		se_li %r3,31
 2122 0058 0164     		se_mr %r4,%r6
 2123 005a 00B7     		se_mtctr %r7
 2124 005c 0007     		se_bctrl
 2125              		.loc 1 861 0
 2126 005e C301     		se_lwz %r0,12(%r1)
 2127 0060 0090     		se_mtlr %r0
 2128 0062 2071     		se_addi %r1,8
 2129              	.LCFI65:
 2130              		.cfi_def_cfa_offset 0
 2131 0064 0004     		se_blr
 2132              		.cfi_endproc
 2133              	.LFE35:
 2134              		.size	vector84, .-vector84
 2135              		.section	.text.vector85,"axv",@progbits
 2136              		.align 1
 2137              		.p2align 4,,15
 2138              		.globl vector85
 2139              		.type	vector85, @function
 2140              	vector85:
 2141              	.LFB36:
 2142              		.loc 1 872 0
 2143              		.cfi_startproc
 2144 0000 182106F8 		e_stwu %r1,-8(%r1)
 2145              	.LCFI66:
 2146              		.cfi_def_cfa_offset 8
 2147 0004 0080     		se_mflr %r0
 2148 0006 D301     		se_stw %r0,12(%r1)
 2149              		.cfi_offset 65, 4
 2150              		.loc 1 876 0
 2151 0008 70E0E000 		e_lis %r7,channels@ha
 2152 000c 1CE70000 		e_la %r7,channels@l(%r7)
 2153 0010 50E70080 		e_lwz %r7,128(%r7)
 2154 0014 2A07     		se_cmpi %r7,0
 2155 0016 7F800020 		e_mcrf %cr7,%cr0
 2156 001a 7CE00026 		mfcr %r7
 2157 001e 74E7E007 		e_rlwinm %r7,%r7,28,0xf0000000
 2158 0022 7CE80120 		mtcrf 128,%r7
 2159 0026 7A020008 		e_bne %cr0,.L75
 2160              		.loc 1 877 0
 2161 002a 78000001 		e_bl irqSysHalt
 2162              	.L75:
GAS LISTING C:\Users\bayra\AppData\Local\Temp\ccMpacND.s 			page 39


 2163              		.loc 1 879 0
 2164 002e 70FEE40A 		e_lis %r7,0xf40a
 2165 0032 6517     		se_bseti %r7,17
 2166 0034 4A06     		se_li %r6,32
 2167 0036 34C7001C 		e_stb %r6,28(%r7)
 2168              		.loc 1 880 0
 2169 003a 70E0E000 		e_lis %r7,channels@ha
 2170 003e 1CE70000 		e_la %r7,channels@l(%r7)
 2171 0042 50E70080 		e_lwz %r7,128(%r7)
 2172 0046 C277     		se_lwz %r7,8(%r7)
 2173 0048 70C0E000 		e_lis %r6,channels@ha
 2174 004c 1CC60000 		e_la %r6,channels@l(%r6)
 2175 0050 50C60080 		e_lwz %r6,128(%r6)
 2176 0054 C466     		se_lwz %r6,16(%r6)
 2177 0056 4A03     		se_li %r3,32
 2178 0058 0164     		se_mr %r4,%r6
 2179 005a 00B7     		se_mtctr %r7
 2180 005c 0007     		se_bctrl
 2181              		.loc 1 883 0
 2182 005e C301     		se_lwz %r0,12(%r1)
 2183 0060 0090     		se_mtlr %r0
 2184 0062 2071     		se_addi %r1,8
 2185              	.LCFI67:
 2186              		.cfi_def_cfa_offset 0
 2187 0064 0004     		se_blr
 2188              		.cfi_endproc
 2189              	.LFE36:
 2190              		.size	vector85, .-vector85
 2191              		.section	.text.vector86,"axv",@progbits
 2192              		.align 1
 2193              		.p2align 4,,15
 2194              		.globl vector86
 2195              		.type	vector86, @function
 2196              	vector86:
 2197              	.LFB37:
 2198              		.loc 1 893 0
 2199              		.cfi_startproc
 2200 0000 182106F8 		e_stwu %r1,-8(%r1)
 2201              	.LCFI68:
 2202              		.cfi_def_cfa_offset 8
 2203 0004 0080     		se_mflr %r0
 2204 0006 D301     		se_stw %r0,12(%r1)
 2205              		.cfi_offset 65, 4
 2206              		.loc 1 897 0
 2207 0008 70E0E000 		e_lis %r7,channels@ha
 2208 000c 1CE70000 		e_la %r7,channels@l(%r7)
 2209 0010 50E70084 		e_lwz %r7,132(%r7)
 2210 0014 2A07     		se_cmpi %r7,0
 2211 0016 7F800020 		e_mcrf %cr7,%cr0
 2212 001a 7CE00026 		mfcr %r7
 2213 001e 74E7E007 		e_rlwinm %r7,%r7,28,0xf0000000
 2214 0022 7CE80120 		mtcrf 128,%r7
 2215 0026 7A020008 		e_bne %cr0,.L77
 2216              		.loc 1 898 0
 2217 002a 78000001 		e_bl irqSysHalt
 2218              	.L77:
 2219              		.loc 1 900 0
GAS LISTING C:\Users\bayra\AppData\Local\Temp\ccMpacND.s 			page 40


 2220 002e 70FEE40A 		e_lis %r7,0xf40a
 2221 0032 6517     		se_bseti %r7,17
 2222 0034 4A16     		se_li %r6,33
 2223 0036 34C7001C 		e_stb %r6,28(%r7)
 2224              		.loc 1 901 0
 2225 003a 70E0E000 		e_lis %r7,channels@ha
 2226 003e 1CE70000 		e_la %r7,channels@l(%r7)
 2227 0042 50E70084 		e_lwz %r7,132(%r7)
 2228 0046 C277     		se_lwz %r7,8(%r7)
 2229 0048 70C0E000 		e_lis %r6,channels@ha
 2230 004c 1CC60000 		e_la %r6,channels@l(%r6)
 2231 0050 50C60084 		e_lwz %r6,132(%r6)
 2232 0054 C466     		se_lwz %r6,16(%r6)
 2233 0056 4A13     		se_li %r3,33
 2234 0058 0164     		se_mr %r4,%r6
 2235 005a 00B7     		se_mtctr %r7
 2236 005c 0007     		se_bctrl
 2237              		.loc 1 904 0
 2238 005e C301     		se_lwz %r0,12(%r1)
 2239 0060 0090     		se_mtlr %r0
 2240 0062 2071     		se_addi %r1,8
 2241              	.LCFI69:
 2242              		.cfi_def_cfa_offset 0
 2243 0064 0004     		se_blr
 2244              		.cfi_endproc
 2245              	.LFE37:
 2246              		.size	vector86, .-vector86
 2247              		.section	.text.vector87,"axv",@progbits
 2248              		.align 1
 2249              		.p2align 4,,15
 2250              		.globl vector87
 2251              		.type	vector87, @function
 2252              	vector87:
 2253              	.LFB38:
 2254              		.loc 1 914 0
 2255              		.cfi_startproc
 2256 0000 182106F8 		e_stwu %r1,-8(%r1)
 2257              	.LCFI70:
 2258              		.cfi_def_cfa_offset 8
 2259 0004 0080     		se_mflr %r0
 2260 0006 D301     		se_stw %r0,12(%r1)
 2261              		.cfi_offset 65, 4
 2262              		.loc 1 918 0
 2263 0008 70E0E000 		e_lis %r7,channels@ha
 2264 000c 1CE70000 		e_la %r7,channels@l(%r7)
 2265 0010 50E70088 		e_lwz %r7,136(%r7)
 2266 0014 2A07     		se_cmpi %r7,0
 2267 0016 7F800020 		e_mcrf %cr7,%cr0
 2268 001a 7CE00026 		mfcr %r7
 2269 001e 74E7E007 		e_rlwinm %r7,%r7,28,0xf0000000
 2270 0022 7CE80120 		mtcrf 128,%r7
 2271 0026 7A020008 		e_bne %cr0,.L79
 2272              		.loc 1 919 0
 2273 002a 78000001 		e_bl irqSysHalt
 2274              	.L79:
 2275              		.loc 1 921 0
 2276 002e 70FEE40A 		e_lis %r7,0xf40a
GAS LISTING C:\Users\bayra\AppData\Local\Temp\ccMpacND.s 			page 41


 2277 0032 6517     		se_bseti %r7,17
 2278 0034 4A26     		se_li %r6,34
 2279 0036 34C7001C 		e_stb %r6,28(%r7)
 2280              		.loc 1 922 0
 2281 003a 70E0E000 		e_lis %r7,channels@ha
 2282 003e 1CE70000 		e_la %r7,channels@l(%r7)
 2283 0042 50E70088 		e_lwz %r7,136(%r7)
 2284 0046 C277     		se_lwz %r7,8(%r7)
 2285 0048 70C0E000 		e_lis %r6,channels@ha
 2286 004c 1CC60000 		e_la %r6,channels@l(%r6)
 2287 0050 50C60088 		e_lwz %r6,136(%r6)
 2288 0054 C466     		se_lwz %r6,16(%r6)
 2289 0056 4A23     		se_li %r3,34
 2290 0058 0164     		se_mr %r4,%r6
 2291 005a 00B7     		se_mtctr %r7
 2292 005c 0007     		se_bctrl
 2293              		.loc 1 925 0
 2294 005e C301     		se_lwz %r0,12(%r1)
 2295 0060 0090     		se_mtlr %r0
 2296 0062 2071     		se_addi %r1,8
 2297              	.LCFI71:
 2298              		.cfi_def_cfa_offset 0
 2299 0064 0004     		se_blr
 2300              		.cfi_endproc
 2301              	.LFE38:
 2302              		.size	vector87, .-vector87
 2303              		.section	.text.vector88,"axv",@progbits
 2304              		.align 1
 2305              		.p2align 4,,15
 2306              		.globl vector88
 2307              		.type	vector88, @function
 2308              	vector88:
 2309              	.LFB39:
 2310              		.loc 1 935 0
 2311              		.cfi_startproc
 2312 0000 182106F8 		e_stwu %r1,-8(%r1)
 2313              	.LCFI72:
 2314              		.cfi_def_cfa_offset 8
 2315 0004 0080     		se_mflr %r0
 2316 0006 D301     		se_stw %r0,12(%r1)
 2317              		.cfi_offset 65, 4
 2318              		.loc 1 939 0
 2319 0008 70E0E000 		e_lis %r7,channels@ha
 2320 000c 1CE70000 		e_la %r7,channels@l(%r7)
 2321 0010 50E7008C 		e_lwz %r7,140(%r7)
 2322 0014 2A07     		se_cmpi %r7,0
 2323 0016 7F800020 		e_mcrf %cr7,%cr0
 2324 001a 7CE00026 		mfcr %r7
 2325 001e 74E7E007 		e_rlwinm %r7,%r7,28,0xf0000000
 2326 0022 7CE80120 		mtcrf 128,%r7
 2327 0026 7A020008 		e_bne %cr0,.L81
 2328              		.loc 1 940 0
 2329 002a 78000001 		e_bl irqSysHalt
 2330              	.L81:
 2331              		.loc 1 942 0
 2332 002e 70FEE40A 		e_lis %r7,0xf40a
 2333 0032 6517     		se_bseti %r7,17
GAS LISTING C:\Users\bayra\AppData\Local\Temp\ccMpacND.s 			page 42


 2334 0034 4A36     		se_li %r6,35
 2335 0036 34C7001C 		e_stb %r6,28(%r7)
 2336              		.loc 1 943 0
 2337 003a 70E0E000 		e_lis %r7,channels@ha
 2338 003e 1CE70000 		e_la %r7,channels@l(%r7)
 2339 0042 50E7008C 		e_lwz %r7,140(%r7)
 2340 0046 C277     		se_lwz %r7,8(%r7)
 2341 0048 70C0E000 		e_lis %r6,channels@ha
 2342 004c 1CC60000 		e_la %r6,channels@l(%r6)
 2343 0050 50C6008C 		e_lwz %r6,140(%r6)
 2344 0054 C466     		se_lwz %r6,16(%r6)
 2345 0056 4A33     		se_li %r3,35
 2346 0058 0164     		se_mr %r4,%r6
 2347 005a 00B7     		se_mtctr %r7
 2348 005c 0007     		se_bctrl
 2349              		.loc 1 946 0
 2350 005e C301     		se_lwz %r0,12(%r1)
 2351 0060 0090     		se_mtlr %r0
 2352 0062 2071     		se_addi %r1,8
 2353              	.LCFI73:
 2354              		.cfi_def_cfa_offset 0
 2355 0064 0004     		se_blr
 2356              		.cfi_endproc
 2357              	.LFE39:
 2358              		.size	vector88, .-vector88
 2359              		.section	.text.vector89,"axv",@progbits
 2360              		.align 1
 2361              		.p2align 4,,15
 2362              		.globl vector89
 2363              		.type	vector89, @function
 2364              	vector89:
 2365              	.LFB40:
 2366              		.loc 1 956 0
 2367              		.cfi_startproc
 2368 0000 182106F8 		e_stwu %r1,-8(%r1)
 2369              	.LCFI74:
 2370              		.cfi_def_cfa_offset 8
 2371 0004 0080     		se_mflr %r0
 2372 0006 D301     		se_stw %r0,12(%r1)
 2373              		.cfi_offset 65, 4
 2374              		.loc 1 960 0
 2375 0008 70E0E000 		e_lis %r7,channels@ha
 2376 000c 1CE70000 		e_la %r7,channels@l(%r7)
 2377 0010 50E70090 		e_lwz %r7,144(%r7)
 2378 0014 2A07     		se_cmpi %r7,0
 2379 0016 7F800020 		e_mcrf %cr7,%cr0
 2380 001a 7CE00026 		mfcr %r7
 2381 001e 74E7E007 		e_rlwinm %r7,%r7,28,0xf0000000
 2382 0022 7CE80120 		mtcrf 128,%r7
 2383 0026 7A020008 		e_bne %cr0,.L83
 2384              		.loc 1 961 0
 2385 002a 78000001 		e_bl irqSysHalt
 2386              	.L83:
 2387              		.loc 1 963 0
 2388 002e 70FEE40A 		e_lis %r7,0xf40a
 2389 0032 6517     		se_bseti %r7,17
 2390 0034 4A46     		se_li %r6,36
GAS LISTING C:\Users\bayra\AppData\Local\Temp\ccMpacND.s 			page 43


 2391 0036 34C7001C 		e_stb %r6,28(%r7)
 2392              		.loc 1 964 0
 2393 003a 70E0E000 		e_lis %r7,channels@ha
 2394 003e 1CE70000 		e_la %r7,channels@l(%r7)
 2395 0042 50E70090 		e_lwz %r7,144(%r7)
 2396 0046 C277     		se_lwz %r7,8(%r7)
 2397 0048 70C0E000 		e_lis %r6,channels@ha
 2398 004c 1CC60000 		e_la %r6,channels@l(%r6)
 2399 0050 50C60090 		e_lwz %r6,144(%r6)
 2400 0054 C466     		se_lwz %r6,16(%r6)
 2401 0056 4A43     		se_li %r3,36
 2402 0058 0164     		se_mr %r4,%r6
 2403 005a 00B7     		se_mtctr %r7
 2404 005c 0007     		se_bctrl
 2405              		.loc 1 967 0
 2406 005e C301     		se_lwz %r0,12(%r1)
 2407 0060 0090     		se_mtlr %r0
 2408 0062 2071     		se_addi %r1,8
 2409              	.LCFI75:
 2410              		.cfi_def_cfa_offset 0
 2411 0064 0004     		se_blr
 2412              		.cfi_endproc
 2413              	.LFE40:
 2414              		.size	vector89, .-vector89
 2415              		.section	.text.vector90,"axv",@progbits
 2416              		.align 1
 2417              		.p2align 4,,15
 2418              		.globl vector90
 2419              		.type	vector90, @function
 2420              	vector90:
 2421              	.LFB41:
 2422              		.loc 1 977 0
 2423              		.cfi_startproc
 2424 0000 182106F8 		e_stwu %r1,-8(%r1)
 2425              	.LCFI76:
 2426              		.cfi_def_cfa_offset 8
 2427 0004 0080     		se_mflr %r0
 2428 0006 D301     		se_stw %r0,12(%r1)
 2429              		.cfi_offset 65, 4
 2430              		.loc 1 981 0
 2431 0008 70E0E000 		e_lis %r7,channels@ha
 2432 000c 1CE70000 		e_la %r7,channels@l(%r7)
 2433 0010 50E70094 		e_lwz %r7,148(%r7)
 2434 0014 2A07     		se_cmpi %r7,0
 2435 0016 7F800020 		e_mcrf %cr7,%cr0
 2436 001a 7CE00026 		mfcr %r7
 2437 001e 74E7E007 		e_rlwinm %r7,%r7,28,0xf0000000
 2438 0022 7CE80120 		mtcrf 128,%r7
 2439 0026 7A020008 		e_bne %cr0,.L85
 2440              		.loc 1 982 0
 2441 002a 78000001 		e_bl irqSysHalt
 2442              	.L85:
 2443              		.loc 1 984 0
 2444 002e 70FEE40A 		e_lis %r7,0xf40a
 2445 0032 6517     		se_bseti %r7,17
 2446 0034 4A56     		se_li %r6,37
 2447 0036 34C7001C 		e_stb %r6,28(%r7)
GAS LISTING C:\Users\bayra\AppData\Local\Temp\ccMpacND.s 			page 44


 2448              		.loc 1 985 0
 2449 003a 70E0E000 		e_lis %r7,channels@ha
 2450 003e 1CE70000 		e_la %r7,channels@l(%r7)
 2451 0042 50E70094 		e_lwz %r7,148(%r7)
 2452 0046 C277     		se_lwz %r7,8(%r7)
 2453 0048 70C0E000 		e_lis %r6,channels@ha
 2454 004c 1CC60000 		e_la %r6,channels@l(%r6)
 2455 0050 50C60094 		e_lwz %r6,148(%r6)
 2456 0054 C466     		se_lwz %r6,16(%r6)
 2457 0056 4A53     		se_li %r3,37
 2458 0058 0164     		se_mr %r4,%r6
 2459 005a 00B7     		se_mtctr %r7
 2460 005c 0007     		se_bctrl
 2461              		.loc 1 988 0
 2462 005e C301     		se_lwz %r0,12(%r1)
 2463 0060 0090     		se_mtlr %r0
 2464 0062 2071     		se_addi %r1,8
 2465              	.LCFI77:
 2466              		.cfi_def_cfa_offset 0
 2467 0064 0004     		se_blr
 2468              		.cfi_endproc
 2469              	.LFE41:
 2470              		.size	vector90, .-vector90
 2471              		.section	.text.vector91,"axv",@progbits
 2472              		.align 1
 2473              		.p2align 4,,15
 2474              		.globl vector91
 2475              		.type	vector91, @function
 2476              	vector91:
 2477              	.LFB42:
 2478              		.loc 1 998 0
 2479              		.cfi_startproc
 2480 0000 182106F8 		e_stwu %r1,-8(%r1)
 2481              	.LCFI78:
 2482              		.cfi_def_cfa_offset 8
 2483 0004 0080     		se_mflr %r0
 2484 0006 D301     		se_stw %r0,12(%r1)
 2485              		.cfi_offset 65, 4
 2486              		.loc 1 1002 0
 2487 0008 70E0E000 		e_lis %r7,channels@ha
 2488 000c 1CE70000 		e_la %r7,channels@l(%r7)
 2489 0010 50E70098 		e_lwz %r7,152(%r7)
 2490 0014 2A07     		se_cmpi %r7,0
 2491 0016 7F800020 		e_mcrf %cr7,%cr0
 2492 001a 7CE00026 		mfcr %r7
 2493 001e 74E7E007 		e_rlwinm %r7,%r7,28,0xf0000000
 2494 0022 7CE80120 		mtcrf 128,%r7
 2495 0026 7A020008 		e_bne %cr0,.L87
 2496              		.loc 1 1003 0
 2497 002a 78000001 		e_bl irqSysHalt
 2498              	.L87:
 2499              		.loc 1 1005 0
 2500 002e 70FEE40A 		e_lis %r7,0xf40a
 2501 0032 6517     		se_bseti %r7,17
 2502 0034 4A66     		se_li %r6,38
 2503 0036 34C7001C 		e_stb %r6,28(%r7)
 2504              		.loc 1 1006 0
GAS LISTING C:\Users\bayra\AppData\Local\Temp\ccMpacND.s 			page 45


 2505 003a 70E0E000 		e_lis %r7,channels@ha
 2506 003e 1CE70000 		e_la %r7,channels@l(%r7)
 2507 0042 50E70098 		e_lwz %r7,152(%r7)
 2508 0046 C277     		se_lwz %r7,8(%r7)
 2509 0048 70C0E000 		e_lis %r6,channels@ha
 2510 004c 1CC60000 		e_la %r6,channels@l(%r6)
 2511 0050 50C60098 		e_lwz %r6,152(%r6)
 2512 0054 C466     		se_lwz %r6,16(%r6)
 2513 0056 4A63     		se_li %r3,38
 2514 0058 0164     		se_mr %r4,%r6
 2515 005a 00B7     		se_mtctr %r7
 2516 005c 0007     		se_bctrl
 2517              		.loc 1 1009 0
 2518 005e C301     		se_lwz %r0,12(%r1)
 2519 0060 0090     		se_mtlr %r0
 2520 0062 2071     		se_addi %r1,8
 2521              	.LCFI79:
 2522              		.cfi_def_cfa_offset 0
 2523 0064 0004     		se_blr
 2524              		.cfi_endproc
 2525              	.LFE42:
 2526              		.size	vector91, .-vector91
 2527              		.section	.text.vector92,"axv",@progbits
 2528              		.align 1
 2529              		.p2align 4,,15
 2530              		.globl vector92
 2531              		.type	vector92, @function
 2532              	vector92:
 2533              	.LFB43:
 2534              		.loc 1 1019 0
 2535              		.cfi_startproc
 2536 0000 182106F8 		e_stwu %r1,-8(%r1)
 2537              	.LCFI80:
 2538              		.cfi_def_cfa_offset 8
 2539 0004 0080     		se_mflr %r0
 2540 0006 D301     		se_stw %r0,12(%r1)
 2541              		.cfi_offset 65, 4
 2542              		.loc 1 1023 0
 2543 0008 70E0E000 		e_lis %r7,channels@ha
 2544 000c 1CE70000 		e_la %r7,channels@l(%r7)
 2545 0010 50E7009C 		e_lwz %r7,156(%r7)
 2546 0014 2A07     		se_cmpi %r7,0
 2547 0016 7F800020 		e_mcrf %cr7,%cr0
 2548 001a 7CE00026 		mfcr %r7
 2549 001e 74E7E007 		e_rlwinm %r7,%r7,28,0xf0000000
 2550 0022 7CE80120 		mtcrf 128,%r7
 2551 0026 7A020008 		e_bne %cr0,.L89
 2552              		.loc 1 1024 0
 2553 002a 78000001 		e_bl irqSysHalt
 2554              	.L89:
 2555              		.loc 1 1026 0
 2556 002e 70FEE40A 		e_lis %r7,0xf40a
 2557 0032 6517     		se_bseti %r7,17
 2558 0034 4A76     		se_li %r6,39
 2559 0036 34C7001C 		e_stb %r6,28(%r7)
 2560              		.loc 1 1027 0
 2561 003a 70E0E000 		e_lis %r7,channels@ha
GAS LISTING C:\Users\bayra\AppData\Local\Temp\ccMpacND.s 			page 46


 2562 003e 1CE70000 		e_la %r7,channels@l(%r7)
 2563 0042 50E7009C 		e_lwz %r7,156(%r7)
 2564 0046 C277     		se_lwz %r7,8(%r7)
 2565 0048 70C0E000 		e_lis %r6,channels@ha
 2566 004c 1CC60000 		e_la %r6,channels@l(%r6)
 2567 0050 50C6009C 		e_lwz %r6,156(%r6)
 2568 0054 C466     		se_lwz %r6,16(%r6)
 2569 0056 4A73     		se_li %r3,39
 2570 0058 0164     		se_mr %r4,%r6
 2571 005a 00B7     		se_mtctr %r7
 2572 005c 0007     		se_bctrl
 2573              		.loc 1 1030 0
 2574 005e C301     		se_lwz %r0,12(%r1)
 2575 0060 0090     		se_mtlr %r0
 2576 0062 2071     		se_addi %r1,8
 2577              	.LCFI81:
 2578              		.cfi_def_cfa_offset 0
 2579 0064 0004     		se_blr
 2580              		.cfi_endproc
 2581              	.LFE43:
 2582              		.size	vector92, .-vector92
 2583              		.section	.text.vector93,"axv",@progbits
 2584              		.align 1
 2585              		.p2align 4,,15
 2586              		.globl vector93
 2587              		.type	vector93, @function
 2588              	vector93:
 2589              	.LFB44:
 2590              		.loc 1 1040 0
 2591              		.cfi_startproc
 2592 0000 182106F8 		e_stwu %r1,-8(%r1)
 2593              	.LCFI82:
 2594              		.cfi_def_cfa_offset 8
 2595 0004 0080     		se_mflr %r0
 2596 0006 D301     		se_stw %r0,12(%r1)
 2597              		.cfi_offset 65, 4
 2598              		.loc 1 1044 0
 2599 0008 70E0E000 		e_lis %r7,channels@ha
 2600 000c 1CE70000 		e_la %r7,channels@l(%r7)
 2601 0010 50E700A0 		e_lwz %r7,160(%r7)
 2602 0014 2A07     		se_cmpi %r7,0
 2603 0016 7F800020 		e_mcrf %cr7,%cr0
 2604 001a 7CE00026 		mfcr %r7
 2605 001e 74E7E007 		e_rlwinm %r7,%r7,28,0xf0000000
 2606 0022 7CE80120 		mtcrf 128,%r7
 2607 0026 7A020008 		e_bne %cr0,.L91
 2608              		.loc 1 1045 0
 2609 002a 78000001 		e_bl irqSysHalt
 2610              	.L91:
 2611              		.loc 1 1047 0
 2612 002e 70FEE40A 		e_lis %r7,0xf40a
 2613 0032 6517     		se_bseti %r7,17
 2614 0034 4A86     		se_li %r6,40
 2615 0036 34C7001C 		e_stb %r6,28(%r7)
 2616              		.loc 1 1048 0
 2617 003a 70E0E000 		e_lis %r7,channels@ha
 2618 003e 1CE70000 		e_la %r7,channels@l(%r7)
GAS LISTING C:\Users\bayra\AppData\Local\Temp\ccMpacND.s 			page 47


 2619 0042 50E700A0 		e_lwz %r7,160(%r7)
 2620 0046 C277     		se_lwz %r7,8(%r7)
 2621 0048 70C0E000 		e_lis %r6,channels@ha
 2622 004c 1CC60000 		e_la %r6,channels@l(%r6)
 2623 0050 50C600A0 		e_lwz %r6,160(%r6)
 2624 0054 C466     		se_lwz %r6,16(%r6)
 2625 0056 4A83     		se_li %r3,40
 2626 0058 0164     		se_mr %r4,%r6
 2627 005a 00B7     		se_mtctr %r7
 2628 005c 0007     		se_bctrl
 2629              		.loc 1 1051 0
 2630 005e C301     		se_lwz %r0,12(%r1)
 2631 0060 0090     		se_mtlr %r0
 2632 0062 2071     		se_addi %r1,8
 2633              	.LCFI83:
 2634              		.cfi_def_cfa_offset 0
 2635 0064 0004     		se_blr
 2636              		.cfi_endproc
 2637              	.LFE44:
 2638              		.size	vector93, .-vector93
 2639              		.section	.text.vector94,"axv",@progbits
 2640              		.align 1
 2641              		.p2align 4,,15
 2642              		.globl vector94
 2643              		.type	vector94, @function
 2644              	vector94:
 2645              	.LFB45:
 2646              		.loc 1 1061 0
 2647              		.cfi_startproc
 2648 0000 182106F8 		e_stwu %r1,-8(%r1)
 2649              	.LCFI84:
 2650              		.cfi_def_cfa_offset 8
 2651 0004 0080     		se_mflr %r0
 2652 0006 D301     		se_stw %r0,12(%r1)
 2653              		.cfi_offset 65, 4
 2654              		.loc 1 1065 0
 2655 0008 70E0E000 		e_lis %r7,channels@ha
 2656 000c 1CE70000 		e_la %r7,channels@l(%r7)
 2657 0010 50E700A4 		e_lwz %r7,164(%r7)
 2658 0014 2A07     		se_cmpi %r7,0
 2659 0016 7F800020 		e_mcrf %cr7,%cr0
 2660 001a 7CE00026 		mfcr %r7
 2661 001e 74E7E007 		e_rlwinm %r7,%r7,28,0xf0000000
 2662 0022 7CE80120 		mtcrf 128,%r7
 2663 0026 7A020008 		e_bne %cr0,.L93
 2664              		.loc 1 1066 0
 2665 002a 78000001 		e_bl irqSysHalt
 2666              	.L93:
 2667              		.loc 1 1068 0
 2668 002e 70FEE40A 		e_lis %r7,0xf40a
 2669 0032 6517     		se_bseti %r7,17
 2670 0034 4A96     		se_li %r6,41
 2671 0036 34C7001C 		e_stb %r6,28(%r7)
 2672              		.loc 1 1069 0
 2673 003a 70E0E000 		e_lis %r7,channels@ha
 2674 003e 1CE70000 		e_la %r7,channels@l(%r7)
 2675 0042 50E700A4 		e_lwz %r7,164(%r7)
GAS LISTING C:\Users\bayra\AppData\Local\Temp\ccMpacND.s 			page 48


 2676 0046 C277     		se_lwz %r7,8(%r7)
 2677 0048 70C0E000 		e_lis %r6,channels@ha
 2678 004c 1CC60000 		e_la %r6,channels@l(%r6)
 2679 0050 50C600A4 		e_lwz %r6,164(%r6)
 2680 0054 C466     		se_lwz %r6,16(%r6)
 2681 0056 4A93     		se_li %r3,41
 2682 0058 0164     		se_mr %r4,%r6
 2683 005a 00B7     		se_mtctr %r7
 2684 005c 0007     		se_bctrl
 2685              		.loc 1 1072 0
 2686 005e C301     		se_lwz %r0,12(%r1)
 2687 0060 0090     		se_mtlr %r0
 2688 0062 2071     		se_addi %r1,8
 2689              	.LCFI85:
 2690              		.cfi_def_cfa_offset 0
 2691 0064 0004     		se_blr
 2692              		.cfi_endproc
 2693              	.LFE45:
 2694              		.size	vector94, .-vector94
 2695              		.section	.text.vector95,"axv",@progbits
 2696              		.align 1
 2697              		.p2align 4,,15
 2698              		.globl vector95
 2699              		.type	vector95, @function
 2700              	vector95:
 2701              	.LFB46:
 2702              		.loc 1 1082 0
 2703              		.cfi_startproc
 2704 0000 182106F8 		e_stwu %r1,-8(%r1)
 2705              	.LCFI86:
 2706              		.cfi_def_cfa_offset 8
 2707 0004 0080     		se_mflr %r0
 2708 0006 D301     		se_stw %r0,12(%r1)
 2709              		.cfi_offset 65, 4
 2710              		.loc 1 1086 0
 2711 0008 70E0E000 		e_lis %r7,channels@ha
 2712 000c 1CE70000 		e_la %r7,channels@l(%r7)
 2713 0010 50E700A8 		e_lwz %r7,168(%r7)
 2714 0014 2A07     		se_cmpi %r7,0
 2715 0016 7F800020 		e_mcrf %cr7,%cr0
 2716 001a 7CE00026 		mfcr %r7
 2717 001e 74E7E007 		e_rlwinm %r7,%r7,28,0xf0000000
 2718 0022 7CE80120 		mtcrf 128,%r7
 2719 0026 7A020008 		e_bne %cr0,.L95
 2720              		.loc 1 1087 0
 2721 002a 78000001 		e_bl irqSysHalt
 2722              	.L95:
 2723              		.loc 1 1089 0
 2724 002e 70FEE40A 		e_lis %r7,0xf40a
 2725 0032 6517     		se_bseti %r7,17
 2726 0034 4AA6     		se_li %r6,42
 2727 0036 34C7001C 		e_stb %r6,28(%r7)
 2728              		.loc 1 1090 0
 2729 003a 70E0E000 		e_lis %r7,channels@ha
 2730 003e 1CE70000 		e_la %r7,channels@l(%r7)
 2731 0042 50E700A8 		e_lwz %r7,168(%r7)
 2732 0046 C277     		se_lwz %r7,8(%r7)
GAS LISTING C:\Users\bayra\AppData\Local\Temp\ccMpacND.s 			page 49


 2733 0048 70C0E000 		e_lis %r6,channels@ha
 2734 004c 1CC60000 		e_la %r6,channels@l(%r6)
 2735 0050 50C600A8 		e_lwz %r6,168(%r6)
 2736 0054 C466     		se_lwz %r6,16(%r6)
 2737 0056 4AA3     		se_li %r3,42
 2738 0058 0164     		se_mr %r4,%r6
 2739 005a 00B7     		se_mtctr %r7
 2740 005c 0007     		se_bctrl
 2741              		.loc 1 1093 0
 2742 005e C301     		se_lwz %r0,12(%r1)
 2743 0060 0090     		se_mtlr %r0
 2744 0062 2071     		se_addi %r1,8
 2745              	.LCFI87:
 2746              		.cfi_def_cfa_offset 0
 2747 0064 0004     		se_blr
 2748              		.cfi_endproc
 2749              	.LFE46:
 2750              		.size	vector95, .-vector95
 2751              		.section	.text.vector96,"axv",@progbits
 2752              		.align 1
 2753              		.p2align 4,,15
 2754              		.globl vector96
 2755              		.type	vector96, @function
 2756              	vector96:
 2757              	.LFB47:
 2758              		.loc 1 1103 0
 2759              		.cfi_startproc
 2760 0000 182106F8 		e_stwu %r1,-8(%r1)
 2761              	.LCFI88:
 2762              		.cfi_def_cfa_offset 8
 2763 0004 0080     		se_mflr %r0
 2764 0006 D301     		se_stw %r0,12(%r1)
 2765              		.cfi_offset 65, 4
 2766              		.loc 1 1107 0
 2767 0008 70E0E000 		e_lis %r7,channels@ha
 2768 000c 1CE70000 		e_la %r7,channels@l(%r7)
 2769 0010 50E700AC 		e_lwz %r7,172(%r7)
 2770 0014 2A07     		se_cmpi %r7,0
 2771 0016 7F800020 		e_mcrf %cr7,%cr0
 2772 001a 7CE00026 		mfcr %r7
 2773 001e 74E7E007 		e_rlwinm %r7,%r7,28,0xf0000000
 2774 0022 7CE80120 		mtcrf 128,%r7
 2775 0026 7A020008 		e_bne %cr0,.L97
 2776              		.loc 1 1108 0
 2777 002a 78000001 		e_bl irqSysHalt
 2778              	.L97:
 2779              		.loc 1 1110 0
 2780 002e 70FEE40A 		e_lis %r7,0xf40a
 2781 0032 6517     		se_bseti %r7,17
 2782 0034 4AB6     		se_li %r6,43
 2783 0036 34C7001C 		e_stb %r6,28(%r7)
 2784              		.loc 1 1111 0
 2785 003a 70E0E000 		e_lis %r7,channels@ha
 2786 003e 1CE70000 		e_la %r7,channels@l(%r7)
 2787 0042 50E700AC 		e_lwz %r7,172(%r7)
 2788 0046 C277     		se_lwz %r7,8(%r7)
 2789 0048 70C0E000 		e_lis %r6,channels@ha
GAS LISTING C:\Users\bayra\AppData\Local\Temp\ccMpacND.s 			page 50


 2790 004c 1CC60000 		e_la %r6,channels@l(%r6)
 2791 0050 50C600AC 		e_lwz %r6,172(%r6)
 2792 0054 C466     		se_lwz %r6,16(%r6)
 2793 0056 4AB3     		se_li %r3,43
 2794 0058 0164     		se_mr %r4,%r6
 2795 005a 00B7     		se_mtctr %r7
 2796 005c 0007     		se_bctrl
 2797              		.loc 1 1114 0
 2798 005e C301     		se_lwz %r0,12(%r1)
 2799 0060 0090     		se_mtlr %r0
 2800 0062 2071     		se_addi %r1,8
 2801              	.LCFI89:
 2802              		.cfi_def_cfa_offset 0
 2803 0064 0004     		se_blr
 2804              		.cfi_endproc
 2805              	.LFE47:
 2806              		.size	vector96, .-vector96
 2807              		.section	.text.vector97,"axv",@progbits
 2808              		.align 1
 2809              		.p2align 4,,15
 2810              		.globl vector97
 2811              		.type	vector97, @function
 2812              	vector97:
 2813              	.LFB48:
 2814              		.loc 1 1124 0
 2815              		.cfi_startproc
 2816 0000 182106F8 		e_stwu %r1,-8(%r1)
 2817              	.LCFI90:
 2818              		.cfi_def_cfa_offset 8
 2819 0004 0080     		se_mflr %r0
 2820 0006 D301     		se_stw %r0,12(%r1)
 2821              		.cfi_offset 65, 4
 2822              		.loc 1 1128 0
 2823 0008 70E0E000 		e_lis %r7,channels@ha
 2824 000c 1CE70000 		e_la %r7,channels@l(%r7)
 2825 0010 50E700B0 		e_lwz %r7,176(%r7)
 2826 0014 2A07     		se_cmpi %r7,0
 2827 0016 7F800020 		e_mcrf %cr7,%cr0
 2828 001a 7CE00026 		mfcr %r7
 2829 001e 74E7E007 		e_rlwinm %r7,%r7,28,0xf0000000
 2830 0022 7CE80120 		mtcrf 128,%r7
 2831 0026 7A020008 		e_bne %cr0,.L99
 2832              		.loc 1 1129 0
 2833 002a 78000001 		e_bl irqSysHalt
 2834              	.L99:
 2835              		.loc 1 1131 0
 2836 002e 70FEE40A 		e_lis %r7,0xf40a
 2837 0032 6517     		se_bseti %r7,17
 2838 0034 4AC6     		se_li %r6,44
 2839 0036 34C7001C 		e_stb %r6,28(%r7)
 2840              		.loc 1 1132 0
 2841 003a 70E0E000 		e_lis %r7,channels@ha
 2842 003e 1CE70000 		e_la %r7,channels@l(%r7)
 2843 0042 50E700B0 		e_lwz %r7,176(%r7)
 2844 0046 C277     		se_lwz %r7,8(%r7)
 2845 0048 70C0E000 		e_lis %r6,channels@ha
 2846 004c 1CC60000 		e_la %r6,channels@l(%r6)
GAS LISTING C:\Users\bayra\AppData\Local\Temp\ccMpacND.s 			page 51


 2847 0050 50C600B0 		e_lwz %r6,176(%r6)
 2848 0054 C466     		se_lwz %r6,16(%r6)
 2849 0056 4AC3     		se_li %r3,44
 2850 0058 0164     		se_mr %r4,%r6
 2851 005a 00B7     		se_mtctr %r7
 2852 005c 0007     		se_bctrl
 2853              		.loc 1 1135 0
 2854 005e C301     		se_lwz %r0,12(%r1)
 2855 0060 0090     		se_mtlr %r0
 2856 0062 2071     		se_addi %r1,8
 2857              	.LCFI91:
 2858              		.cfi_def_cfa_offset 0
 2859 0064 0004     		se_blr
 2860              		.cfi_endproc
 2861              	.LFE48:
 2862              		.size	vector97, .-vector97
 2863              		.section	.text.vector98,"axv",@progbits
 2864              		.align 1
 2865              		.p2align 4,,15
 2866              		.globl vector98
 2867              		.type	vector98, @function
 2868              	vector98:
 2869              	.LFB49:
 2870              		.loc 1 1145 0
 2871              		.cfi_startproc
 2872 0000 182106F8 		e_stwu %r1,-8(%r1)
 2873              	.LCFI92:
 2874              		.cfi_def_cfa_offset 8
 2875 0004 0080     		se_mflr %r0
 2876 0006 D301     		se_stw %r0,12(%r1)
 2877              		.cfi_offset 65, 4
 2878              		.loc 1 1149 0
 2879 0008 70E0E000 		e_lis %r7,channels@ha
 2880 000c 1CE70000 		e_la %r7,channels@l(%r7)
 2881 0010 50E700B4 		e_lwz %r7,180(%r7)
 2882 0014 2A07     		se_cmpi %r7,0
 2883 0016 7F800020 		e_mcrf %cr7,%cr0
 2884 001a 7CE00026 		mfcr %r7
 2885 001e 74E7E007 		e_rlwinm %r7,%r7,28,0xf0000000
 2886 0022 7CE80120 		mtcrf 128,%r7
 2887 0026 7A020008 		e_bne %cr0,.L101
 2888              		.loc 1 1150 0
 2889 002a 78000001 		e_bl irqSysHalt
 2890              	.L101:
 2891              		.loc 1 1152 0
 2892 002e 70FEE40A 		e_lis %r7,0xf40a
 2893 0032 6517     		se_bseti %r7,17
 2894 0034 4AD6     		se_li %r6,45
 2895 0036 34C7001C 		e_stb %r6,28(%r7)
 2896              		.loc 1 1153 0
 2897 003a 70E0E000 		e_lis %r7,channels@ha
 2898 003e 1CE70000 		e_la %r7,channels@l(%r7)
 2899 0042 50E700B4 		e_lwz %r7,180(%r7)
 2900 0046 C277     		se_lwz %r7,8(%r7)
 2901 0048 70C0E000 		e_lis %r6,channels@ha
 2902 004c 1CC60000 		e_la %r6,channels@l(%r6)
 2903 0050 50C600B4 		e_lwz %r6,180(%r6)
GAS LISTING C:\Users\bayra\AppData\Local\Temp\ccMpacND.s 			page 52


 2904 0054 C466     		se_lwz %r6,16(%r6)
 2905 0056 4AD3     		se_li %r3,45
 2906 0058 0164     		se_mr %r4,%r6
 2907 005a 00B7     		se_mtctr %r7
 2908 005c 0007     		se_bctrl
 2909              		.loc 1 1156 0
 2910 005e C301     		se_lwz %r0,12(%r1)
 2911 0060 0090     		se_mtlr %r0
 2912 0062 2071     		se_addi %r1,8
 2913              	.LCFI93:
 2914              		.cfi_def_cfa_offset 0
 2915 0064 0004     		se_blr
 2916              		.cfi_endproc
 2917              	.LFE49:
 2918              		.size	vector98, .-vector98
 2919              		.section	.text.vector99,"axv",@progbits
 2920              		.align 1
 2921              		.p2align 4,,15
 2922              		.globl vector99
 2923              		.type	vector99, @function
 2924              	vector99:
 2925              	.LFB50:
 2926              		.loc 1 1166 0
 2927              		.cfi_startproc
 2928 0000 182106F8 		e_stwu %r1,-8(%r1)
 2929              	.LCFI94:
 2930              		.cfi_def_cfa_offset 8
 2931 0004 0080     		se_mflr %r0
 2932 0006 D301     		se_stw %r0,12(%r1)
 2933              		.cfi_offset 65, 4
 2934              		.loc 1 1170 0
 2935 0008 70E0E000 		e_lis %r7,channels@ha
 2936 000c 1CE70000 		e_la %r7,channels@l(%r7)
 2937 0010 50E700B8 		e_lwz %r7,184(%r7)
 2938 0014 2A07     		se_cmpi %r7,0
 2939 0016 7F800020 		e_mcrf %cr7,%cr0
 2940 001a 7CE00026 		mfcr %r7
 2941 001e 74E7E007 		e_rlwinm %r7,%r7,28,0xf0000000
 2942 0022 7CE80120 		mtcrf 128,%r7
 2943 0026 7A020008 		e_bne %cr0,.L103
 2944              		.loc 1 1171 0
 2945 002a 78000001 		e_bl irqSysHalt
 2946              	.L103:
 2947              		.loc 1 1173 0
 2948 002e 70FEE40A 		e_lis %r7,0xf40a
 2949 0032 6517     		se_bseti %r7,17
 2950 0034 4AE6     		se_li %r6,46
 2951 0036 34C7001C 		e_stb %r6,28(%r7)
 2952              		.loc 1 1174 0
 2953 003a 70E0E000 		e_lis %r7,channels@ha
 2954 003e 1CE70000 		e_la %r7,channels@l(%r7)
 2955 0042 50E700B8 		e_lwz %r7,184(%r7)
 2956 0046 C277     		se_lwz %r7,8(%r7)
 2957 0048 70C0E000 		e_lis %r6,channels@ha
 2958 004c 1CC60000 		e_la %r6,channels@l(%r6)
 2959 0050 50C600B8 		e_lwz %r6,184(%r6)
 2960 0054 C466     		se_lwz %r6,16(%r6)
GAS LISTING C:\Users\bayra\AppData\Local\Temp\ccMpacND.s 			page 53


 2961 0056 4AE3     		se_li %r3,46
 2962 0058 0164     		se_mr %r4,%r6
 2963 005a 00B7     		se_mtctr %r7
 2964 005c 0007     		se_bctrl
 2965              		.loc 1 1177 0
 2966 005e C301     		se_lwz %r0,12(%r1)
 2967 0060 0090     		se_mtlr %r0
 2968 0062 2071     		se_addi %r1,8
 2969              	.LCFI95:
 2970              		.cfi_def_cfa_offset 0
 2971 0064 0004     		se_blr
 2972              		.cfi_endproc
 2973              	.LFE50:
 2974              		.size	vector99, .-vector99
 2975              		.section	.text.vector100,"axv",@progbits
 2976              		.align 1
 2977              		.p2align 4,,15
 2978              		.globl vector100
 2979              		.type	vector100, @function
 2980              	vector100:
 2981              	.LFB51:
 2982              		.loc 1 1187 0
 2983              		.cfi_startproc
 2984 0000 182106F8 		e_stwu %r1,-8(%r1)
 2985              	.LCFI96:
 2986              		.cfi_def_cfa_offset 8
 2987 0004 0080     		se_mflr %r0
 2988 0006 D301     		se_stw %r0,12(%r1)
 2989              		.cfi_offset 65, 4
 2990              		.loc 1 1191 0
 2991 0008 70E0E000 		e_lis %r7,channels@ha
 2992 000c 1CE70000 		e_la %r7,channels@l(%r7)
 2993 0010 50E700BC 		e_lwz %r7,188(%r7)
 2994 0014 2A07     		se_cmpi %r7,0
 2995 0016 7F800020 		e_mcrf %cr7,%cr0
 2996 001a 7CE00026 		mfcr %r7
 2997 001e 74E7E007 		e_rlwinm %r7,%r7,28,0xf0000000
 2998 0022 7CE80120 		mtcrf 128,%r7
 2999 0026 7A020008 		e_bne %cr0,.L105
 3000              		.loc 1 1192 0
 3001 002a 78000001 		e_bl irqSysHalt
 3002              	.L105:
 3003              		.loc 1 1194 0
 3004 002e 70FEE40A 		e_lis %r7,0xf40a
 3005 0032 6517     		se_bseti %r7,17
 3006 0034 4AF6     		se_li %r6,47
 3007 0036 34C7001C 		e_stb %r6,28(%r7)
 3008              		.loc 1 1195 0
 3009 003a 70E0E000 		e_lis %r7,channels@ha
 3010 003e 1CE70000 		e_la %r7,channels@l(%r7)
 3011 0042 50E700BC 		e_lwz %r7,188(%r7)
 3012 0046 C277     		se_lwz %r7,8(%r7)
 3013 0048 70C0E000 		e_lis %r6,channels@ha
 3014 004c 1CC60000 		e_la %r6,channels@l(%r6)
 3015 0050 50C600BC 		e_lwz %r6,188(%r6)
 3016 0054 C466     		se_lwz %r6,16(%r6)
 3017 0056 4AF3     		se_li %r3,47
GAS LISTING C:\Users\bayra\AppData\Local\Temp\ccMpacND.s 			page 54


 3018 0058 0164     		se_mr %r4,%r6
 3019 005a 00B7     		se_mtctr %r7
 3020 005c 0007     		se_bctrl
 3021              		.loc 1 1198 0
 3022 005e C301     		se_lwz %r0,12(%r1)
 3023 0060 0090     		se_mtlr %r0
 3024 0062 2071     		se_addi %r1,8
 3025              	.LCFI97:
 3026              		.cfi_def_cfa_offset 0
 3027 0064 0004     		se_blr
 3028              		.cfi_endproc
 3029              	.LFE51:
 3030              		.size	vector100, .-vector100
 3031              		.section	.text.vector101,"axv",@progbits
 3032              		.align 1
 3033              		.p2align 4,,15
 3034              		.globl vector101
 3035              		.type	vector101, @function
 3036              	vector101:
 3037              	.LFB52:
 3038              		.loc 1 1208 0
 3039              		.cfi_startproc
 3040 0000 182106F8 		e_stwu %r1,-8(%r1)
 3041              	.LCFI98:
 3042              		.cfi_def_cfa_offset 8
 3043 0004 0080     		se_mflr %r0
 3044 0006 D301     		se_stw %r0,12(%r1)
 3045              		.cfi_offset 65, 4
 3046              		.loc 1 1212 0
 3047 0008 70E0E000 		e_lis %r7,channels@ha
 3048 000c 1CE70000 		e_la %r7,channels@l(%r7)
 3049 0010 50E700C0 		e_lwz %r7,192(%r7)
 3050 0014 2A07     		se_cmpi %r7,0
 3051 0016 7F800020 		e_mcrf %cr7,%cr0
 3052 001a 7CE00026 		mfcr %r7
 3053 001e 74E7E007 		e_rlwinm %r7,%r7,28,0xf0000000
 3054 0022 7CE80120 		mtcrf 128,%r7
 3055 0026 7A020008 		e_bne %cr0,.L107
 3056              		.loc 1 1213 0
 3057 002a 78000001 		e_bl irqSysHalt
 3058              	.L107:
 3059              		.loc 1 1215 0
 3060 002e 70FEE40A 		e_lis %r7,0xf40a
 3061 0032 6517     		se_bseti %r7,17
 3062 0034 4B06     		se_li %r6,48
 3063 0036 34C7001C 		e_stb %r6,28(%r7)
 3064              		.loc 1 1216 0
 3065 003a 70E0E000 		e_lis %r7,channels@ha
 3066 003e 1CE70000 		e_la %r7,channels@l(%r7)
 3067 0042 50E700C0 		e_lwz %r7,192(%r7)
 3068 0046 C277     		se_lwz %r7,8(%r7)
 3069 0048 70C0E000 		e_lis %r6,channels@ha
 3070 004c 1CC60000 		e_la %r6,channels@l(%r6)
 3071 0050 50C600C0 		e_lwz %r6,192(%r6)
 3072 0054 C466     		se_lwz %r6,16(%r6)
 3073 0056 4B03     		se_li %r3,48
 3074 0058 0164     		se_mr %r4,%r6
GAS LISTING C:\Users\bayra\AppData\Local\Temp\ccMpacND.s 			page 55


 3075 005a 00B7     		se_mtctr %r7
 3076 005c 0007     		se_bctrl
 3077              		.loc 1 1219 0
 3078 005e C301     		se_lwz %r0,12(%r1)
 3079 0060 0090     		se_mtlr %r0
 3080 0062 2071     		se_addi %r1,8
 3081              	.LCFI99:
 3082              		.cfi_def_cfa_offset 0
 3083 0064 0004     		se_blr
 3084              		.cfi_endproc
 3085              	.LFE52:
 3086              		.size	vector101, .-vector101
 3087              		.section	.text.vector102,"axv",@progbits
 3088              		.align 1
 3089              		.p2align 4,,15
 3090              		.globl vector102
 3091              		.type	vector102, @function
 3092              	vector102:
 3093              	.LFB53:
 3094              		.loc 1 1229 0
 3095              		.cfi_startproc
 3096 0000 182106F8 		e_stwu %r1,-8(%r1)
 3097              	.LCFI100:
 3098              		.cfi_def_cfa_offset 8
 3099 0004 0080     		se_mflr %r0
 3100 0006 D301     		se_stw %r0,12(%r1)
 3101              		.cfi_offset 65, 4
 3102              		.loc 1 1233 0
 3103 0008 70E0E000 		e_lis %r7,channels@ha
 3104 000c 1CE70000 		e_la %r7,channels@l(%r7)
 3105 0010 50E700C4 		e_lwz %r7,196(%r7)
 3106 0014 2A07     		se_cmpi %r7,0
 3107 0016 7F800020 		e_mcrf %cr7,%cr0
 3108 001a 7CE00026 		mfcr %r7
 3109 001e 74E7E007 		e_rlwinm %r7,%r7,28,0xf0000000
 3110 0022 7CE80120 		mtcrf 128,%r7
 3111 0026 7A020008 		e_bne %cr0,.L109
 3112              		.loc 1 1234 0
 3113 002a 78000001 		e_bl irqSysHalt
 3114              	.L109:
 3115              		.loc 1 1236 0
 3116 002e 70FEE40A 		e_lis %r7,0xf40a
 3117 0032 6517     		se_bseti %r7,17
 3118 0034 4B16     		se_li %r6,49
 3119 0036 34C7001C 		e_stb %r6,28(%r7)
 3120              		.loc 1 1237 0
 3121 003a 70E0E000 		e_lis %r7,channels@ha
 3122 003e 1CE70000 		e_la %r7,channels@l(%r7)
 3123 0042 50E700C4 		e_lwz %r7,196(%r7)
 3124 0046 C277     		se_lwz %r7,8(%r7)
 3125 0048 70C0E000 		e_lis %r6,channels@ha
 3126 004c 1CC60000 		e_la %r6,channels@l(%r6)
 3127 0050 50C600C4 		e_lwz %r6,196(%r6)
 3128 0054 C466     		se_lwz %r6,16(%r6)
 3129 0056 4B13     		se_li %r3,49
 3130 0058 0164     		se_mr %r4,%r6
 3131 005a 00B7     		se_mtctr %r7
GAS LISTING C:\Users\bayra\AppData\Local\Temp\ccMpacND.s 			page 56


 3132 005c 0007     		se_bctrl
 3133              		.loc 1 1240 0
 3134 005e C301     		se_lwz %r0,12(%r1)
 3135 0060 0090     		se_mtlr %r0
 3136 0062 2071     		se_addi %r1,8
 3137              	.LCFI101:
 3138              		.cfi_def_cfa_offset 0
 3139 0064 0004     		se_blr
 3140              		.cfi_endproc
 3141              	.LFE53:
 3142              		.size	vector102, .-vector102
 3143              		.section	.text.vector103,"axv",@progbits
 3144              		.align 1
 3145              		.p2align 4,,15
 3146              		.globl vector103
 3147              		.type	vector103, @function
 3148              	vector103:
 3149              	.LFB54:
 3150              		.loc 1 1250 0
 3151              		.cfi_startproc
 3152 0000 182106F8 		e_stwu %r1,-8(%r1)
 3153              	.LCFI102:
 3154              		.cfi_def_cfa_offset 8
 3155 0004 0080     		se_mflr %r0
 3156 0006 D301     		se_stw %r0,12(%r1)
 3157              		.cfi_offset 65, 4
 3158              		.loc 1 1254 0
 3159 0008 70E0E000 		e_lis %r7,channels@ha
 3160 000c 1CE70000 		e_la %r7,channels@l(%r7)
 3161 0010 50E700C8 		e_lwz %r7,200(%r7)
 3162 0014 2A07     		se_cmpi %r7,0
 3163 0016 7F800020 		e_mcrf %cr7,%cr0
 3164 001a 7CE00026 		mfcr %r7
 3165 001e 74E7E007 		e_rlwinm %r7,%r7,28,0xf0000000
 3166 0022 7CE80120 		mtcrf 128,%r7
 3167 0026 7A020008 		e_bne %cr0,.L111
 3168              		.loc 1 1255 0
 3169 002a 78000001 		e_bl irqSysHalt
 3170              	.L111:
 3171              		.loc 1 1257 0
 3172 002e 70FEE40A 		e_lis %r7,0xf40a
 3173 0032 6517     		se_bseti %r7,17
 3174 0034 4B26     		se_li %r6,50
 3175 0036 34C7001C 		e_stb %r6,28(%r7)
 3176              		.loc 1 1258 0
 3177 003a 70E0E000 		e_lis %r7,channels@ha
 3178 003e 1CE70000 		e_la %r7,channels@l(%r7)
 3179 0042 50E700C8 		e_lwz %r7,200(%r7)
 3180 0046 C277     		se_lwz %r7,8(%r7)
 3181 0048 70C0E000 		e_lis %r6,channels@ha
 3182 004c 1CC60000 		e_la %r6,channels@l(%r6)
 3183 0050 50C600C8 		e_lwz %r6,200(%r6)
 3184 0054 C466     		se_lwz %r6,16(%r6)
 3185 0056 4B23     		se_li %r3,50
 3186 0058 0164     		se_mr %r4,%r6
 3187 005a 00B7     		se_mtctr %r7
 3188 005c 0007     		se_bctrl
GAS LISTING C:\Users\bayra\AppData\Local\Temp\ccMpacND.s 			page 57


 3189              		.loc 1 1261 0
 3190 005e C301     		se_lwz %r0,12(%r1)
 3191 0060 0090     		se_mtlr %r0
 3192 0062 2071     		se_addi %r1,8
 3193              	.LCFI103:
 3194              		.cfi_def_cfa_offset 0
 3195 0064 0004     		se_blr
 3196              		.cfi_endproc
 3197              	.LFE54:
 3198              		.size	vector103, .-vector103
 3199              		.section	.text.vector104,"axv",@progbits
 3200              		.align 1
 3201              		.p2align 4,,15
 3202              		.globl vector104
 3203              		.type	vector104, @function
 3204              	vector104:
 3205              	.LFB55:
 3206              		.loc 1 1271 0
 3207              		.cfi_startproc
 3208 0000 182106F8 		e_stwu %r1,-8(%r1)
 3209              	.LCFI104:
 3210              		.cfi_def_cfa_offset 8
 3211 0004 0080     		se_mflr %r0
 3212 0006 D301     		se_stw %r0,12(%r1)
 3213              		.cfi_offset 65, 4
 3214              		.loc 1 1275 0
 3215 0008 70E0E000 		e_lis %r7,channels@ha
 3216 000c 1CE70000 		e_la %r7,channels@l(%r7)
 3217 0010 50E700CC 		e_lwz %r7,204(%r7)
 3218 0014 2A07     		se_cmpi %r7,0
 3219 0016 7F800020 		e_mcrf %cr7,%cr0
 3220 001a 7CE00026 		mfcr %r7
 3221 001e 74E7E007 		e_rlwinm %r7,%r7,28,0xf0000000
 3222 0022 7CE80120 		mtcrf 128,%r7
 3223 0026 7A020008 		e_bne %cr0,.L113
 3224              		.loc 1 1276 0
 3225 002a 78000001 		e_bl irqSysHalt
 3226              	.L113:
 3227              		.loc 1 1278 0
 3228 002e 70FEE40A 		e_lis %r7,0xf40a
 3229 0032 6517     		se_bseti %r7,17
 3230 0034 4B36     		se_li %r6,51
 3231 0036 34C7001C 		e_stb %r6,28(%r7)
 3232              		.loc 1 1279 0
 3233 003a 70E0E000 		e_lis %r7,channels@ha
 3234 003e 1CE70000 		e_la %r7,channels@l(%r7)
 3235 0042 50E700CC 		e_lwz %r7,204(%r7)
 3236 0046 C277     		se_lwz %r7,8(%r7)
 3237 0048 70C0E000 		e_lis %r6,channels@ha
 3238 004c 1CC60000 		e_la %r6,channels@l(%r6)
 3239 0050 50C600CC 		e_lwz %r6,204(%r6)
 3240 0054 C466     		se_lwz %r6,16(%r6)
 3241 0056 4B33     		se_li %r3,51
 3242 0058 0164     		se_mr %r4,%r6
 3243 005a 00B7     		se_mtctr %r7
 3244 005c 0007     		se_bctrl
 3245              		.loc 1 1282 0
GAS LISTING C:\Users\bayra\AppData\Local\Temp\ccMpacND.s 			page 58


 3246 005e C301     		se_lwz %r0,12(%r1)
 3247 0060 0090     		se_mtlr %r0
 3248 0062 2071     		se_addi %r1,8
 3249              	.LCFI105:
 3250              		.cfi_def_cfa_offset 0
 3251 0064 0004     		se_blr
 3252              		.cfi_endproc
 3253              	.LFE55:
 3254              		.size	vector104, .-vector104
 3255              		.section	.text.vector105,"axv",@progbits
 3256              		.align 1
 3257              		.p2align 4,,15
 3258              		.globl vector105
 3259              		.type	vector105, @function
 3260              	vector105:
 3261              	.LFB56:
 3262              		.loc 1 1292 0
 3263              		.cfi_startproc
 3264 0000 182106F8 		e_stwu %r1,-8(%r1)
 3265              	.LCFI106:
 3266              		.cfi_def_cfa_offset 8
 3267 0004 0080     		se_mflr %r0
 3268 0006 D301     		se_stw %r0,12(%r1)
 3269              		.cfi_offset 65, 4
 3270              		.loc 1 1296 0
 3271 0008 70E0E000 		e_lis %r7,channels@ha
 3272 000c 1CE70000 		e_la %r7,channels@l(%r7)
 3273 0010 50E700D0 		e_lwz %r7,208(%r7)
 3274 0014 2A07     		se_cmpi %r7,0
 3275 0016 7F800020 		e_mcrf %cr7,%cr0
 3276 001a 7CE00026 		mfcr %r7
 3277 001e 74E7E007 		e_rlwinm %r7,%r7,28,0xf0000000
 3278 0022 7CE80120 		mtcrf 128,%r7
 3279 0026 7A020008 		e_bne %cr0,.L115
 3280              		.loc 1 1297 0
 3281 002a 78000001 		e_bl irqSysHalt
 3282              	.L115:
 3283              		.loc 1 1299 0
 3284 002e 70FEE40A 		e_lis %r7,0xf40a
 3285 0032 6517     		se_bseti %r7,17
 3286 0034 4B46     		se_li %r6,52
 3287 0036 34C7001C 		e_stb %r6,28(%r7)
 3288              		.loc 1 1300 0
 3289 003a 70E0E000 		e_lis %r7,channels@ha
 3290 003e 1CE70000 		e_la %r7,channels@l(%r7)
 3291 0042 50E700D0 		e_lwz %r7,208(%r7)
 3292 0046 C277     		se_lwz %r7,8(%r7)
 3293 0048 70C0E000 		e_lis %r6,channels@ha
 3294 004c 1CC60000 		e_la %r6,channels@l(%r6)
 3295 0050 50C600D0 		e_lwz %r6,208(%r6)
 3296 0054 C466     		se_lwz %r6,16(%r6)
 3297 0056 4B43     		se_li %r3,52
 3298 0058 0164     		se_mr %r4,%r6
 3299 005a 00B7     		se_mtctr %r7
 3300 005c 0007     		se_bctrl
 3301              		.loc 1 1303 0
 3302 005e C301     		se_lwz %r0,12(%r1)
GAS LISTING C:\Users\bayra\AppData\Local\Temp\ccMpacND.s 			page 59


 3303 0060 0090     		se_mtlr %r0
 3304 0062 2071     		se_addi %r1,8
 3305              	.LCFI107:
 3306              		.cfi_def_cfa_offset 0
 3307 0064 0004     		se_blr
 3308              		.cfi_endproc
 3309              	.LFE56:
 3310              		.size	vector105, .-vector105
 3311              		.section	.text.vector106,"axv",@progbits
 3312              		.align 1
 3313              		.p2align 4,,15
 3314              		.globl vector106
 3315              		.type	vector106, @function
 3316              	vector106:
 3317              	.LFB57:
 3318              		.loc 1 1313 0
 3319              		.cfi_startproc
 3320 0000 182106F8 		e_stwu %r1,-8(%r1)
 3321              	.LCFI108:
 3322              		.cfi_def_cfa_offset 8
 3323 0004 0080     		se_mflr %r0
 3324 0006 D301     		se_stw %r0,12(%r1)
 3325              		.cfi_offset 65, 4
 3326              		.loc 1 1317 0
 3327 0008 70E0E000 		e_lis %r7,channels@ha
 3328 000c 1CE70000 		e_la %r7,channels@l(%r7)
 3329 0010 50E700D4 		e_lwz %r7,212(%r7)
 3330 0014 2A07     		se_cmpi %r7,0
 3331 0016 7F800020 		e_mcrf %cr7,%cr0
 3332 001a 7CE00026 		mfcr %r7
 3333 001e 74E7E007 		e_rlwinm %r7,%r7,28,0xf0000000
 3334 0022 7CE80120 		mtcrf 128,%r7
 3335 0026 7A020008 		e_bne %cr0,.L117
 3336              		.loc 1 1318 0
 3337 002a 78000001 		e_bl irqSysHalt
 3338              	.L117:
 3339              		.loc 1 1320 0
 3340 002e 70FEE40A 		e_lis %r7,0xf40a
 3341 0032 6517     		se_bseti %r7,17
 3342 0034 4B56     		se_li %r6,53
 3343 0036 34C7001C 		e_stb %r6,28(%r7)
 3344              		.loc 1 1321 0
 3345 003a 70E0E000 		e_lis %r7,channels@ha
 3346 003e 1CE70000 		e_la %r7,channels@l(%r7)
 3347 0042 50E700D4 		e_lwz %r7,212(%r7)
 3348 0046 C277     		se_lwz %r7,8(%r7)
 3349 0048 70C0E000 		e_lis %r6,channels@ha
 3350 004c 1CC60000 		e_la %r6,channels@l(%r6)
 3351 0050 50C600D4 		e_lwz %r6,212(%r6)
 3352 0054 C466     		se_lwz %r6,16(%r6)
 3353 0056 4B53     		se_li %r3,53
 3354 0058 0164     		se_mr %r4,%r6
 3355 005a 00B7     		se_mtctr %r7
 3356 005c 0007     		se_bctrl
 3357              		.loc 1 1324 0
 3358 005e C301     		se_lwz %r0,12(%r1)
 3359 0060 0090     		se_mtlr %r0
GAS LISTING C:\Users\bayra\AppData\Local\Temp\ccMpacND.s 			page 60


 3360 0062 2071     		se_addi %r1,8
 3361              	.LCFI109:
 3362              		.cfi_def_cfa_offset 0
 3363 0064 0004     		se_blr
 3364              		.cfi_endproc
 3365              	.LFE57:
 3366              		.size	vector106, .-vector106
 3367              		.section	.text.vector107,"axv",@progbits
 3368              		.align 1
 3369              		.p2align 4,,15
 3370              		.globl vector107
 3371              		.type	vector107, @function
 3372              	vector107:
 3373              	.LFB58:
 3374              		.loc 1 1334 0
 3375              		.cfi_startproc
 3376 0000 182106F8 		e_stwu %r1,-8(%r1)
 3377              	.LCFI110:
 3378              		.cfi_def_cfa_offset 8
 3379 0004 0080     		se_mflr %r0
 3380 0006 D301     		se_stw %r0,12(%r1)
 3381              		.cfi_offset 65, 4
 3382              		.loc 1 1338 0
 3383 0008 70E0E000 		e_lis %r7,channels@ha
 3384 000c 1CE70000 		e_la %r7,channels@l(%r7)
 3385 0010 50E700D8 		e_lwz %r7,216(%r7)
 3386 0014 2A07     		se_cmpi %r7,0
 3387 0016 7F800020 		e_mcrf %cr7,%cr0
 3388 001a 7CE00026 		mfcr %r7
 3389 001e 74E7E007 		e_rlwinm %r7,%r7,28,0xf0000000
 3390 0022 7CE80120 		mtcrf 128,%r7
 3391 0026 7A020008 		e_bne %cr0,.L119
 3392              		.loc 1 1339 0
 3393 002a 78000001 		e_bl irqSysHalt
 3394              	.L119:
 3395              		.loc 1 1341 0
 3396 002e 70FEE40A 		e_lis %r7,0xf40a
 3397 0032 6517     		se_bseti %r7,17
 3398 0034 4B66     		se_li %r6,54
 3399 0036 34C7001C 		e_stb %r6,28(%r7)
 3400              		.loc 1 1342 0
 3401 003a 70E0E000 		e_lis %r7,channels@ha
 3402 003e 1CE70000 		e_la %r7,channels@l(%r7)
 3403 0042 50E700D8 		e_lwz %r7,216(%r7)
 3404 0046 C277     		se_lwz %r7,8(%r7)
 3405 0048 70C0E000 		e_lis %r6,channels@ha
 3406 004c 1CC60000 		e_la %r6,channels@l(%r6)
 3407 0050 50C600D8 		e_lwz %r6,216(%r6)
 3408 0054 C466     		se_lwz %r6,16(%r6)
 3409 0056 4B63     		se_li %r3,54
 3410 0058 0164     		se_mr %r4,%r6
 3411 005a 00B7     		se_mtctr %r7
 3412 005c 0007     		se_bctrl
 3413              		.loc 1 1345 0
 3414 005e C301     		se_lwz %r0,12(%r1)
 3415 0060 0090     		se_mtlr %r0
 3416 0062 2071     		se_addi %r1,8
GAS LISTING C:\Users\bayra\AppData\Local\Temp\ccMpacND.s 			page 61


 3417              	.LCFI111:
 3418              		.cfi_def_cfa_offset 0
 3419 0064 0004     		se_blr
 3420              		.cfi_endproc
 3421              	.LFE58:
 3422              		.size	vector107, .-vector107
 3423              		.section	.text.vector108,"axv",@progbits
 3424              		.align 1
 3425              		.p2align 4,,15
 3426              		.globl vector108
 3427              		.type	vector108, @function
 3428              	vector108:
 3429              	.LFB59:
 3430              		.loc 1 1355 0
 3431              		.cfi_startproc
 3432 0000 182106F8 		e_stwu %r1,-8(%r1)
 3433              	.LCFI112:
 3434              		.cfi_def_cfa_offset 8
 3435 0004 0080     		se_mflr %r0
 3436 0006 D301     		se_stw %r0,12(%r1)
 3437              		.cfi_offset 65, 4
 3438              		.loc 1 1359 0
 3439 0008 70E0E000 		e_lis %r7,channels@ha
 3440 000c 1CE70000 		e_la %r7,channels@l(%r7)
 3441 0010 50E700DC 		e_lwz %r7,220(%r7)
 3442 0014 2A07     		se_cmpi %r7,0
 3443 0016 7F800020 		e_mcrf %cr7,%cr0
 3444 001a 7CE00026 		mfcr %r7
 3445 001e 74E7E007 		e_rlwinm %r7,%r7,28,0xf0000000
 3446 0022 7CE80120 		mtcrf 128,%r7
 3447 0026 7A020008 		e_bne %cr0,.L121
 3448              		.loc 1 1360 0
 3449 002a 78000001 		e_bl irqSysHalt
 3450              	.L121:
 3451              		.loc 1 1362 0
 3452 002e 70FEE40A 		e_lis %r7,0xf40a
 3453 0032 6517     		se_bseti %r7,17
 3454 0034 4B76     		se_li %r6,55
 3455 0036 34C7001C 		e_stb %r6,28(%r7)
 3456              		.loc 1 1363 0
 3457 003a 70E0E000 		e_lis %r7,channels@ha
 3458 003e 1CE70000 		e_la %r7,channels@l(%r7)
 3459 0042 50E700DC 		e_lwz %r7,220(%r7)
 3460 0046 C277     		se_lwz %r7,8(%r7)
 3461 0048 70C0E000 		e_lis %r6,channels@ha
 3462 004c 1CC60000 		e_la %r6,channels@l(%r6)
 3463 0050 50C600DC 		e_lwz %r6,220(%r6)
 3464 0054 C466     		se_lwz %r6,16(%r6)
 3465 0056 4B73     		se_li %r3,55
 3466 0058 0164     		se_mr %r4,%r6
 3467 005a 00B7     		se_mtctr %r7
 3468 005c 0007     		se_bctrl
 3469              		.loc 1 1366 0
 3470 005e C301     		se_lwz %r0,12(%r1)
 3471 0060 0090     		se_mtlr %r0
 3472 0062 2071     		se_addi %r1,8
 3473              	.LCFI113:
GAS LISTING C:\Users\bayra\AppData\Local\Temp\ccMpacND.s 			page 62


 3474              		.cfi_def_cfa_offset 0
 3475 0064 0004     		se_blr
 3476              		.cfi_endproc
 3477              	.LFE59:
 3478              		.size	vector108, .-vector108
 3479              		.section	.text.vector109,"axv",@progbits
 3480              		.align 1
 3481              		.p2align 4,,15
 3482              		.globl vector109
 3483              		.type	vector109, @function
 3484              	vector109:
 3485              	.LFB60:
 3486              		.loc 1 1376 0
 3487              		.cfi_startproc
 3488 0000 182106F8 		e_stwu %r1,-8(%r1)
 3489              	.LCFI114:
 3490              		.cfi_def_cfa_offset 8
 3491 0004 0080     		se_mflr %r0
 3492 0006 D301     		se_stw %r0,12(%r1)
 3493              		.cfi_offset 65, 4
 3494              		.loc 1 1380 0
 3495 0008 70E0E000 		e_lis %r7,channels@ha
 3496 000c 1CE70000 		e_la %r7,channels@l(%r7)
 3497 0010 50E700E0 		e_lwz %r7,224(%r7)
 3498 0014 2A07     		se_cmpi %r7,0
 3499 0016 7F800020 		e_mcrf %cr7,%cr0
 3500 001a 7CE00026 		mfcr %r7
 3501 001e 74E7E007 		e_rlwinm %r7,%r7,28,0xf0000000
 3502 0022 7CE80120 		mtcrf 128,%r7
 3503 0026 7A020008 		e_bne %cr0,.L123
 3504              		.loc 1 1381 0
 3505 002a 78000001 		e_bl irqSysHalt
 3506              	.L123:
 3507              		.loc 1 1383 0
 3508 002e 70FEE40A 		e_lis %r7,0xf40a
 3509 0032 6517     		se_bseti %r7,17
 3510 0034 4B86     		se_li %r6,56
 3511 0036 34C7001C 		e_stb %r6,28(%r7)
 3512              		.loc 1 1384 0
 3513 003a 70E0E000 		e_lis %r7,channels@ha
 3514 003e 1CE70000 		e_la %r7,channels@l(%r7)
 3515 0042 50E700E0 		e_lwz %r7,224(%r7)
 3516 0046 C277     		se_lwz %r7,8(%r7)
 3517 0048 70C0E000 		e_lis %r6,channels@ha
 3518 004c 1CC60000 		e_la %r6,channels@l(%r6)
 3519 0050 50C600E0 		e_lwz %r6,224(%r6)
 3520 0054 C466     		se_lwz %r6,16(%r6)
 3521 0056 4B83     		se_li %r3,56
 3522 0058 0164     		se_mr %r4,%r6
 3523 005a 00B7     		se_mtctr %r7
 3524 005c 0007     		se_bctrl
 3525              		.loc 1 1387 0
 3526 005e C301     		se_lwz %r0,12(%r1)
 3527 0060 0090     		se_mtlr %r0
 3528 0062 2071     		se_addi %r1,8
 3529              	.LCFI115:
 3530              		.cfi_def_cfa_offset 0
GAS LISTING C:\Users\bayra\AppData\Local\Temp\ccMpacND.s 			page 63


 3531 0064 0004     		se_blr
 3532              		.cfi_endproc
 3533              	.LFE60:
 3534              		.size	vector109, .-vector109
 3535              		.section	.text.vector110,"axv",@progbits
 3536              		.align 1
 3537              		.p2align 4,,15
 3538              		.globl vector110
 3539              		.type	vector110, @function
 3540              	vector110:
 3541              	.LFB61:
 3542              		.loc 1 1397 0
 3543              		.cfi_startproc
 3544 0000 182106F8 		e_stwu %r1,-8(%r1)
 3545              	.LCFI116:
 3546              		.cfi_def_cfa_offset 8
 3547 0004 0080     		se_mflr %r0
 3548 0006 D301     		se_stw %r0,12(%r1)
 3549              		.cfi_offset 65, 4
 3550              		.loc 1 1401 0
 3551 0008 70E0E000 		e_lis %r7,channels@ha
 3552 000c 1CE70000 		e_la %r7,channels@l(%r7)
 3553 0010 50E700E4 		e_lwz %r7,228(%r7)
 3554 0014 2A07     		se_cmpi %r7,0
 3555 0016 7F800020 		e_mcrf %cr7,%cr0
 3556 001a 7CE00026 		mfcr %r7
 3557 001e 74E7E007 		e_rlwinm %r7,%r7,28,0xf0000000
 3558 0022 7CE80120 		mtcrf 128,%r7
 3559 0026 7A020008 		e_bne %cr0,.L125
 3560              		.loc 1 1402 0
 3561 002a 78000001 		e_bl irqSysHalt
 3562              	.L125:
 3563              		.loc 1 1404 0
 3564 002e 70FEE40A 		e_lis %r7,0xf40a
 3565 0032 6517     		se_bseti %r7,17
 3566 0034 4B96     		se_li %r6,57
 3567 0036 34C7001C 		e_stb %r6,28(%r7)
 3568              		.loc 1 1405 0
 3569 003a 70E0E000 		e_lis %r7,channels@ha
 3570 003e 1CE70000 		e_la %r7,channels@l(%r7)
 3571 0042 50E700E4 		e_lwz %r7,228(%r7)
 3572 0046 C277     		se_lwz %r7,8(%r7)
 3573 0048 70C0E000 		e_lis %r6,channels@ha
 3574 004c 1CC60000 		e_la %r6,channels@l(%r6)
 3575 0050 50C600E4 		e_lwz %r6,228(%r6)
 3576 0054 C466     		se_lwz %r6,16(%r6)
 3577 0056 4B93     		se_li %r3,57
 3578 0058 0164     		se_mr %r4,%r6
 3579 005a 00B7     		se_mtctr %r7
 3580 005c 0007     		se_bctrl
 3581              		.loc 1 1408 0
 3582 005e C301     		se_lwz %r0,12(%r1)
 3583 0060 0090     		se_mtlr %r0
 3584 0062 2071     		se_addi %r1,8
 3585              	.LCFI117:
 3586              		.cfi_def_cfa_offset 0
 3587 0064 0004     		se_blr
GAS LISTING C:\Users\bayra\AppData\Local\Temp\ccMpacND.s 			page 64


 3588              		.cfi_endproc
 3589              	.LFE61:
 3590              		.size	vector110, .-vector110
 3591              		.section	.text.vector111,"axv",@progbits
 3592              		.align 1
 3593              		.p2align 4,,15
 3594              		.globl vector111
 3595              		.type	vector111, @function
 3596              	vector111:
 3597              	.LFB62:
 3598              		.loc 1 1418 0
 3599              		.cfi_startproc
 3600 0000 182106F8 		e_stwu %r1,-8(%r1)
 3601              	.LCFI118:
 3602              		.cfi_def_cfa_offset 8
 3603 0004 0080     		se_mflr %r0
 3604 0006 D301     		se_stw %r0,12(%r1)
 3605              		.cfi_offset 65, 4
 3606              		.loc 1 1422 0
 3607 0008 70E0E000 		e_lis %r7,channels@ha
 3608 000c 1CE70000 		e_la %r7,channels@l(%r7)
 3609 0010 50E700E8 		e_lwz %r7,232(%r7)
 3610 0014 2A07     		se_cmpi %r7,0
 3611 0016 7F800020 		e_mcrf %cr7,%cr0
 3612 001a 7CE00026 		mfcr %r7
 3613 001e 74E7E007 		e_rlwinm %r7,%r7,28,0xf0000000
 3614 0022 7CE80120 		mtcrf 128,%r7
 3615 0026 7A020008 		e_bne %cr0,.L127
 3616              		.loc 1 1423 0
 3617 002a 78000001 		e_bl irqSysHalt
 3618              	.L127:
 3619              		.loc 1 1425 0
 3620 002e 70FEE40A 		e_lis %r7,0xf40a
 3621 0032 6517     		se_bseti %r7,17
 3622 0034 4BA6     		se_li %r6,58
 3623 0036 34C7001C 		e_stb %r6,28(%r7)
 3624              		.loc 1 1426 0
 3625 003a 70E0E000 		e_lis %r7,channels@ha
 3626 003e 1CE70000 		e_la %r7,channels@l(%r7)
 3627 0042 50E700E8 		e_lwz %r7,232(%r7)
 3628 0046 C277     		se_lwz %r7,8(%r7)
 3629 0048 70C0E000 		e_lis %r6,channels@ha
 3630 004c 1CC60000 		e_la %r6,channels@l(%r6)
 3631 0050 50C600E8 		e_lwz %r6,232(%r6)
 3632 0054 C466     		se_lwz %r6,16(%r6)
 3633 0056 4BA3     		se_li %r3,58
 3634 0058 0164     		se_mr %r4,%r6
 3635 005a 00B7     		se_mtctr %r7
 3636 005c 0007     		se_bctrl
 3637              		.loc 1 1429 0
 3638 005e C301     		se_lwz %r0,12(%r1)
 3639 0060 0090     		se_mtlr %r0
 3640 0062 2071     		se_addi %r1,8
 3641              	.LCFI119:
 3642              		.cfi_def_cfa_offset 0
 3643 0064 0004     		se_blr
 3644              		.cfi_endproc
GAS LISTING C:\Users\bayra\AppData\Local\Temp\ccMpacND.s 			page 65


 3645              	.LFE62:
 3646              		.size	vector111, .-vector111
 3647              		.section	.text.vector112,"axv",@progbits
 3648              		.align 1
 3649              		.p2align 4,,15
 3650              		.globl vector112
 3651              		.type	vector112, @function
 3652              	vector112:
 3653              	.LFB63:
 3654              		.loc 1 1439 0
 3655              		.cfi_startproc
 3656 0000 182106F8 		e_stwu %r1,-8(%r1)
 3657              	.LCFI120:
 3658              		.cfi_def_cfa_offset 8
 3659 0004 0080     		se_mflr %r0
 3660 0006 D301     		se_stw %r0,12(%r1)
 3661              		.cfi_offset 65, 4
 3662              		.loc 1 1443 0
 3663 0008 70E0E000 		e_lis %r7,channels@ha
 3664 000c 1CE70000 		e_la %r7,channels@l(%r7)
 3665 0010 50E700EC 		e_lwz %r7,236(%r7)
 3666 0014 2A07     		se_cmpi %r7,0
 3667 0016 7F800020 		e_mcrf %cr7,%cr0
 3668 001a 7CE00026 		mfcr %r7
 3669 001e 74E7E007 		e_rlwinm %r7,%r7,28,0xf0000000
 3670 0022 7CE80120 		mtcrf 128,%r7
 3671 0026 7A020008 		e_bne %cr0,.L129
 3672              		.loc 1 1444 0
 3673 002a 78000001 		e_bl irqSysHalt
 3674              	.L129:
 3675              		.loc 1 1446 0
 3676 002e 70FEE40A 		e_lis %r7,0xf40a
 3677 0032 6517     		se_bseti %r7,17
 3678 0034 4BB6     		se_li %r6,59
 3679 0036 34C7001C 		e_stb %r6,28(%r7)
 3680              		.loc 1 1447 0
 3681 003a 70E0E000 		e_lis %r7,channels@ha
 3682 003e 1CE70000 		e_la %r7,channels@l(%r7)
 3683 0042 50E700EC 		e_lwz %r7,236(%r7)
 3684 0046 C277     		se_lwz %r7,8(%r7)
 3685 0048 70C0E000 		e_lis %r6,channels@ha
 3686 004c 1CC60000 		e_la %r6,channels@l(%r6)
 3687 0050 50C600EC 		e_lwz %r6,236(%r6)
 3688 0054 C466     		se_lwz %r6,16(%r6)
 3689 0056 4BB3     		se_li %r3,59
 3690 0058 0164     		se_mr %r4,%r6
 3691 005a 00B7     		se_mtctr %r7
 3692 005c 0007     		se_bctrl
 3693              		.loc 1 1450 0
 3694 005e C301     		se_lwz %r0,12(%r1)
 3695 0060 0090     		se_mtlr %r0
 3696 0062 2071     		se_addi %r1,8
 3697              	.LCFI121:
 3698              		.cfi_def_cfa_offset 0
 3699 0064 0004     		se_blr
 3700              		.cfi_endproc
 3701              	.LFE63:
GAS LISTING C:\Users\bayra\AppData\Local\Temp\ccMpacND.s 			page 66


 3702              		.size	vector112, .-vector112
 3703              		.section	.text.vector113,"axv",@progbits
 3704              		.align 1
 3705              		.p2align 4,,15
 3706              		.globl vector113
 3707              		.type	vector113, @function
 3708              	vector113:
 3709              	.LFB64:
 3710              		.loc 1 1460 0
 3711              		.cfi_startproc
 3712 0000 182106F8 		e_stwu %r1,-8(%r1)
 3713              	.LCFI122:
 3714              		.cfi_def_cfa_offset 8
 3715 0004 0080     		se_mflr %r0
 3716 0006 D301     		se_stw %r0,12(%r1)
 3717              		.cfi_offset 65, 4
 3718              		.loc 1 1464 0
 3719 0008 70E0E000 		e_lis %r7,channels@ha
 3720 000c 1CE70000 		e_la %r7,channels@l(%r7)
 3721 0010 50E700F0 		e_lwz %r7,240(%r7)
 3722 0014 2A07     		se_cmpi %r7,0
 3723 0016 7F800020 		e_mcrf %cr7,%cr0
 3724 001a 7CE00026 		mfcr %r7
 3725 001e 74E7E007 		e_rlwinm %r7,%r7,28,0xf0000000
 3726 0022 7CE80120 		mtcrf 128,%r7
 3727 0026 7A020008 		e_bne %cr0,.L131
 3728              		.loc 1 1465 0
 3729 002a 78000001 		e_bl irqSysHalt
 3730              	.L131:
 3731              		.loc 1 1467 0
 3732 002e 70FEE40A 		e_lis %r7,0xf40a
 3733 0032 6517     		se_bseti %r7,17
 3734 0034 4BC6     		se_li %r6,60
 3735 0036 34C7001C 		e_stb %r6,28(%r7)
 3736              		.loc 1 1468 0
 3737 003a 70E0E000 		e_lis %r7,channels@ha
 3738 003e 1CE70000 		e_la %r7,channels@l(%r7)
 3739 0042 50E700F0 		e_lwz %r7,240(%r7)
 3740 0046 C277     		se_lwz %r7,8(%r7)
 3741 0048 70C0E000 		e_lis %r6,channels@ha
 3742 004c 1CC60000 		e_la %r6,channels@l(%r6)
 3743 0050 50C600F0 		e_lwz %r6,240(%r6)
 3744 0054 C466     		se_lwz %r6,16(%r6)
 3745 0056 4BC3     		se_li %r3,60
 3746 0058 0164     		se_mr %r4,%r6
 3747 005a 00B7     		se_mtctr %r7
 3748 005c 0007     		se_bctrl
 3749              		.loc 1 1471 0
 3750 005e C301     		se_lwz %r0,12(%r1)
 3751 0060 0090     		se_mtlr %r0
 3752 0062 2071     		se_addi %r1,8
 3753              	.LCFI123:
 3754              		.cfi_def_cfa_offset 0
 3755 0064 0004     		se_blr
 3756              		.cfi_endproc
 3757              	.LFE64:
 3758              		.size	vector113, .-vector113
GAS LISTING C:\Users\bayra\AppData\Local\Temp\ccMpacND.s 			page 67


 3759              		.section	.text.vector114,"axv",@progbits
 3760              		.align 1
 3761              		.p2align 4,,15
 3762              		.globl vector114
 3763              		.type	vector114, @function
 3764              	vector114:
 3765              	.LFB65:
 3766              		.loc 1 1481 0
 3767              		.cfi_startproc
 3768 0000 182106F8 		e_stwu %r1,-8(%r1)
 3769              	.LCFI124:
 3770              		.cfi_def_cfa_offset 8
 3771 0004 0080     		se_mflr %r0
 3772 0006 D301     		se_stw %r0,12(%r1)
 3773              		.cfi_offset 65, 4
 3774              		.loc 1 1485 0
 3775 0008 70E0E000 		e_lis %r7,channels@ha
 3776 000c 1CE70000 		e_la %r7,channels@l(%r7)
 3777 0010 50E700F4 		e_lwz %r7,244(%r7)
 3778 0014 2A07     		se_cmpi %r7,0
 3779 0016 7F800020 		e_mcrf %cr7,%cr0
 3780 001a 7CE00026 		mfcr %r7
 3781 001e 74E7E007 		e_rlwinm %r7,%r7,28,0xf0000000
 3782 0022 7CE80120 		mtcrf 128,%r7
 3783 0026 7A020008 		e_bne %cr0,.L133
 3784              		.loc 1 1486 0
 3785 002a 78000001 		e_bl irqSysHalt
 3786              	.L133:
 3787              		.loc 1 1488 0
 3788 002e 70FEE40A 		e_lis %r7,0xf40a
 3789 0032 6517     		se_bseti %r7,17
 3790 0034 4BD6     		se_li %r6,61
 3791 0036 34C7001C 		e_stb %r6,28(%r7)
 3792              		.loc 1 1489 0
 3793 003a 70E0E000 		e_lis %r7,channels@ha
 3794 003e 1CE70000 		e_la %r7,channels@l(%r7)
 3795 0042 50E700F4 		e_lwz %r7,244(%r7)
 3796 0046 C277     		se_lwz %r7,8(%r7)
 3797 0048 70C0E000 		e_lis %r6,channels@ha
 3798 004c 1CC60000 		e_la %r6,channels@l(%r6)
 3799 0050 50C600F4 		e_lwz %r6,244(%r6)
 3800 0054 C466     		se_lwz %r6,16(%r6)
 3801 0056 4BD3     		se_li %r3,61
 3802 0058 0164     		se_mr %r4,%r6
 3803 005a 00B7     		se_mtctr %r7
 3804 005c 0007     		se_bctrl
 3805              		.loc 1 1492 0
 3806 005e C301     		se_lwz %r0,12(%r1)
 3807 0060 0090     		se_mtlr %r0
 3808 0062 2071     		se_addi %r1,8
 3809              	.LCFI125:
 3810              		.cfi_def_cfa_offset 0
 3811 0064 0004     		se_blr
 3812              		.cfi_endproc
 3813              	.LFE65:
 3814              		.size	vector114, .-vector114
 3815              		.section	.text.vector115,"axv",@progbits
GAS LISTING C:\Users\bayra\AppData\Local\Temp\ccMpacND.s 			page 68


 3816              		.align 1
 3817              		.p2align 4,,15
 3818              		.globl vector115
 3819              		.type	vector115, @function
 3820              	vector115:
 3821              	.LFB66:
 3822              		.loc 1 1502 0
 3823              		.cfi_startproc
 3824 0000 182106F8 		e_stwu %r1,-8(%r1)
 3825              	.LCFI126:
 3826              		.cfi_def_cfa_offset 8
 3827 0004 0080     		se_mflr %r0
 3828 0006 D301     		se_stw %r0,12(%r1)
 3829              		.cfi_offset 65, 4
 3830              		.loc 1 1506 0
 3831 0008 70E0E000 		e_lis %r7,channels@ha
 3832 000c 1CE70000 		e_la %r7,channels@l(%r7)
 3833 0010 50E700F8 		e_lwz %r7,248(%r7)
 3834 0014 2A07     		se_cmpi %r7,0
 3835 0016 7F800020 		e_mcrf %cr7,%cr0
 3836 001a 7CE00026 		mfcr %r7
 3837 001e 74E7E007 		e_rlwinm %r7,%r7,28,0xf0000000
 3838 0022 7CE80120 		mtcrf 128,%r7
 3839 0026 7A020008 		e_bne %cr0,.L135
 3840              		.loc 1 1507 0
 3841 002a 78000001 		e_bl irqSysHalt
 3842              	.L135:
 3843              		.loc 1 1509 0
 3844 002e 70FEE40A 		e_lis %r7,0xf40a
 3845 0032 6517     		se_bseti %r7,17
 3846 0034 4BE6     		se_li %r6,62
 3847 0036 34C7001C 		e_stb %r6,28(%r7)
 3848              		.loc 1 1510 0
 3849 003a 70E0E000 		e_lis %r7,channels@ha
 3850 003e 1CE70000 		e_la %r7,channels@l(%r7)
 3851 0042 50E700F8 		e_lwz %r7,248(%r7)
 3852 0046 C277     		se_lwz %r7,8(%r7)
 3853 0048 70C0E000 		e_lis %r6,channels@ha
 3854 004c 1CC60000 		e_la %r6,channels@l(%r6)
 3855 0050 50C600F8 		e_lwz %r6,248(%r6)
 3856 0054 C466     		se_lwz %r6,16(%r6)
 3857 0056 4BE3     		se_li %r3,62
 3858 0058 0164     		se_mr %r4,%r6
 3859 005a 00B7     		se_mtctr %r7
 3860 005c 0007     		se_bctrl
 3861              		.loc 1 1513 0
 3862 005e C301     		se_lwz %r0,12(%r1)
 3863 0060 0090     		se_mtlr %r0
 3864 0062 2071     		se_addi %r1,8
 3865              	.LCFI127:
 3866              		.cfi_def_cfa_offset 0
 3867 0064 0004     		se_blr
 3868              		.cfi_endproc
 3869              	.LFE66:
 3870              		.size	vector115, .-vector115
 3871              		.section	.text.vector116,"axv",@progbits
 3872              		.align 1
GAS LISTING C:\Users\bayra\AppData\Local\Temp\ccMpacND.s 			page 69


 3873              		.p2align 4,,15
 3874              		.globl vector116
 3875              		.type	vector116, @function
 3876              	vector116:
 3877              	.LFB67:
 3878              		.loc 1 1523 0
 3879              		.cfi_startproc
 3880 0000 182106F8 		e_stwu %r1,-8(%r1)
 3881              	.LCFI128:
 3882              		.cfi_def_cfa_offset 8
 3883 0004 0080     		se_mflr %r0
 3884 0006 D301     		se_stw %r0,12(%r1)
 3885              		.cfi_offset 65, 4
 3886              		.loc 1 1527 0
 3887 0008 70E0E000 		e_lis %r7,channels@ha
 3888 000c 1CE70000 		e_la %r7,channels@l(%r7)
 3889 0010 50E700FC 		e_lwz %r7,252(%r7)
 3890 0014 2A07     		se_cmpi %r7,0
 3891 0016 7F800020 		e_mcrf %cr7,%cr0
 3892 001a 7CE00026 		mfcr %r7
 3893 001e 74E7E007 		e_rlwinm %r7,%r7,28,0xf0000000
 3894 0022 7CE80120 		mtcrf 128,%r7
 3895 0026 7A020008 		e_bne %cr0,.L137
 3896              		.loc 1 1528 0
 3897 002a 78000001 		e_bl irqSysHalt
 3898              	.L137:
 3899              		.loc 1 1530 0
 3900 002e 70FEE40A 		e_lis %r7,0xf40a
 3901 0032 6517     		se_bseti %r7,17
 3902 0034 4BF6     		se_li %r6,63
 3903 0036 34C7001C 		e_stb %r6,28(%r7)
 3904              		.loc 1 1531 0
 3905 003a 70E0E000 		e_lis %r7,channels@ha
 3906 003e 1CE70000 		e_la %r7,channels@l(%r7)
 3907 0042 50E700FC 		e_lwz %r7,252(%r7)
 3908 0046 C277     		se_lwz %r7,8(%r7)
 3909 0048 70C0E000 		e_lis %r6,channels@ha
 3910 004c 1CC60000 		e_la %r6,channels@l(%r6)
 3911 0050 50C600FC 		e_lwz %r6,252(%r6)
 3912 0054 C466     		se_lwz %r6,16(%r6)
 3913 0056 4BF3     		se_li %r3,63
 3914 0058 0164     		se_mr %r4,%r6
 3915 005a 00B7     		se_mtctr %r7
 3916 005c 0007     		se_bctrl
 3917              		.loc 1 1534 0
 3918 005e C301     		se_lwz %r0,12(%r1)
 3919 0060 0090     		se_mtlr %r0
 3920 0062 2071     		se_addi %r1,8
 3921              	.LCFI129:
 3922              		.cfi_def_cfa_offset 0
 3923 0064 0004     		se_blr
 3924              		.cfi_endproc
 3925              	.LFE67:
 3926              		.size	vector116, .-vector116
 3927              		.section	.text.edmaInit,"axv",@progbits
 3928              		.align 1
 3929              		.p2align 4,,15
GAS LISTING C:\Users\bayra\AppData\Local\Temp\ccMpacND.s 			page 70


 3930              		.globl edmaInit
 3931              		.type	edmaInit, @function
 3932              	edmaInit:
 3933              	.LFB68:
 3934              		.loc 1 2223 0
 3935              		.cfi_startproc
 3936 0000 182106E8 		e_stwu %r1,-24(%r1)
 3937              	.LCFI130:
 3938              		.cfi_def_cfa_offset 24
 3939 0004 0080     		se_mflr %r0
 3940 0006 D701     		se_stw %r0,28(%r1)
 3941              		.cfi_offset 65, 4
 3942              		.loc 1 2226 0
 3943 0008 70FEE40A 		e_lis %r7,0xf40a
 3944 000c 6517     		se_bseti %r7,17
 3945 000e 70DC0488 		e_li %r6,58504
 3946 0012 D067     		se_stw %r6,0(%r7)
 3947              		.loc 1 2227 0
 3948 0014 70FEE40A 		e_lis %r7,0xf40a
 3949 0018 6517     		se_bseti %r7,17
 3950 001a 4806     		se_li %r6,0
 3951 001c D367     		se_stw %r6,12(%r7)
 3952              		.loc 1 2228 0
 3953 001e 70FEE40A 		e_lis %r7,0xf40a
 3954 0022 6517     		se_bseti %r7,17
 3955 0024 4806     		se_li %r6,0
 3956 0026 D567     		se_stw %r6,20(%r7)
 3957              		.loc 1 2229 0
 3958 0028 70FEE40A 		e_lis %r7,0xf40a
 3959 002c 6517     		se_bseti %r7,17
 3960 002e 2C06     		se_bmaski %r6,0
 3961 0030 D967     		se_stw %r6,36(%r7)
 3962              		.loc 1 2230 0
 3963 0032 70FEE40A 		e_lis %r7,0xf40a
 3964 0036 6517     		se_bseti %r7,17
 3965 0038 2C06     		se_bmaski %r6,0
 3966 003a DB67     		se_stw %r6,44(%r7)
 3967              		.loc 1 2232 0
 3968 003c 70FEE40A 		e_lis %r7,0xf40a
 3969 0040 6517     		se_bseti %r7,17
 3970 0042 4806     		se_li %r6,0
 3971 0044 D267     		se_stw %r6,8(%r7)
 3972              		.loc 1 2233 0
 3973 0046 70FEE40A 		e_lis %r7,0xf40a
 3974 004a 6517     		se_bseti %r7,17
 3975 004c 4806     		se_li %r6,0
 3976 004e D467     		se_stw %r6,16(%r7)
 3977              		.loc 1 2234 0
 3978 0050 70FEE40A 		e_lis %r7,0xf40a
 3979 0054 6517     		se_bseti %r7,17
 3980 0056 2C06     		se_bmaski %r6,0
 3981 0058 D867     		se_stw %r6,32(%r7)
 3982              		.loc 1 2235 0
 3983 005a 70FEE40A 		e_lis %r7,0xf40a
 3984 005e 6517     		se_bseti %r7,17
 3985 0060 2C06     		se_bmaski %r6,0
 3986 0062 DA67     		se_stw %r6,40(%r7)
GAS LISTING C:\Users\bayra\AppData\Local\Temp\ccMpacND.s 			page 71


 3987              		.loc 1 2247 0
 3988 0064 4807     		se_li %r7,0
 3989 0066 9871     		se_stb %r7,8(%r1)
 3990 0068 780000AC 		e_b .L139
 3991              	.L140:
 3992              		.loc 1 2248 0 discriminator 3
 3993 006c 70FEE40A 		e_lis %r7,0xf40a
 3994 0070 18E5D140 		e_ori %r5,%r7,16384
 3995 0074 8871     		se_lbz %r7,8(%r1)
 3996 0076 00C7     		se_extzb %r7
 3997 0078 8861     		se_lbz %r6,8(%r1)
 3998 007a 00C6     		se_extzb %r6
 3999 007c 7080E000 		e_lis %r4,dma1_g0@ha
 4000 0080 1C840000 		e_la %r4,dma1_g0@l(%r4)
 4001 0084 7CC430AE 		lbzx %r6,%r4,%r6
 4002 0088 00C6     		se_extzb %r6
 4003 008a 7CE53A14 		add %r7,%r5,%r7
 4004 008e 34C70100 		e_stb %r6,256(%r7)
 4005              		.loc 1 2250 0 discriminator 3
 4006 0092 70FEE40A 		e_lis %r7,0xf40a
 4007 0096 18E5D140 		e_ori %r5,%r7,16384
 4008 009a 8871     		se_lbz %r7,8(%r1)
 4009 009c 00C7     		se_extzb %r7
 4010 009e 20F7     		se_addi %r7,16
 4011 00a0 8861     		se_lbz %r6,8(%r1)
 4012 00a2 00C6     		se_extzb %r6
 4013 00a4 7080E000 		e_lis %r4,dma1_g1@ha
 4014 00a8 1C840000 		e_la %r4,dma1_g1@l(%r4)
 4015 00ac 7CC430AE 		lbzx %r6,%r4,%r6
 4016 00b0 00C6     		se_extzb %r6
 4017 00b2 7CE53A14 		add %r7,%r5,%r7
 4018 00b6 34C70100 		e_stb %r6,256(%r7)
 4019              		.loc 1 2253 0 discriminator 3
 4020 00ba 70FEE40A 		e_lis %r7,0xf40a
 4021 00be 18E5D140 		e_ori %r5,%r7,16384
 4022 00c2 8871     		se_lbz %r7,8(%r1)
 4023 00c4 00C7     		se_extzb %r7
 4024 00c6 21F7     		se_addi %r7,32
 4025 00c8 8861     		se_lbz %r6,8(%r1)
 4026 00ca 00C6     		se_extzb %r6
 4027 00cc 7080E000 		e_lis %r4,dma1_g2@ha
 4028 00d0 1C840000 		e_la %r4,dma1_g2@l(%r4)
 4029 00d4 7CC430AE 		lbzx %r6,%r4,%r6
 4030 00d8 00C6     		se_extzb %r6
 4031 00da 7CE53A14 		add %r7,%r5,%r7
 4032 00de 34C70100 		e_stb %r6,256(%r7)
 4033              		.loc 1 2254 0 discriminator 3
 4034 00e2 70FEE40A 		e_lis %r7,0xf40a
 4035 00e6 18E5D140 		e_ori %r5,%r7,16384
 4036 00ea 8871     		se_lbz %r7,8(%r1)
 4037 00ec 00C7     		se_extzb %r7
 4038 00ee 18E78030 		e_addi %r7,%r7,48
 4039 00f2 8861     		se_lbz %r6,8(%r1)
 4040 00f4 00C6     		se_extzb %r6
 4041 00f6 7080E000 		e_lis %r4,dma1_g3@ha
 4042 00fa 1C840000 		e_la %r4,dma1_g3@l(%r4)
 4043 00fe 7CC430AE 		lbzx %r6,%r4,%r6
GAS LISTING C:\Users\bayra\AppData\Local\Temp\ccMpacND.s 			page 72


 4044 0102 00C6     		se_extzb %r6
 4045 0104 7CE53A14 		add %r7,%r5,%r7
 4046 0108 34C70100 		e_stb %r6,256(%r7)
 4047              		.loc 1 2247 0 discriminator 3
 4048 010c 8871     		se_lbz %r7,8(%r1)
 4049 010e 00C7     		se_extzb %r7
 4050 0110 2007     		se_addi %r7,1
 4051 0112 9871     		se_stb %r7,8(%r1)
 4052              	.L139:
 4053              		.loc 1 2247 0 is_stmt 0 discriminator 1
 4054 0114 8871     		se_lbz %r7,8(%r1)
 4055 0116 00C7     		se_extzb %r7
 4056 0118 22E7     		se_cmpli %r7,15
 4057 011a 7F800020 		e_mcrf %cr7,%cr0
 4058 011e 7CE00026 		mfcr %r7
 4059 0122 74E7E007 		e_rlwinm %r7,%r7,28,0xf0000000
 4060 0126 7CE80120 		mtcrf 128,%r7
 4061 012a 7A01FF42 		e_ble %cr0,.L140
 4062              		.loc 1 2265 0 is_stmt 1
 4063 012e 70FEE404 		e_lis %r7,0xf404
 4064 0132 70E8C0C8 		e_or2i %r7,16584
 4065 0136 48A6     		se_li %r6,10
 4066 0138 B067     		se_sth %r6,0(%r7)
 4067              		.loc 1 2268 0
 4068 013a 4A43     		se_li %r3,36
 4069 013c 4914     		se_li %r4,17
 4070 013e 78000001 		e_bl SPCSetPeripheralClockMode
 4071              		.loc 1 2273 0
 4072 0142 706000A4 		e_li %r3,164
 4073 0146 4914     		se_li %r4,17
 4074 0148 78000001 		e_bl SPCSetPeripheralClockMode
 4075              		.loc 1 2282 0
 4076 014c C701     		se_lwz %r0,28(%r1)
 4077 014e 0090     		se_mtlr %r0
 4078 0150 2171     		se_addi %r1,24
 4079              	.LCFI131:
 4080              		.cfi_def_cfa_offset 0
 4081 0152 0004     		se_blr
 4082              		.cfi_endproc
 4083              	.LFE68:
 4084              		.size	edmaInit, .-edmaInit
 4085              		.section	.text.edmaSetMuxSlot,"axv",@progbits
 4086              		.align 1
 4087              		.p2align 4,,15
 4088              		.type	edmaSetMuxSlot, @function
 4089              	edmaSetMuxSlot:
 4090              	.LFB69:
 4091              		.loc 1 2291 0
 4092              		.cfi_startproc
 4093 0000 182106E0 		e_stwu %r1,-32(%r1)
 4094              	.LCFI132:
 4095              		.cfi_def_cfa_offset 32
 4096 0004 D631     		se_stw %r3,24(%r1)
 4097              		.loc 1 2293 0
 4098 0006 C671     		se_lwz %r7,24(%r1)
 4099 0008 C077     		se_lwz %r7,0(%r7)
 4100 000a 00D7     		se_extsb %r7
GAS LISTING C:\Users\bayra\AppData\Local\Temp\ccMpacND.s 			page 73


 4101 000c 18E7C040 		e_andi %r7,%r7,64
 4102 0010 00D7     		se_extsb %r7
 4103 0012 70FFD7FF 		e_or2is %r7,0xffff
 4104 0016 70FFC780 		e_or2i %r7,65408
 4105 001a 7CE60774 		extsb %r6,%r7
 4106 001e C671     		se_lwz %r7,24(%r1)
 4107 0020 8477     		se_lbz %r7,4(%r7)
 4108 0022 00C7     		se_extzb %r7
 4109 0024 00D7     		se_extsb %r7
 4110 0026 18E7C03F 		e_andi %r7,%r7,63
 4111 002a 00D7     		se_extsb %r7
 4112 002c 4467     		se_or %r7,%r6
 4113 002e 00D7     		se_extsb %r7
 4114 0030 9871     		se_stb %r7,8(%r1)
 4115              		.loc 1 2295 0
 4116 0032 C671     		se_lwz %r7,24(%r1)
 4117 0034 C077     		se_lwz %r7,0(%r7)
 4118 0036 18E7C03F 		e_andi %r7,%r7,63
 4119 003a D371     		se_stw %r7,12(%r1)
 4120              		.loc 1 2297 0
 4121 003c C671     		se_lwz %r7,24(%r1)
 4122 003e 8577     		se_lbz %r7,5(%r7)
 4123 0040 00C7     		se_extzb %r7
 4124 0042 2A07     		se_cmpi %r7,0
 4125 0044 7F800020 		e_mcrf %cr7,%cr0
 4126 0048 7CE00026 		mfcr %r7
 4127 004c 74E7E007 		e_rlwinm %r7,%r7,28,0xf0000000
 4128 0050 7CE80120 		mtcrf 128,%r7
 4129 0054 7A020018 		e_bne %cr0,.L142
 4130              		.loc 1 2299 0
 4131 0058 70FEE7F6 		e_lis %r7,0xf7f6
 4132 005c 18E6D1C0 		e_ori %r6,%r7,49152
 4133 0060 C371     		se_lwz %r7,12(%r1)
 4134 0062 8851     		se_lbz %r5,8(%r1)
 4135 0064 7CA639AE 		stbx %r5,%r6,%r7
 4136 0068 780000A8 		e_b .L141
 4137              	.L142:
 4138              		.loc 1 2300 0
 4139 006c C671     		se_lwz %r7,24(%r1)
 4140 006e 8577     		se_lbz %r7,5(%r7)
 4141 0070 00C7     		se_extzb %r7
 4142 0072 2207     		se_cmpli %r7,1
 4143 0074 7F800020 		e_mcrf %cr7,%cr0
 4144 0078 7CE00026 		mfcr %r7
 4145 007c 74E7E007 		e_rlwinm %r7,%r7,28,0xf0000000
 4146 0080 7CE80120 		mtcrf 128,%r7
 4147 0084 7A020020 		e_bne %cr0,.L144
 4148              		.loc 1 2301 0
 4149 0088 C371     		se_lwz %r7,12(%r1)
 4150 008a 18E784F0 		e_addi %r7,%r7,-16
 4151 008e D371     		se_stw %r7,12(%r1)
 4152              		.loc 1 2303 0
 4153 0090 70FFE3F6 		e_lis %r7,0xfbf6
 4154 0094 18E6D1C0 		e_ori %r6,%r7,49152
 4155 0098 C371     		se_lwz %r7,12(%r1)
 4156 009a 8851     		se_lbz %r5,8(%r1)
 4157 009c 7CA639AE 		stbx %r5,%r6,%r7
GAS LISTING C:\Users\bayra\AppData\Local\Temp\ccMpacND.s 			page 74


 4158 00a0 78000070 		e_b .L141
 4159              	.L144:
 4160              		.loc 1 2305 0
 4161 00a4 C671     		se_lwz %r7,24(%r1)
 4162 00a6 8577     		se_lbz %r7,5(%r7)
 4163 00a8 00C7     		se_extzb %r7
 4164 00aa 2217     		se_cmpli %r7,2
 4165 00ac 7F800020 		e_mcrf %cr7,%cr0
 4166 00b0 7CE00026 		mfcr %r7
 4167 00b4 74E7E007 		e_rlwinm %r7,%r7,28,0xf0000000
 4168 00b8 7CE80120 		mtcrf 128,%r7
 4169 00bc 7A020020 		e_bne %cr0,.L145
 4170              		.loc 1 2306 0
 4171 00c0 C371     		se_lwz %r7,12(%r1)
 4172 00c2 18E784E0 		e_addi %r7,%r7,-32
 4173 00c6 D371     		se_stw %r7,12(%r1)
 4174              		.loc 1 2308 0
 4175 00c8 70FEE7F6 		e_lis %r7,0xf7f6
 4176 00cc 18E6D1C2 		e_ori %r6,%r7,49664
 4177 00d0 C371     		se_lwz %r7,12(%r1)
 4178 00d2 8851     		se_lbz %r5,8(%r1)
 4179 00d4 7CA639AE 		stbx %r5,%r6,%r7
 4180 00d8 78000038 		e_b .L141
 4181              	.L145:
 4182              		.loc 1 2311 0
 4183 00dc C671     		se_lwz %r7,24(%r1)
 4184 00de 8577     		se_lbz %r7,5(%r7)
 4185 00e0 00C7     		se_extzb %r7
 4186 00e2 2227     		se_cmpli %r7,3
 4187 00e4 7F800020 		e_mcrf %cr7,%cr0
 4188 00e8 7CE00026 		mfcr %r7
 4189 00ec 74E7E007 		e_rlwinm %r7,%r7,28,0xf0000000
 4190 00f0 7CE80120 		mtcrf 128,%r7
 4191 00f4 7A02001C 		e_bne %cr0,.L141
 4192              		.loc 1 2312 0
 4193 00f8 C371     		se_lwz %r7,12(%r1)
 4194 00fa 18E784D0 		e_addi %r7,%r7,-48
 4195 00fe D371     		se_stw %r7,12(%r1)
 4196              		.loc 1 2315 0
 4197 0100 70FFE3F6 		e_lis %r7,0xfbf6
 4198 0104 18E6D1C2 		e_ori %r6,%r7,49664
 4199 0108 C371     		se_lwz %r7,12(%r1)
 4200 010a 8851     		se_lbz %r5,8(%r1)
 4201 010c 7CA639AE 		stbx %r5,%r6,%r7
 4202              	.L141:
 4203              		.loc 1 2339 0
 4204 0110 21F1     		se_addi %r1,32
 4205              	.LCFI133:
 4206              		.cfi_def_cfa_offset 0
 4207 0112 0004     		se_blr
 4208              		.cfi_endproc
 4209              	.LFE69:
 4210              		.size	edmaSetMuxSlot, .-edmaSetMuxSlot
 4211              		.section	.text.edmaChannelAllocate,"axv",@progbits
 4212              		.align 1
 4213              		.p2align 4,,15
 4214              		.globl edmaChannelAllocate
GAS LISTING C:\Users\bayra\AppData\Local\Temp\ccMpacND.s 			page 75


 4215              		.type	edmaChannelAllocate, @function
 4216              	edmaChannelAllocate:
 4217              	.LFB70:
 4218              		.loc 1 2350 0
 4219              		.cfi_startproc
 4220 0000 182106E0 		e_stwu %r1,-32(%r1)
 4221              	.LCFI134:
 4222              		.cfi_def_cfa_offset 32
 4223 0004 0080     		se_mflr %r0
 4224 0006 D901     		se_stw %r0,36(%r1)
 4225              		.cfi_offset 65, 4
 4226 0008 D631     		se_stw %r3,24(%r1)
 4227              		.loc 1 2352 0
 4228 000a C671     		se_lwz %r7,24(%r1)
 4229 000c C077     		se_lwz %r7,0(%r7)
 4230 000e 00C7     		se_extzb %r7
 4231 0010 18E7C03F 		e_andi %r7,%r7,63
 4232 0014 9871     		se_stb %r7,8(%r1)
 4233              		.loc 1 2355 0
 4234 0016 8871     		se_lbz %r7,8(%r1)
 4235 0018 00C7     		se_extzb %r7
 4236 001a 70C0E000 		e_lis %r6,channels@ha
 4237 001e 1CC60000 		e_la %r6,channels@l(%r6)
 4238 0022 6C27     		se_slwi %r7, 2
 4239 0024 7CE63A14 		add %r7,%r6,%r7
 4240 0028 C077     		se_lwz %r7,0(%r7)
 4241 002a 2A07     		se_cmpi %r7,0
 4242 002c 7F800020 		e_mcrf %cr7,%cr0
 4243 0030 7CE00026 		mfcr %r7
 4244 0034 74E7E007 		e_rlwinm %r7,%r7,28,0xf0000000
 4245 0038 7CE80120 		mtcrf 128,%r7
 4246 003c 7A12000A 		e_beq %cr0,.L147
 4247              		.loc 1 2356 0
 4248 0040 2C07     		se_bmaski %r7,0
 4249 0042 7800006E 		e_b .L148
 4250              	.L147:
 4251              		.loc 1 2359 0
 4252 0046 C631     		se_lwz %r3,24(%r1)
 4253 0048 78000001 		e_bl edmaSetMuxSlot
 4254              		.loc 1 2362 0
 4255 004c 8871     		se_lbz %r7,8(%r1)
 4256 004e 00C7     		se_extzb %r7
 4257 0050 70C0E000 		e_lis %r6,channels@ha
 4258 0054 1CC60000 		e_la %r6,channels@l(%r6)
 4259 0058 6C27     		se_slwi %r7, 2
 4260 005a 7CE63A14 		add %r7,%r6,%r7
 4261 005e C661     		se_lwz %r6,24(%r1)
 4262 0060 D067     		se_stw %r6,0(%r7)
 4263              		.loc 1 2366 0
 4264 0062 C671     		se_lwz %r7,24(%r1)
 4265 0064 C377     		se_lwz %r7,12(%r7)
 4266 0066 2A07     		se_cmpi %r7,0
 4267 0068 7F800020 		e_mcrf %cr7,%cr0
 4268 006c 7CE00026 		mfcr %r7
 4269 0070 74E7E007 		e_rlwinm %r7,%r7,28,0xf0000000
 4270 0074 7CE80120 		mtcrf 128,%r7
 4271 0078 7A120010 		e_beq %cr0,.L149
GAS LISTING C:\Users\bayra\AppData\Local\Temp\ccMpacND.s 			page 76


 4272              		.loc 1 2368 0
 4273 007c 70FEE40A 		e_lis %r7,0xf40a
 4274 0080 6517     		se_bseti %r7,17
 4275 0082 8861     		se_lbz %r6,8(%r1)
 4276 0084 34C7001A 		e_stb %r6,26(%r7)
 4277              	.L149:
 4278              		.loc 1 2383 0
 4279 0088 8871     		se_lbz %r7,8(%r1)
 4280 008a 00C7     		se_extzb %r7
 4281 008c 00E7     		se_extzh %r7
 4282 008e 18E78035 		e_addi %r7,%r7,53
 4283 0092 00E7     		se_extzh %r7
 4284 0094 0176     		se_mr %r6,%r7
 4285 0096 70EFE202 		e_lis %r7,0x7a02
 4286 009a 70E4C030 		e_or2i %r7,8240
 4287 009e 0467     		se_add %r7,%r6
 4288 00a0 6C17     		se_slwi %r7, 1
 4289 00a2 0176     		se_mr %r6,%r7
 4290 00a4 C671     		se_lwz %r7,24(%r1)
 4291 00a6 A377     		se_lhz %r7,6(%r7)
 4292 00a8 00E7     		se_extzh %r7
 4293 00aa B076     		se_sth %r7,0(%r6)
 4294              		.loc 1 2386 0
 4295 00ac 8871     		se_lbz %r7,8(%r1)
 4296 00ae 00C7     		se_extzb %r7
 4297              	.L148:
 4298              		.loc 1 2387 0
 4299 00b0 0173     		se_mr %r3,%r7
 4300 00b2 C901     		se_lwz %r0,36(%r1)
 4301 00b4 0090     		se_mtlr %r0
 4302 00b6 21F1     		se_addi %r1,32
 4303              	.LCFI135:
 4304              		.cfi_def_cfa_offset 0
 4305 00b8 0004     		se_blr
 4306              		.cfi_endproc
 4307              	.LFE70:
 4308              		.size	edmaChannelAllocate, .-edmaChannelAllocate
 4309              		.section	.text.edmaResetMuxSlot,"axv",@progbits
 4310              		.align 1
 4311              		.p2align 4,,15
 4312              		.type	edmaResetMuxSlot, @function
 4313              	edmaResetMuxSlot:
 4314              	.LFB71:
 4315              		.loc 1 2396 0
 4316              		.cfi_startproc
 4317 0000 182106E0 		e_stwu %r1,-32(%r1)
 4318              	.LCFI136:
 4319              		.cfi_def_cfa_offset 32
 4320 0004 D631     		se_stw %r3,24(%r1)
 4321              		.loc 1 2398 0
 4322 0006 C671     		se_lwz %r7,24(%r1)
 4323 0008 C077     		se_lwz %r7,0(%r7)
 4324 000a 18E7C03F 		e_andi %r7,%r7,63
 4325 000e D271     		se_stw %r7,8(%r1)
 4326              		.loc 1 2400 0
 4327 0010 C671     		se_lwz %r7,24(%r1)
 4328 0012 8577     		se_lbz %r7,5(%r7)
GAS LISTING C:\Users\bayra\AppData\Local\Temp\ccMpacND.s 			page 77


 4329 0014 00C7     		se_extzb %r7
 4330 0016 2A07     		se_cmpi %r7,0
 4331 0018 7F800020 		e_mcrf %cr7,%cr0
 4332 001c 7CE00026 		mfcr %r7
 4333 0020 74E7E007 		e_rlwinm %r7,%r7,28,0xf0000000
 4334 0024 7CE80120 		mtcrf 128,%r7
 4335 0028 7A020018 		e_bne %cr0,.L151
 4336              		.loc 1 2402 0
 4337 002c 70FEE7F6 		e_lis %r7,0xf7f6
 4338 0030 18E6D1C0 		e_ori %r6,%r7,49152
 4339 0034 C271     		se_lwz %r7,8(%r1)
 4340 0036 4805     		se_li %r5,0
 4341 0038 7CA639AE 		stbx %r5,%r6,%r7
 4342 003c 780000A8 		e_b .L150
 4343              	.L151:
 4344              		.loc 1 2403 0
 4345 0040 C671     		se_lwz %r7,24(%r1)
 4346 0042 8577     		se_lbz %r7,5(%r7)
 4347 0044 00C7     		se_extzb %r7
 4348 0046 2207     		se_cmpli %r7,1
 4349 0048 7F800020 		e_mcrf %cr7,%cr0
 4350 004c 7CE00026 		mfcr %r7
 4351 0050 74E7E007 		e_rlwinm %r7,%r7,28,0xf0000000
 4352 0054 7CE80120 		mtcrf 128,%r7
 4353 0058 7A020020 		e_bne %cr0,.L153
 4354              		.loc 1 2404 0
 4355 005c C271     		se_lwz %r7,8(%r1)
 4356 005e 18E784F0 		e_addi %r7,%r7,-16
 4357 0062 D271     		se_stw %r7,8(%r1)
 4358              		.loc 1 2406 0
 4359 0064 70FFE3F6 		e_lis %r7,0xfbf6
 4360 0068 18E6D1C0 		e_ori %r6,%r7,49152
 4361 006c C271     		se_lwz %r7,8(%r1)
 4362 006e 4805     		se_li %r5,0
 4363 0070 7CA639AE 		stbx %r5,%r6,%r7
 4364 0074 78000070 		e_b .L150
 4365              	.L153:
 4366              		.loc 1 2408 0
 4367 0078 C671     		se_lwz %r7,24(%r1)
 4368 007a 8577     		se_lbz %r7,5(%r7)
 4369 007c 00C7     		se_extzb %r7
 4370 007e 2217     		se_cmpli %r7,2
 4371 0080 7F800020 		e_mcrf %cr7,%cr0
 4372 0084 7CE00026 		mfcr %r7
 4373 0088 74E7E007 		e_rlwinm %r7,%r7,28,0xf0000000
 4374 008c 7CE80120 		mtcrf 128,%r7
 4375 0090 7A020020 		e_bne %cr0,.L154
 4376              		.loc 1 2409 0
 4377 0094 C271     		se_lwz %r7,8(%r1)
 4378 0096 18E784E0 		e_addi %r7,%r7,-32
 4379 009a D271     		se_stw %r7,8(%r1)
 4380              		.loc 1 2411 0
 4381 009c 70FEE7F6 		e_lis %r7,0xf7f6
 4382 00a0 18E6D1C2 		e_ori %r6,%r7,49664
 4383 00a4 C271     		se_lwz %r7,8(%r1)
 4384 00a6 4805     		se_li %r5,0
 4385 00a8 7CA639AE 		stbx %r5,%r6,%r7
GAS LISTING C:\Users\bayra\AppData\Local\Temp\ccMpacND.s 			page 78


 4386 00ac 78000038 		e_b .L150
 4387              	.L154:
 4388              		.loc 1 2414 0
 4389 00b0 C671     		se_lwz %r7,24(%r1)
 4390 00b2 8577     		se_lbz %r7,5(%r7)
 4391 00b4 00C7     		se_extzb %r7
 4392 00b6 2227     		se_cmpli %r7,3
 4393 00b8 7F800020 		e_mcrf %cr7,%cr0
 4394 00bc 7CE00026 		mfcr %r7
 4395 00c0 74E7E007 		e_rlwinm %r7,%r7,28,0xf0000000
 4396 00c4 7CE80120 		mtcrf 128,%r7
 4397 00c8 7A02001C 		e_bne %cr0,.L150
 4398              		.loc 1 2415 0
 4399 00cc C271     		se_lwz %r7,8(%r1)
 4400 00ce 18E784D0 		e_addi %r7,%r7,-48
 4401 00d2 D271     		se_stw %r7,8(%r1)
 4402              		.loc 1 2418 0
 4403 00d4 70FFE3F6 		e_lis %r7,0xfbf6
 4404 00d8 18E6D1C2 		e_ori %r6,%r7,49664
 4405 00dc C271     		se_lwz %r7,8(%r1)
 4406 00de 4805     		se_li %r5,0
 4407 00e0 7CA639AE 		stbx %r5,%r6,%r7
 4408              	.L150:
 4409              		.loc 1 2442 0
 4410 00e4 21F1     		se_addi %r1,32
 4411              	.LCFI137:
 4412              		.cfi_def_cfa_offset 0
 4413 00e6 0004     		se_blr
 4414              		.cfi_endproc
 4415              	.LFE71:
 4416              		.size	edmaResetMuxSlot, .-edmaResetMuxSlot
 4417              		.section	.text.edmaChannelRelease,"axv",@progbits
 4418              		.align 1
 4419              		.p2align 4,,15
 4420              		.globl edmaChannelRelease
 4421              		.type	edmaChannelRelease, @function
 4422              	edmaChannelRelease:
 4423              	.LFB72:
 4424              		.loc 1 2452 0
 4425              		.cfi_startproc
 4426 0000 182106E0 		e_stwu %r1,-32(%r1)
 4427              	.LCFI138:
 4428              		.cfi_def_cfa_offset 32
 4429 0004 0080     		se_mflr %r0
 4430 0006 D901     		se_stw %r0,36(%r1)
 4431              		.cfi_offset 65, 4
 4432 0008 D631     		se_stw %r3,24(%r1)
 4433              		.loc 1 2454 0
 4434 000a C671     		se_lwz %r7,24(%r1)
 4435 000c C077     		se_lwz %r7,0(%r7)
 4436 000e 00C7     		se_extzb %r7
 4437 0010 18E7C03F 		e_andi %r7,%r7,63
 4438 0014 9871     		se_stb %r7,8(%r1)
 4439              		.loc 1 2457 0
 4440 0016 70FEE40A 		e_lis %r7,0xf40a
 4441 001a 6517     		se_bseti %r7,17
 4442 001c 8861     		se_lbz %r6,8(%r1)
GAS LISTING C:\Users\bayra\AppData\Local\Temp\ccMpacND.s 			page 79


 4443 001e 34C70019 		e_stb %r6,25(%r7)
 4444 0022 70FEE40A 		e_lis %r7,0xf40a
 4445 0026 6517     		se_bseti %r7,17
 4446 0028 8861     		se_lbz %r6,8(%r1)
 4447 002a 34C7001F 		e_stb %r6,31(%r7)
 4448              		.loc 1 2459 0
 4449 002e C631     		se_lwz %r3,24(%r1)
 4450 0030 78000001 		e_bl edmaResetMuxSlot
 4451              		.loc 1 2463 0
 4452 0034 70FEE40A 		e_lis %r7,0xf40a
 4453 0038 6517     		se_bseti %r7,17
 4454 003a 8861     		se_lbz %r6,8(%r1)
 4455 003c 34C7001C 		e_stb %r6,28(%r7)
 4456              		.loc 1 2464 0
 4457 0040 70FEE40A 		e_lis %r7,0xf40a
 4458 0044 6517     		se_bseti %r7,17
 4459 0046 8861     		se_lbz %r6,8(%r1)
 4460 0048 34C7001B 		e_stb %r6,27(%r7)
 4461              		.loc 1 2465 0
 4462 004c 70FEE40A 		e_lis %r7,0xf40a
 4463 0050 6517     		se_bseti %r7,17
 4464 0052 8861     		se_lbz %r6,8(%r1)
 4465 0054 34C7001D 		e_stb %r6,29(%r7)
 4466              		.loc 1 2479 0
 4467 0058 8871     		se_lbz %r7,8(%r1)
 4468 005a 00C7     		se_extzb %r7
 4469 005c 70C0E000 		e_lis %r6,channels@ha
 4470 0060 1CC60000 		e_la %r6,channels@l(%r6)
 4471 0064 6C27     		se_slwi %r7, 2
 4472 0066 7CE63A14 		add %r7,%r6,%r7
 4473 006a 4806     		se_li %r6,0
 4474 006c D067     		se_stw %r6,0(%r7)
 4475              		.loc 1 2480 0
 4476 006e C901     		se_lwz %r0,36(%r1)
 4477 0070 0090     		se_mtlr %r0
 4478 0072 21F1     		se_addi %r1,32
 4479              	.LCFI139:
 4480              		.cfi_def_cfa_offset 0
 4481 0074 0004     		se_blr
 4482              		.cfi_endproc
 4483              	.LFE72:
 4484              		.size	edmaChannelRelease, .-edmaChannelRelease
 4485              		.section	".text","axv"
 4486              	.Letext0:
 4487              		.file 2 "c:\\spc5studio-6.0\\eclipse\\plugins\\com.st.tools.spc5.tools.gnu.gcc.ppcvle.win32_4.9.4.
 4488              		.file 3 "c:\\spc5studio-6.0\\eclipse\\plugins\\com.st.tools.spc5.tools.gnu.gcc.ppcvle.win32_4.9.4.
 4489              		.file 4 "./components/spc58ecxx_platform_component_rla/lib/include/typedefs.h"
 4490              		.file 5 "./components/spc58ecxx_low_level_drivers_component_rla/lib/include/spc5_edma.h"