GAS LISTING C:\Users\bayra\AppData\Local\Temp\cc6ZYDYB.s 			page 1


   1              		.file	"can_lld.c"
   2              		.section	".text","axv"
   3              	.Ltext0:
   4              		.cfi_sections	.debug_frame
   5              		.section	.text.can_lld_getframesize,"axv",@progbits
   6              		.align 1
   7              		.p2align 4,,15
   8              		.globl can_lld_getframesize
   9              		.type	can_lld_getframesize, @function
  10              	can_lld_getframesize:
  11              	.LFB5:
  12              		.file 1 "./components/spc58ecxx_low_level_drivers_component_rla/lib/src/can_lld.c"
  13              		.loc 1 310 0
  14              		.cfi_startproc
  15              	.LVL0:
  16              		.loc 1 311 0
  17 0000 18E384F7 		e_addi %r7,%r3,-9
  18 0004 00C7     		se_extzb %r7
  19 0006 2257     		se_cmpli %r7,6
  20 0008 7A11001C 		e_bgt %cr0,.L3
  21 000c 6C27     		se_slwi %r7, 2
  22 000e 70C0E000 		e_lis %r6,.L4@ha
  23 0012 1CC60000 		e_la %r6,.L4@l(%r6)
  24 0016 7CE6382E 		lwzx %r7,%r6,%r7
  25 001a 7CC73214 		add %r6,%r7,%r6
  26 001e 00B6     		se_mtctr %r6
  27 0020 0006     		se_bctr
  28              		.section	.rodata.can_lld_getframesize,"a",@progbits
  29              		.align 2
  30              		.align 2
  31              	.L4:
  32 0000 00000000 		.long .L11-.L4
  33 0004 00000000 		.long .L5-.L4
  34 0008 00000000 		.long .L6-.L4
  35 000c 00000000 		.long .L7-.L4
  36 0010 00000000 		.long .L8-.L4
  37 0014 00000000 		.long .L9-.L4
  38 0018 00000000 		.long .L10-.L4
  39              		.section	.text.can_lld_getframesize
  40              	.L11:
  41              		.loc 1 313 0
  42 0022 48C3     		se_li %r3,12
  43              	.LVL1:
  44              	.L3:
  45              		.loc 1 329 0
  46 0024 0004     		se_blr
  47              	.LVL2:
  48              	.L5:
  49              		.loc 1 315 0
  50 0026 4903     		se_li %r3,16
  51              	.LVL3:
  52 0028 0004     		se_blr
  53              	.LVL4:
  54              	.L6:
  55              		.loc 1 317 0
  56 002a 4943     		se_li %r3,20
  57              	.LVL5:
GAS LISTING C:\Users\bayra\AppData\Local\Temp\cc6ZYDYB.s 			page 2


  58 002c 0004     		se_blr
  59              	.LVL6:
  60              	.L7:
  61              		.loc 1 319 0
  62 002e 4983     		se_li %r3,24
  63              	.LVL7:
  64 0030 0004     		se_blr
  65              	.LVL8:
  66              	.L8:
  67              		.loc 1 321 0
  68 0032 4A03     		se_li %r3,32
  69              	.LVL9:
  70 0034 0004     		se_blr
  71              	.LVL10:
  72              	.L9:
  73              		.loc 1 323 0
  74 0036 4B03     		se_li %r3,48
  75              	.LVL11:
  76 0038 0004     		se_blr
  77              	.LVL12:
  78              	.L10:
  79              		.loc 1 325 0
  80 003a 4C03     		se_li %r3,64
  81              	.LVL13:
  82 003c 0004     		se_blr
  83              		.cfi_endproc
  84              	.LFE5:
  85              		.size	can_lld_getframesize, .-can_lld_getframesize
  86              		.section	.text.can_lld_readBuffer,"axv",@progbits
  87              		.align 1
  88              		.p2align 4,,15
  89              		.globl can_lld_readBuffer
  90              		.type	can_lld_readBuffer, @function
  91              	can_lld_readBuffer:
  92              	.LFB3:
  93              		.loc 1 161 0
  94              		.cfi_startproc
  95              	.LVL14:
  96 0000 182106E8 		e_stwu %r1,-24(%r1)
  97              	.LCFI0:
  98              		.cfi_def_cfa_offset 24
  99 0004 0080     		se_mflr %r0
 100 0006 1B810908 		e_stmw %r28,8(%r1)
 101 000a D701     		se_stw %r0,28(%r1)
 102              		.cfi_offset 65, 4
 103              		.cfi_offset 28, -16
 104              		.cfi_offset 29, -12
 105              		.cfi_offset 30, -8
 106              		.cfi_offset 31, -4
 107              		.loc 1 161 0
 108 000c 013C     		se_mr %r28,%r3
 109 000e 016E     		se_mr %r30,%r6
 110              		.loc 1 169 0
 111 0010 7004A8FD 		e_cmpl16i %r4,253
 112 0014 7A12010A 		e_beq %cr0,.L15
 113 0018 7004A8FE 		e_cmpl16i %r4,254
 114 001c 7A1200F6 		e_beq %cr0,.L16
GAS LISTING C:\Users\bayra\AppData\Local\Temp\cc6ZYDYB.s 			page 3


 115 0020 7004A8FC 		e_cmpl16i %r4,252
 116 0024 7A12008E 		e_beq %cr0,.L30
 117 0028 4807     		se_li %r7,0
 118              	.LVL15:
 119 002a 488F     		se_li %r31,8
 120              		.loc 1 188 0
 121 002c C067     		se_lwz %r6,0(%r7)
 122              	.LVL16:
 123              		.loc 1 169 0
 124 002e 4845     		se_li %r5,4
 125              	.LVL17:
 126              		.loc 1 188 0
 127 0030 69E6     		se_srwi %r6,30
 128 0032 2206     		se_cmpli %r6,1
 129 0034 7A1200A8 		e_beq %cr0,.L31
 130              	.LVL18:
 131              	.L18:
 132              		.loc 1 193 0
 133 0038 4806     		se_li %r6,0
 134 003a 946E     		se_stb %r6,4(%r30)
 135              		.loc 1 194 0
 136 003c C077     		se_lwz %r7,0(%r7)
 137 003e 6927     		se_srwi %r7,18
 138 0040 D27E     		se_stw %r7,8(%r30)
 139              		.loc 1 199 0
 140 0042 C0D5     		se_lwz %r29,0(%r5)
 141              	.LVL19:
 142              		.loc 1 200 0
 143 0044 77A3873F 		e_rlwinm %r3,%r29,16,28,31
 144              	.LVL20:
 145 0048 78000001 		e_bl can_lld_getframesize
 146              	.LVL21:
 147              		.loc 1 204 0
 148 004c 77A55FFF 		e_rlwinm %r5,%r29,11,31,31
 149              		.loc 1 211 0
 150 0050 1866C003 		e_andi %r6,%r3,3
 151              		.loc 1 207 0
 152 0054 00CD     		se_extzb %r29
 153              	.LVL22:
 154              		.loc 1 201 0
 155 0056 9C3E     		se_stb %r3,12(%r30)
 156              		.loc 1 204 0
 157 0058 925E     		se_stb %r5,2(%r30)
 158              		.loc 1 207 0
 159 005a B0DE     		se_sth %r29,0(%r30)
 160              	.LVL23:
 161              		.loc 1 211 0
 162 005c 2A06     		se_cmpi %r6,0
 163 005e 7A0200A8 		e_bne %cr0,.L20
 164              	.LVL24:
 165              	.L33:
 166              		.loc 1 217 0
 167 0062 7C661471 		e_srwi. %r6,%r3,2
 168 0066 7A120040 		e_beq %cr0,.L13
 169              	.LVL25:
 170              	.L21:
 171 006a 18E684FF 		e_addi %r7,%r6,-1
GAS LISTING C:\Users\bayra\AppData\Local\Temp\cc6ZYDYB.s 			page 4


 172 006e 189F8004 		e_addi %r4,%r31,4
 173 0072 74E715BB 		e_rlwinm %r7,%r7,2,22,29
 174 0076 18DE8010 		e_addi %r6,%r30,16
 175              	.LVL26:
 176              		.loc 1 220 0
 177 007a C03C     		se_lwz %r3,0(%r28)
 178 007c 0474     		se_add %r4,%r7
 179 007e 78000010 		e_b .L25
 180              	.LVL27:
 181              	.L32:
 182              		.loc 1 221 0
 183 0082 D056     		se_stw %r5,0(%r6)
 184              		.loc 1 225 0
 185 0084 203F     		se_addi %r31,4
 186              	.LVL28:
 187 0086 2036     		se_addi %r6,4
 188              		.loc 1 217 0
 189 0088 0D4F     		se_cmpl %r31,%r4
 190 008a 7A12001C 		e_beq %cr0,.L13
 191              	.LVL29:
 192              	.L25:
 193              		.loc 1 220 0
 194 008e 8173     		se_lbz %r7,1(%r3)
 195              		.loc 1 218 0
 196 0090 C05F     		se_lwz %r5,0(%r31)
 197              	.LVL30:
 198              		.loc 1 220 0
 199 0092 2A07     		se_cmpi %r7,0
 200 0094 7A12FFEE 		e_beq %cr0,.L32
 201              		.loc 1 223 0
 202 0098 7CA0352C 		stwbrx %r5,0,%r6
 203              		.loc 1 225 0
 204 009c 203F     		se_addi %r31,4
 205              	.LVL31:
 206 009e 2036     		se_addi %r6,4
 207              		.loc 1 217 0
 208 00a0 0D4F     		se_cmpl %r31,%r4
 209 00a2 7A02FFEC 		e_bne %cr0,.L25
 210              	.LVL32:
 211              	.L13:
 212              		.loc 1 231 0
 213 00a6 C701     		se_lwz %r0,28(%r1)
 214 00a8 0090     		se_mtlr %r0
 215              		.cfi_remember_state
 216              		.cfi_restore 65
 217 00aa 1B810808 		e_lmw %r28,8(%r1)
 218              	.LVL33:
 219 00ae 2171     		se_addi %r1,24
 220              	.LCFI1:
 221              		.cfi_restore 31
 222              		.cfi_restore 30
 223              		.cfi_restore 29
 224              		.cfi_restore 28
 225              		.cfi_def_cfa_offset 0
 226 00b0 0004     		se_blr
 227              	.LVL34:
 228              	.L30:
GAS LISTING C:\Users\bayra\AppData\Local\Temp\cc6ZYDYB.s 			page 5


 229              	.LCFI2:
 230              		.cfi_restore_state
 231              		.loc 1 171 0
 232 00b2 C173     		se_lwz %r7,4(%r3)
 233 00b4 C243     		se_lwz %r4,8(%r3)
 234              	.LVL35:
 235 00b6 50C700AC 		e_lwz %r6,172(%r7)
 236              	.LVL36:
 237              	.L29:
 238              		.loc 1 180 0
 239 00ba 8C7C     		se_lbz %r7,12(%r28)
 240              		.loc 1 179 0
 241 00bc 74C6043B 		e_rlwinm %r6,%r6,0,16,29
 242              		.loc 1 180 0
 243 00c0 2077     		se_addi %r7,8
 244              		.loc 1 179 0
 245 00c2 0446     		se_add %r6,%r4
 246              		.loc 1 180 0
 247 00c4 0557     		se_mullw %r7,%r5
 248              		.loc 1 179 0
 249 00c6 7CE63A14 		add %r7,%r6,%r7
 250              	.LVL37:
 251              		.loc 1 188 0
 252 00ca C067     		se_lwz %r6,0(%r7)
 253 00cc 18A78004 		e_addi %r5,%r7,4
 254              	.LVL38:
 255 00d0 69E6     		se_srwi %r6,30
 256 00d2 1BE78008 		e_addi %r31,%r7,8
 257 00d6 2206     		se_cmpli %r6,1
 258 00d8 7A02FF60 		e_bne %cr0,.L18
 259              	.L31:
 260              		.loc 1 189 0
 261 00dc 946E     		se_stb %r6,4(%r30)
 262              		.loc 1 190 0
 263 00de C077     		se_lwz %r7,0(%r7)
 264 00e0 18E7C71F 		e_andi %r7,%r7,536870911
 265 00e4 D27E     		se_stw %r7,8(%r30)
 266              		.loc 1 199 0
 267 00e6 C0D5     		se_lwz %r29,0(%r5)
 268              	.LVL39:
 269              		.loc 1 200 0
 270 00e8 77A3873F 		e_rlwinm %r3,%r29,16,28,31
 271              	.LVL40:
 272 00ec 78000001 		e_bl can_lld_getframesize
 273              	.LVL41:
 274              		.loc 1 204 0
 275 00f0 77A55FFF 		e_rlwinm %r5,%r29,11,31,31
 276              		.loc 1 211 0
 277 00f4 1866C003 		e_andi %r6,%r3,3
 278              		.loc 1 207 0
 279 00f8 00CD     		se_extzb %r29
 280              	.LVL42:
 281              		.loc 1 201 0
 282 00fa 9C3E     		se_stb %r3,12(%r30)
 283              		.loc 1 204 0
 284 00fc 925E     		se_stb %r5,2(%r30)
 285              		.loc 1 207 0
GAS LISTING C:\Users\bayra\AppData\Local\Temp\cc6ZYDYB.s 			page 6


 286 00fe B0DE     		se_sth %r29,0(%r30)
 287              	.LVL43:
 288              		.loc 1 211 0
 289 0100 2A06     		se_cmpi %r6,0
 290 0102 7A12FF60 		e_beq %cr0,.L33
 291              	.LVL44:
 292              	.L20:
 293              		.loc 1 215 0
 294 0106 7C671470 		e_srwi %r7,%r3,2
 295 010a 18C78001 		e_addi %r6,%r7,1
 296              	.LVL45:
 297 010e 79FFFF5C 		e_b .L21
 298              	.LVL46:
 299              	.L16:
 300              		.loc 1 179 0
 301 0112 C173     		se_lwz %r7,4(%r3)
 302 0114 C243     		se_lwz %r4,8(%r3)
 303              	.LVL47:
 304 0116 50C700B0 		e_lwz %r6,176(%r7)
 305              	.LVL48:
 306 011a 79FFFFA0 		e_b .L29
 307              	.LVL49:
 308              	.L15:
 309              		.loc 1 175 0
 310 011e C173     		se_lwz %r7,4(%r3)
 311 0120 C243     		se_lwz %r4,8(%r3)
 312              	.LVL50:
 313 0122 50C700A0 		e_lwz %r6,160(%r7)
 314              	.LVL51:
 315 0126 79FFFF94 		e_b .L29
 316              		.cfi_endproc
 317              	.LFE3:
 318              		.size	can_lld_readBuffer, .-can_lld_readBuffer
 319              		.section	.text.can_lld_l0_handler,"axv",@progbits
 320              		.align 1
 321              		.p2align 4,,15
 322              		.type	can_lld_l0_handler, @function
 323              	can_lld_l0_handler:
 324              	.LFB7:
 325              		.loc 1 377 0
 326              		.cfi_startproc
 327              	.LVL52:
 328 0000 701F7F40 		e_li %r0,-192
 329              		.loc 1 383 0
 330 0004 62C5     		se_bgeni %r5,12
 331              		.loc 1 377 0
 332 0006 7C21016E 		stwux %r1,%r1,%r0
 333              	.LCFI3:
 334              		.cfi_def_cfa_offset 192
 335 000a 0080     		se_mflr %r0
 336 000c 57C100B8 		e_stw %r30,184(%r1)
 337 0010 540100C4 		e_stw %r0,196(%r1)
 338 0014 578100B0 		e_stw %r28,176(%r1)
 339 0018 57A100B4 		e_stw %r29,180(%r1)
 340 001c 57E100BC 		e_stw %r31,188(%r1)
 341              		.cfi_offset 65, 4
 342              		.cfi_offset 30, -8
GAS LISTING C:\Users\bayra\AppData\Local\Temp\cc6ZYDYB.s 			page 7


 343              		.cfi_offset 28, -16
 344              		.cfi_offset 29, -12
 345              		.cfi_offset 31, -4
 346              		.loc 1 383 0
 347 0020 C173     		se_lwz %r7,4(%r3)
 348              		.loc 1 377 0
 349 0022 013E     		se_mr %r30,%r3
 350              		.loc 1 383 0
 351 0024 50C70050 		e_lwz %r6,80(%r7)
 352 0028 7CC42839 		and. %r4,%r6,%r5
 353 002c 7A120094 		e_beq %cr0,.L35
 354              		.loc 1 384 0
 355 0030 50C70058 		e_lwz %r6,88(%r7)
 356 0034 7CC42839 		and. %r4,%r6,%r5
 357 0038 7A020088 		e_bne %cr0,.L35
 358              		.loc 1 386 0
 359 003c C053     		se_lwz %r5,0(%r3)
 360 003e C565     		se_lwz %r6,20(%r5)
 361 0040 2A06     		se_cmpi %r6,0
 362 0042 7A120076 		e_beq %cr0,.L36
 363              		.loc 1 387 0 discriminator 1
 364 0046 338500D2 		e_lbz %r28,210(%r5)
 365 004a 2A0C     		se_cmpi %r28,0
 366 004c 7A1203C4 		e_beq %cr0,.L37
 367              		.loc 1 387 0 is_stmt 0
 368 0050 480F     		se_li %r31,0
 369 0052 00BC     		se_mtctr %r28
 370 0054 78000016 		e_b .L42
 371              	.LVL53:
 372              	.L69:
 373              		.loc 1 389 0 is_stmt 1
 374 0058 50C70098 		e_lwz %r6,152(%r7)
 375 005c 40F6     		se_srw %r6,%r31
 376 005e 67F6     		se_btsti %r6,31
 377 0060 7A02036C 		e_bne %cr0,.L67
 378              	.L40:
 379              		.loc 1 387 0 discriminator 2
 380 0064 200F     		se_addi %r31,1
 381              	.LVL54:
 382 0066 7A300328 		e_bdz .L68
 383              	.LVL55:
 384              	.L42:
 385              		.loc 1 388 0
 386 006a 23EF     		se_cmpli %r31,31
 387 006c 7A01FFEC 		e_ble %cr0,.L69
 388              		.loc 1 393 0
 389 0070 50C7009C 		e_lwz %r6,156(%r7)
 390 0074 1BBF84E0 		e_addi %r29,%r31,-32
 391 0078 40D6     		se_srw %r6,%r29
 392 007a 67F6     		se_btsti %r6,31
 393 007c 7A12FFE8 		e_beq %cr0,.L40
 394              		.loc 1 399 0
 395 0080 18C18008 		e_addi %r6,%r1,8
 396 0084 01E3     		se_mr %r3,%r30
 397              	.LVL56:
 398              		.loc 1 401 0
 399 0086 1B868058 		e_addi %r28,%r6,88
GAS LISTING C:\Users\bayra\AppData\Local\Temp\cc6ZYDYB.s 			page 8


 400              		.loc 1 399 0
 401 008a 01F5     		se_mr %r5,%r31
 402 008c 708000FC 		e_li %r4,252
 403 0090 78000001 		e_bl can_lld_readBuffer
 404              	.LVL57:
 405              		.loc 1 401 0
 406 0094 18818008 		e_addi %r4,%r1,8
 407 0098 01C3     		se_mr %r3,%r28
 408 009a 4D05     		se_li %r5,80
 409 009c 78000001 		e_bl memcpy
 410              	.LVL58:
 411 00a0 C07E     		se_lwz %r7,0(%r30)
 412 00a2 01F3     		se_mr %r3,%r31
 413 00a4 C577     		se_lwz %r7,20(%r7)
 414 00a6 01C4     		se_mr %r4,%r28
 415 00a8 00B7     		se_mtctr %r7
 416 00aa 0007     		se_bctrl
 417              	.LVL59:
 418              	.L64:
 419              		.loc 1 406 0
 420 00ac C16E     		se_lwz %r6,4(%r30)
 421 00ae 4817     		se_li %r7,1
 422 00b0 42D7     		se_slw %r7, %r29
 423 00b2 54E6009C 		e_stw %r7,156(%r6)
 424 00b6 C17E     		se_lwz %r7,4(%r30)
 425              	.LVL60:
 426              	.L36:
 427              		.loc 1 410 0
 428 00b8 62C6     		se_bgeni %r6,12
 429 00ba 54C70050 		e_stw %r6,80(%r7)
 430 00be C17E     		se_lwz %r7,4(%r30)
 431              	.L35:
 432              		.loc 1 415 0
 433 00c0 50C70050 		e_lwz %r6,80(%r7)
 434 00c4 67C6     		se_btsti %r6,28
 435 00c6 7A120010 		e_beq %cr0,.L44
 436              		.loc 1 416 0 discriminator 1
 437 00ca C05E     		se_lwz %r5,0(%r30)
 438              		.loc 1 415 0 discriminator 1
 439 00cc 30C50030 		e_lbz %r6,48(%r5)
 440 00d0 2A16     		se_cmpi %r6,1
 441 00d2 7A12020E 		e_beq %cr0,.L70
 442              	.L44:
 443              		.loc 1 429 0
 444 00d6 50C70050 		e_lwz %r6,80(%r7)
 445 00da 67D6     		se_btsti %r6,29
 446 00dc 7A120010 		e_beq %cr0,.L46
 447              		.loc 1 430 0 discriminator 1
 448 00e0 C05E     		se_lwz %r5,0(%r30)
 449              		.loc 1 429 0 discriminator 1
 450 00e2 30C50028 		e_lbz %r6,40(%r5)
 451 00e6 2A16     		se_cmpi %r6,1
 452 00e8 7A120282 		e_beq %cr0,.L71
 453              	.L46:
 454              		.loc 1 443 0
 455 00ec 50C70050 		e_lwz %r6,80(%r7)
 456 00f0 67E6     		se_btsti %r6,30
GAS LISTING C:\Users\bayra\AppData\Local\Temp\cc6ZYDYB.s 			page 9


 457 00f2 7A120010 		e_beq %cr0,.L48
 458              		.loc 1 444 0 discriminator 1
 459 00f6 C05E     		se_lwz %r5,0(%r30)
 460              		.loc 1 443 0 discriminator 1
 461 00f8 30C50020 		e_lbz %r6,32(%r5)
 462 00fc 2A06     		se_cmpi %r6,0
 463 00fe 7A0200F8 		e_bne %cr0,.L72
 464              	.L48:
 465              		.loc 1 457 0
 466 0102 50C70050 		e_lwz %r6,80(%r7)
 467 0106 67F6     		se_btsti %r6,31
 468 0108 7A120010 		e_beq %cr0,.L50
 469              		.loc 1 458 0 discriminator 1
 470 010c C05E     		se_lwz %r5,0(%r30)
 471              		.loc 1 457 0 discriminator 1
 472 010e 30C50019 		e_lbz %r6,25(%r5)
 473 0112 2A16     		se_cmpi %r6,1
 474 0114 7A120166 		e_beq %cr0,.L73
 475              	.L50:
 476              		.loc 1 476 0
 477 0118 50C70050 		e_lwz %r6,80(%r7)
 478 011c 6385     		se_bgeni %r5,24
 479 011e 7CC32839 		and. %r3,%r6,%r5
 480 0122 7A120010 		e_beq %cr0,.L52
 481              		.loc 1 477 0 discriminator 1
 482 0126 C04E     		se_lwz %r4,0(%r30)
 483              		.loc 1 476 0 discriminator 1
 484 0128 30C40050 		e_lbz %r6,80(%r4)
 485 012c 2A16     		se_cmpi %r6,1
 486 012e 7A1200FC 		e_beq %cr0,.L74
 487              	.L52:
 488              		.loc 1 490 0
 489 0132 50C70050 		e_lwz %r6,80(%r7)
 490 0136 4C05     		se_li %r5,64
 491 0138 7CC32839 		and. %r3,%r6,%r5
 492 013c 7A120010 		e_beq %cr0,.L54
 493              		.loc 1 491 0 discriminator 1
 494 0140 C04E     		se_lwz %r4,0(%r30)
 495              		.loc 1 490 0 discriminator 1
 496 0142 30C40048 		e_lbz %r6,72(%r4)
 497 0146 2A16     		se_cmpi %r6,1
 498 0148 7A12010A 		e_beq %cr0,.L75
 499              	.L54:
 500              		.loc 1 504 0
 501 014c 50C70050 		e_lwz %r6,80(%r7)
 502 0150 4A05     		se_li %r5,32
 503 0152 7CC32839 		and. %r3,%r6,%r5
 504 0156 7A120010 		e_beq %cr0,.L56
 505              		.loc 1 505 0 discriminator 1
 506 015a C04E     		se_lwz %r4,0(%r30)
 507              		.loc 1 504 0 discriminator 1
 508 015c 30C40040 		e_lbz %r6,64(%r4)
 509 0160 2A06     		se_cmpi %r6,0
 510 0162 7A02006C 		e_bne %cr0,.L76
 511              	.L56:
 512              		.loc 1 518 0
 513 0166 50C70050 		e_lwz %r6,80(%r7)
GAS LISTING C:\Users\bayra\AppData\Local\Temp\cc6ZYDYB.s 			page 10


 514 016a 67B6     		se_btsti %r6,27
 515 016c 7A120010 		e_beq %cr0,.L58
 516              		.loc 1 519 0 discriminator 1
 517 0170 C05E     		se_lwz %r5,0(%r30)
 518              		.loc 1 518 0 discriminator 1
 519 0172 30C50039 		e_lbz %r6,57(%r5)
 520 0176 2A16     		se_cmpi %r6,1
 521 0178 7A12018C 		e_beq %cr0,.L77
 522              	.L58:
 523              		.loc 1 537 0
 524 017c 50C70050 		e_lwz %r6,80(%r7)
 525 0180 70C7EFF6 		e_and2is. %r6,0x3ff6
 526 0184 7A12002E 		e_beq %cr0,.L34
 527              	.LBB2:
 528              		.loc 1 539 0
 529 0188 C06E     		se_lwz %r6,0(%r30)
 530              		.loc 1 538 0
 531 018a 50870044 		e_lwz %r4,68(%r7)
 532              	.LVL61:
 533              		.loc 1 539 0
 534 018e 50C600D8 		e_lwz %r6,216(%r6)
 535 0192 2A06     		se_cmpi %r6,0
 536 0194 7A12000C 		e_beq %cr0,.L61
 537              		.loc 1 540 0
 538 0198 01E3     		se_mr %r3,%r30
 539 019a 00B6     		se_mtctr %r6
 540 019c 0007     		se_bctrl
 541              	.LVL62:
 542 019e C17E     		se_lwz %r7,4(%r30)
 543              	.L61:
 544              		.loc 1 543 0
 545 01a0 50C70050 		e_lwz %r6,80(%r7)
 546 01a4 6666     		se_btsti %r6,6
 547 01a6 7A020074 		e_bne %cr0,.L78
 548              	.L62:
 549              		.loc 1 548 0
 550 01aa 70C7E7F6 		e_lis %r6,0x3ff6
 551 01ae 54C70050 		e_stw %r6,80(%r7)
 552              	.L34:
 553              	.LBE2:
 554              		.loc 1 550 0
 555 01b2 500100C4 		e_lwz %r0,196(%r1)
 556 01b6 0090     		se_mtlr %r0
 557              		.cfi_remember_state
 558              		.cfi_restore 65
 559 01b8 538100B0 		e_lwz %r28,176(%r1)
 560 01bc 53A100B4 		e_lwz %r29,180(%r1)
 561 01c0 53C100B8 		e_lwz %r30,184(%r1)
 562              	.LVL63:
 563 01c4 53E100BC 		e_lwz %r31,188(%r1)
 564 01c8 182180C0 		e_addi %r1,%r1,192
 565              	.LCFI4:
 566              		.cfi_restore 31
 567              		.cfi_restore 30
 568              		.cfi_restore 29
 569              		.cfi_restore 28
 570              		.cfi_def_cfa_offset 0
GAS LISTING C:\Users\bayra\AppData\Local\Temp\cc6ZYDYB.s 			page 11


 571 01cc 0004     		se_blr
 572              	.LVL64:
 573              	.L76:
 574              	.LCFI5:
 575              		.cfi_restore_state
 576              		.loc 1 506 0
 577 01ce 50C70058 		e_lwz %r6,88(%r7)
 578 01d2 7CC32839 		and. %r3,%r6,%r5
 579 01d6 7A02FF90 		e_bne %cr0,.L56
 580              		.loc 1 508 0
 581 01da 50C40044 		e_lwz %r6,68(%r4)
 582 01de 2A06     		se_cmpi %r6,0
 583 01e0 7A12000A 		e_beq %cr0,.L57
 584              		.loc 1 510 0
 585 01e4 00B6     		se_mtctr %r6
 586 01e6 0007     		se_bctrl
 587              	.LVL65:
 588 01e8 C17E     		se_lwz %r7,4(%r30)
 589              	.L57:
 590              		.loc 1 513 0
 591 01ea 4A06     		se_li %r6,32
 592 01ec 54C70050 		e_stw %r6,80(%r7)
 593 01f0 C17E     		se_lwz %r7,4(%r30)
 594 01f2 79FFFF74 		e_b .L56
 595              	.L72:
 596              		.loc 1 445 0
 597 01f6 50C70058 		e_lwz %r6,88(%r7)
 598 01fa 67E6     		se_btsti %r6,30
 599 01fc 7A02FF06 		e_bne %cr0,.L48
 600              		.loc 1 447 0
 601 0200 C965     		se_lwz %r6,36(%r5)
 602 0202 2A06     		se_cmpi %r6,0
 603 0204 7A12000A 		e_beq %cr0,.L49
 604              		.loc 1 449 0
 605 0208 00B6     		se_mtctr %r6
 606 020a 0007     		se_bctrl
 607              	.LVL66:
 608 020c C17E     		se_lwz %r7,4(%r30)
 609              	.L49:
 610              		.loc 1 452 0
 611 020e 4826     		se_li %r6,2
 612 0210 54C70050 		e_stw %r6,80(%r7)
 613 0214 C17E     		se_lwz %r7,4(%r30)
 614 0216 79FFFEEC 		e_b .L48
 615              	.L78:
 616              	.LBB3:
 617              		.loc 1 545 0
 618 021a C667     		se_lwz %r6,24(%r7)
 619 021c 4805     		se_li %r5,0
 620 021e 74A607FE 		e_rlwimi %r6,%r5,0,31,31
 621 0222 D667     		se_stw %r6,24(%r7)
 622 0224 C17E     		se_lwz %r7,4(%r30)
 623 0226 79FFFF84 		e_b .L62
 624              	.L74:
 625              	.LBE3:
 626              		.loc 1 478 0
 627 022a 50C70058 		e_lwz %r6,88(%r7)
GAS LISTING C:\Users\bayra\AppData\Local\Temp\cc6ZYDYB.s 			page 12


 628 022e 7CC32839 		and. %r3,%r6,%r5
 629 0232 7A02FF00 		e_bne %cr0,.L52
 630              		.loc 1 480 0
 631 0236 50C40054 		e_lwz %r6,84(%r4)
 632 023a 2A06     		se_cmpi %r6,0
 633 023c 7A12000A 		e_beq %cr0,.L53
 634              		.loc 1 482 0
 635 0240 00B6     		se_mtctr %r6
 636 0242 0007     		se_bctrl
 637              	.LVL67:
 638 0244 C17E     		se_lwz %r7,4(%r30)
 639              	.L53:
 640              		.loc 1 485 0
 641 0246 6386     		se_bgeni %r6,24
 642 0248 54C70050 		e_stw %r6,80(%r7)
 643 024c C17E     		se_lwz %r7,4(%r30)
 644 024e 79FFFEE4 		e_b .L52
 645              	.L75:
 646              		.loc 1 492 0
 647 0252 50C70058 		e_lwz %r6,88(%r7)
 648 0256 7CC32839 		and. %r3,%r6,%r5
 649 025a 7A02FEF2 		e_bne %cr0,.L54
 650              		.loc 1 494 0
 651 025e 50C4004C 		e_lwz %r6,76(%r4)
 652 0262 2A06     		se_cmpi %r6,0
 653 0264 7A12000A 		e_beq %cr0,.L55
 654              		.loc 1 496 0
 655 0268 00B6     		se_mtctr %r6
 656 026a 0007     		se_bctrl
 657              	.LVL68:
 658 026c C17E     		se_lwz %r7,4(%r30)
 659              	.L55:
 660              		.loc 1 499 0
 661 026e 4C06     		se_li %r6,64
 662 0270 54C70050 		e_stw %r6,80(%r7)
 663 0274 C17E     		se_lwz %r7,4(%r30)
 664 0276 79FFFED6 		e_b .L54
 665              	.L73:
 666              		.loc 1 459 0
 667 027a 50C70058 		e_lwz %r6,88(%r7)
 668 027e 67F6     		se_btsti %r6,31
 669 0280 7A02FE98 		e_bne %cr0,.L50
 670              		.loc 1 461 0
 671 0284 C765     		se_lwz %r6,28(%r5)
 672 0286 2A06     		se_cmpi %r6,0
 673 0288 7A12004C 		e_beq %cr0,.L51
 674              		.loc 1 464 0
 675 028c 18C18008 		e_addi %r6,%r1,8
 676              		.loc 1 462 0
 677 0290 53E700A4 		e_lwz %r31,164(%r7)
 678              		.loc 1 466 0
 679 0294 1BA68058 		e_addi %r29,%r6,88
 680              		.loc 1 464 0
 681 0298 01E3     		se_mr %r3,%r30
 682              		.loc 1 462 0
 683 029a 77FFC6BF 		e_rlwinm %r31,%r31,24,26,31
 684              	.LVL69:
GAS LISTING C:\Users\bayra\AppData\Local\Temp\cc6ZYDYB.s 			page 13


 685              		.loc 1 464 0
 686 029e 708000FD 		e_li %r4,253
 687 02a2 01F5     		se_mr %r5,%r31
 688 02a4 78000001 		e_bl can_lld_readBuffer
 689              	.LVL70:
 690              		.loc 1 466 0
 691 02a8 4D05     		se_li %r5,80
 692 02aa 18818008 		e_addi %r4,%r1,8
 693 02ae 01D3     		se_mr %r3,%r29
 694 02b0 78000001 		e_bl memcpy
 695              	.LVL71:
 696 02b4 C07E     		se_lwz %r7,0(%r30)
 697 02b6 01F3     		se_mr %r3,%r31
 698 02b8 C777     		se_lwz %r7,28(%r7)
 699 02ba 01D4     		se_mr %r4,%r29
 700 02bc 00B7     		se_mtctr %r7
 701 02be 0007     		se_bctrl
 702              	.LVL72:
 703              		.loc 1 468 0
 704 02c0 C17E     		se_lwz %r7,4(%r30)
 705 02c2 50A700A4 		e_lwz %r5,164(%r7)
 706 02c6 50C700A8 		e_lwz %r6,168(%r7)
 707 02ca 74A6C6BE 		e_rlwimi %r6,%r5,24,26,31
 708 02ce 54C700A8 		e_stw %r6,168(%r7)
 709 02d2 C17E     		se_lwz %r7,4(%r30)
 710              	.LVL73:
 711              	.L51:
 712              		.loc 1 471 0
 713 02d4 4816     		se_li %r6,1
 714 02d6 54C70050 		e_stw %r6,80(%r7)
 715 02da C17E     		se_lwz %r7,4(%r30)
 716 02dc 79FFFE3C 		e_b .L50
 717              	.L70:
 718              		.loc 1 417 0
 719 02e0 50C70058 		e_lwz %r6,88(%r7)
 720 02e4 67C6     		se_btsti %r6,28
 721 02e6 7A02FDF0 		e_bne %cr0,.L44
 722              		.loc 1 419 0
 723 02ea CD65     		se_lwz %r6,52(%r5)
 724 02ec 2A06     		se_cmpi %r6,0
 725 02ee 7A12000A 		e_beq %cr0,.L45
 726              		.loc 1 421 0
 727 02f2 00B6     		se_mtctr %r6
 728 02f4 0007     		se_bctrl
 729              	.LVL74:
 730 02f6 C17E     		se_lwz %r7,4(%r30)
 731              	.L45:
 732              		.loc 1 424 0
 733 02f8 4886     		se_li %r6,8
 734 02fa 54C70050 		e_stw %r6,80(%r7)
 735 02fe C17E     		se_lwz %r7,4(%r30)
 736 0300 79FFFDD6 		e_b .L44
 737              	.L77:
 738              		.loc 1 520 0
 739 0304 50C70058 		e_lwz %r6,88(%r7)
 740 0308 67B6     		se_btsti %r6,27
 741 030a 7A02FE72 		e_bne %cr0,.L58
GAS LISTING C:\Users\bayra\AppData\Local\Temp\cc6ZYDYB.s 			page 14


 742              		.loc 1 522 0
 743 030e CF65     		se_lwz %r6,60(%r5)
 744 0310 2A06     		se_cmpi %r6,0
 745 0312 7A12004C 		e_beq %cr0,.L59
 746              		.loc 1 525 0
 747 0316 18C18008 		e_addi %r6,%r1,8
 748              		.loc 1 523 0
 749 031a 53E700B4 		e_lwz %r31,180(%r7)
 750              		.loc 1 527 0
 751 031e 1BA68058 		e_addi %r29,%r6,88
 752              		.loc 1 525 0
 753 0322 01E3     		se_mr %r3,%r30
 754              		.loc 1 523 0
 755 0324 77FFC6BF 		e_rlwinm %r31,%r31,24,26,31
 756              	.LVL75:
 757              		.loc 1 525 0
 758 0328 708000FE 		e_li %r4,254
 759 032c 01F5     		se_mr %r5,%r31
 760 032e 78000001 		e_bl can_lld_readBuffer
 761              	.LVL76:
 762              		.loc 1 527 0
 763 0332 4D05     		se_li %r5,80
 764 0334 18818008 		e_addi %r4,%r1,8
 765 0338 01D3     		se_mr %r3,%r29
 766 033a 78000001 		e_bl memcpy
 767              	.LVL77:
 768 033e C07E     		se_lwz %r7,0(%r30)
 769 0340 01F3     		se_mr %r3,%r31
 770 0342 CF77     		se_lwz %r7,60(%r7)
 771 0344 01D4     		se_mr %r4,%r29
 772 0346 00B7     		se_mtctr %r7
 773 0348 0007     		se_bctrl
 774              	.LVL78:
 775              		.loc 1 529 0
 776 034a C17E     		se_lwz %r7,4(%r30)
 777 034c 50A700B4 		e_lwz %r5,180(%r7)
 778 0350 50C700B8 		e_lwz %r6,184(%r7)
 779 0354 74A6C6BE 		e_rlwimi %r6,%r5,24,26,31
 780 0358 54C700B8 		e_stw %r6,184(%r7)
 781 035c C17E     		se_lwz %r7,4(%r30)
 782              	.LVL79:
 783              	.L59:
 784              		.loc 1 532 0
 785 035e 4906     		se_li %r6,16
 786 0360 54C70050 		e_stw %r6,80(%r7)
 787 0364 C17E     		se_lwz %r7,4(%r30)
 788 0366 79FFFE16 		e_b .L58
 789              	.L71:
 790              		.loc 1 431 0
 791 036a 50C70058 		e_lwz %r6,88(%r7)
 792 036e 67D6     		se_btsti %r6,29
 793 0370 7A02FD7C 		e_bne %cr0,.L46
 794              		.loc 1 433 0
 795 0374 CB65     		se_lwz %r6,44(%r5)
 796 0376 2A06     		se_cmpi %r6,0
 797 0378 7A12000A 		e_beq %cr0,.L47
 798              		.loc 1 435 0
GAS LISTING C:\Users\bayra\AppData\Local\Temp\cc6ZYDYB.s 			page 15


 799 037c 00B6     		se_mtctr %r6
 800 037e 0007     		se_bctrl
 801              	.LVL80:
 802 0380 C17E     		se_lwz %r7,4(%r30)
 803              	.L47:
 804              		.loc 1 438 0
 805 0382 4846     		se_li %r6,4
 806 0384 54C70050 		e_stw %r6,80(%r7)
 807 0388 C17E     		se_lwz %r7,4(%r30)
 808 038a 79FFFD62 		e_b .L46
 809              	.LVL81:
 810              	.L68:
 811              		.loc 1 399 0
 812 038e 18C18008 		e_addi %r6,%r1,8
 813 0392 01E3     		se_mr %r3,%r30
 814              	.LVL82:
 815              		.loc 1 401 0
 816 0394 1BA68058 		e_addi %r29,%r6,88
 817              		.loc 1 399 0
 818 0398 01F5     		se_mr %r5,%r31
 819 039a 708000FC 		e_li %r4,252
 820 039e 78000001 		e_bl can_lld_readBuffer
 821              	.LVL83:
 822              		.loc 1 401 0
 823 03a2 18818008 		e_addi %r4,%r1,8
 824 03a6 01D3     		se_mr %r3,%r29
 825 03a8 4D05     		se_li %r5,80
 826 03aa 78000001 		e_bl memcpy
 827              	.LVL84:
 828 03ae C07E     		se_lwz %r7,0(%r30)
 829 03b0 01D4     		se_mr %r4,%r29
 830 03b2 C577     		se_lwz %r7,20(%r7)
 831 03b4 01F3     		se_mr %r3,%r31
 832 03b6 00B7     		se_mtctr %r7
 833 03b8 1BBF84E0 		e_addi %r29,%r31,-32
 834 03bc 0007     		se_bctrl
 835              	.LVL85:
 836              		.loc 1 403 0
 837 03be 23EF     		se_cmpli %r31,31
 838 03c0 7A11FCEC 		e_bgt %cr0,.L64
 839 03c4 4817     		se_li %r7,1
 840 03c6 42C7     		se_slw %r7, %r28
 841 03c8 78000034 		e_b .L63
 842              	.LVL86:
 843              	.L67:
 844              		.loc 1 399 0
 845 03cc 18C18008 		e_addi %r6,%r1,8
 846 03d0 01E3     		se_mr %r3,%r30
 847              	.LVL87:
 848              		.loc 1 401 0
 849 03d2 1BA68058 		e_addi %r29,%r6,88
 850              		.loc 1 399 0
 851 03d6 01F5     		se_mr %r5,%r31
 852 03d8 708000FC 		e_li %r4,252
 853 03dc 78000001 		e_bl can_lld_readBuffer
 854              	.LVL88:
 855              		.loc 1 401 0
GAS LISTING C:\Users\bayra\AppData\Local\Temp\cc6ZYDYB.s 			page 16


 856 03e0 18818008 		e_addi %r4,%r1,8
 857 03e4 4D05     		se_li %r5,80
 858 03e6 01D3     		se_mr %r3,%r29
 859 03e8 78000001 		e_bl memcpy
 860              	.LVL89:
 861 03ec C07E     		se_lwz %r7,0(%r30)
 862 03ee 01F3     		se_mr %r3,%r31
 863 03f0 C577     		se_lwz %r7,20(%r7)
 864 03f2 01D4     		se_mr %r4,%r29
 865 03f4 00B7     		se_mtctr %r7
 866 03f6 0007     		se_bctrl
 867              	.LVL90:
 868 03f8 4817     		se_li %r7,1
 869 03fa 42F7     		se_slw %r7, %r31
 870              	.LVL91:
 871              	.L63:
 872              		.loc 1 404 0
 873 03fc C16E     		se_lwz %r6,4(%r30)
 874 03fe 54E60098 		e_stw %r7,152(%r6)
 875              		.loc 1 410 0
 876 0402 62C6     		se_bgeni %r6,12
 877 0404 C17E     		se_lwz %r7,4(%r30)
 878 0406 54C70050 		e_stw %r6,80(%r7)
 879 040a C17E     		se_lwz %r7,4(%r30)
 880 040c 79FFFCB4 		e_b .L35
 881              	.LVL92:
 882              	.L37:
 883              		.loc 1 399 0
 884 0410 18C18008 		e_addi %r6,%r1,8
 885 0414 708000FC 		e_li %r4,252
 886              		.loc 1 401 0
 887 0418 1BE68058 		e_addi %r31,%r6,88
 888              		.loc 1 399 0
 889 041c 4805     		se_li %r5,0
 890 041e 78000001 		e_bl can_lld_readBuffer
 891              	.LVL93:
 892              		.loc 1 401 0
 893 0422 18818008 		e_addi %r4,%r1,8
 894 0426 4D05     		se_li %r5,80
 895 0428 01F3     		se_mr %r3,%r31
 896 042a 78000001 		e_bl memcpy
 897              	.LVL94:
 898 042e C07E     		se_lwz %r7,0(%r30)
 899 0430 4803     		se_li %r3,0
 900 0432 C577     		se_lwz %r7,20(%r7)
 901 0434 01F4     		se_mr %r4,%r31
 902 0436 00B7     		se_mtctr %r7
 903 0438 0007     		se_bctrl
 904              	.LVL95:
 905 043a 4817     		se_li %r7,1
 906 043c 79FFFFC0 		e_b .L63
 907              		.cfi_endproc
 908              	.LFE7:
 909              		.size	can_lld_l0_handler, .-can_lld_l0_handler
 910              		.section	.text.can_lld_l1_handler,"axv",@progbits
 911              		.align 1
 912              		.p2align 4,,15
GAS LISTING C:\Users\bayra\AppData\Local\Temp\cc6ZYDYB.s 			page 17


 913              		.type	can_lld_l1_handler, @function
 914              	can_lld_l1_handler:
 915              	.LFB8:
 916              		.loc 1 560 0
 917              		.cfi_startproc
 918              	.LVL96:
 919 0000 701F7F40 		e_li %r0,-192
 920              		.loc 1 566 0
 921 0004 62C5     		se_bgeni %r5,12
 922              		.loc 1 560 0
 923 0006 7C21016E 		stwux %r1,%r1,%r0
 924              	.LCFI6:
 925              		.cfi_def_cfa_offset 192
 926 000a 0080     		se_mflr %r0
 927 000c 57C100B8 		e_stw %r30,184(%r1)
 928 0010 540100C4 		e_stw %r0,196(%r1)
 929 0014 578100B0 		e_stw %r28,176(%r1)
 930 0018 57A100B4 		e_stw %r29,180(%r1)
 931 001c 57E100BC 		e_stw %r31,188(%r1)
 932              		.cfi_offset 65, 4
 933              		.cfi_offset 30, -8
 934              		.cfi_offset 28, -16
 935              		.cfi_offset 29, -12
 936              		.cfi_offset 31, -4
 937              		.loc 1 566 0
 938 0020 C173     		se_lwz %r7,4(%r3)
 939              		.loc 1 560 0
 940 0022 013E     		se_mr %r30,%r3
 941              		.loc 1 566 0
 942 0024 50C70050 		e_lwz %r6,80(%r7)
 943 0028 7CC42839 		and. %r4,%r6,%r5
 944 002c 7A120094 		e_beq %cr0,.L80
 945              		.loc 1 567 0
 946 0030 50C70058 		e_lwz %r6,88(%r7)
 947 0034 7CC42839 		and. %r4,%r6,%r5
 948 0038 7A120088 		e_beq %cr0,.L80
 949              		.loc 1 569 0
 950 003c C053     		se_lwz %r5,0(%r3)
 951 003e C565     		se_lwz %r6,20(%r5)
 952 0040 2A06     		se_cmpi %r6,0
 953 0042 7A120076 		e_beq %cr0,.L81
 954              		.loc 1 570 0 discriminator 1
 955 0046 338500D2 		e_lbz %r28,210(%r5)
 956 004a 2A0C     		se_cmpi %r28,0
 957 004c 7A120394 		e_beq %cr0,.L82
 958              		.loc 1 570 0 is_stmt 0
 959 0050 480F     		se_li %r31,0
 960 0052 00BC     		se_mtctr %r28
 961 0054 78000016 		e_b .L87
 962              	.LVL97:
 963              	.L111:
 964              		.loc 1 572 0 is_stmt 1
 965 0058 50C70098 		e_lwz %r6,152(%r7)
 966 005c 40F6     		se_srw %r6,%r31
 967 005e 67F6     		se_btsti %r6,31
 968 0060 7A02033C 		e_bne %cr0,.L109
 969              	.L85:
GAS LISTING C:\Users\bayra\AppData\Local\Temp\cc6ZYDYB.s 			page 18


 970              		.loc 1 570 0 discriminator 2
 971 0064 200F     		se_addi %r31,1
 972              	.LVL98:
 973 0066 7A3002F8 		e_bdz .L110
 974              	.LVL99:
 975              	.L87:
 976              		.loc 1 571 0
 977 006a 23EF     		se_cmpli %r31,31
 978 006c 7A01FFEC 		e_ble %cr0,.L111
 979              		.loc 1 576 0
 980 0070 50C7009C 		e_lwz %r6,156(%r7)
 981 0074 1BBF84E0 		e_addi %r29,%r31,-32
 982 0078 40D6     		se_srw %r6,%r29
 983 007a 67F6     		se_btsti %r6,31
 984 007c 7A12FFE8 		e_beq %cr0,.L85
 985              		.loc 1 582 0
 986 0080 18C18008 		e_addi %r6,%r1,8
 987 0084 01E3     		se_mr %r3,%r30
 988              	.LVL100:
 989              		.loc 1 584 0
 990 0086 1B868058 		e_addi %r28,%r6,88
 991              		.loc 1 582 0
 992 008a 01F5     		se_mr %r5,%r31
 993 008c 708000FC 		e_li %r4,252
 994 0090 78000001 		e_bl can_lld_readBuffer
 995              	.LVL101:
 996              		.loc 1 584 0
 997 0094 18818008 		e_addi %r4,%r1,8
 998 0098 01C3     		se_mr %r3,%r28
 999 009a 4D05     		se_li %r5,80
 1000 009c 78000001 		e_bl memcpy
 1001              	.LVL102:
 1002 00a0 C07E     		se_lwz %r7,0(%r30)
 1003 00a2 01F3     		se_mr %r3,%r31
 1004 00a4 C577     		se_lwz %r7,20(%r7)
 1005 00a6 01C4     		se_mr %r4,%r28
 1006 00a8 00B7     		se_mtctr %r7
 1007 00aa 0007     		se_bctrl
 1008              	.LVL103:
 1009              	.L106:
 1010              		.loc 1 589 0
 1011 00ac C16E     		se_lwz %r6,4(%r30)
 1012 00ae 4817     		se_li %r7,1
 1013 00b0 42D7     		se_slw %r7, %r29
 1014 00b2 54E6009C 		e_stw %r7,156(%r6)
 1015 00b6 C17E     		se_lwz %r7,4(%r30)
 1016              	.LVL104:
 1017              	.L81:
 1018              		.loc 1 593 0
 1019 00b8 62C6     		se_bgeni %r6,12
 1020 00ba 54C70050 		e_stw %r6,80(%r7)
 1021 00be C17E     		se_lwz %r7,4(%r30)
 1022              	.L80:
 1023              		.loc 1 598 0
 1024 00c0 50C70050 		e_lwz %r6,80(%r7)
 1025 00c4 67C6     		se_btsti %r6,28
 1026 00c6 7A120010 		e_beq %cr0,.L89
GAS LISTING C:\Users\bayra\AppData\Local\Temp\cc6ZYDYB.s 			page 19


 1027              		.loc 1 599 0 discriminator 1
 1028 00ca C05E     		se_lwz %r5,0(%r30)
 1029              		.loc 1 598 0 discriminator 1
 1030 00cc 30C50030 		e_lbz %r6,48(%r5)
 1031 00d0 2A16     		se_cmpi %r6,1
 1032 00d2 7A12018E 		e_beq %cr0,.L112
 1033              	.L89:
 1034              		.loc 1 612 0
 1035 00d6 50C70050 		e_lwz %r6,80(%r7)
 1036 00da 67D6     		se_btsti %r6,29
 1037 00dc 7A120010 		e_beq %cr0,.L91
 1038              		.loc 1 613 0 discriminator 1
 1039 00e0 C05E     		se_lwz %r5,0(%r30)
 1040              		.loc 1 612 0 discriminator 1
 1041 00e2 30C50028 		e_lbz %r6,40(%r5)
 1042 00e6 2A16     		se_cmpi %r6,1
 1043 00e8 7A12019C 		e_beq %cr0,.L113
 1044              	.L91:
 1045              		.loc 1 626 0
 1046 00ec 50C70050 		e_lwz %r6,80(%r7)
 1047 00f0 67E6     		se_btsti %r6,30
 1048 00f2 7A120010 		e_beq %cr0,.L93
 1049              		.loc 1 627 0 discriminator 1
 1050 00f6 C05E     		se_lwz %r5,0(%r30)
 1051              		.loc 1 626 0 discriminator 1
 1052 00f8 30C50020 		e_lbz %r6,32(%r5)
 1053 00fc 2A06     		se_cmpi %r6,0
 1054 00fe 7A0200C2 		e_bne %cr0,.L114
 1055              	.L93:
 1056              		.loc 1 640 0
 1057 0102 50C70050 		e_lwz %r6,80(%r7)
 1058 0106 67F6     		se_btsti %r6,31
 1059 0108 7A120010 		e_beq %cr0,.L95
 1060              		.loc 1 641 0 discriminator 1
 1061 010c C05E     		se_lwz %r5,0(%r30)
 1062              		.loc 1 640 0 discriminator 1
 1063 010e 30C50019 		e_lbz %r6,25(%r5)
 1064 0112 2A16     		se_cmpi %r6,1
 1065 0114 7A1201BC 		e_beq %cr0,.L115
 1066              	.L95:
 1067              		.loc 1 659 0
 1068 0118 50C70050 		e_lwz %r6,80(%r7)
 1069 011c 6385     		se_bgeni %r5,24
 1070 011e 7CC32839 		and. %r3,%r6,%r5
 1071 0122 7A120010 		e_beq %cr0,.L97
 1072              		.loc 1 660 0 discriminator 1
 1073 0126 C04E     		se_lwz %r4,0(%r30)
 1074              		.loc 1 659 0 discriminator 1
 1075 0128 30C40050 		e_lbz %r6,80(%r4)
 1076 012c 2A16     		se_cmpi %r6,1
 1077 012e 7A12017A 		e_beq %cr0,.L116
 1078              	.L97:
 1079              		.loc 1 673 0
 1080 0132 50C70050 		e_lwz %r6,80(%r7)
 1081 0136 4C05     		se_li %r5,64
 1082 0138 7CC32839 		and. %r3,%r6,%r5
 1083 013c 7A120010 		e_beq %cr0,.L99
GAS LISTING C:\Users\bayra\AppData\Local\Temp\cc6ZYDYB.s 			page 20


 1084              		.loc 1 674 0 discriminator 1
 1085 0140 C04E     		se_lwz %r4,0(%r30)
 1086              		.loc 1 673 0 discriminator 1
 1087 0142 30C40048 		e_lbz %r6,72(%r4)
 1088 0146 2A16     		se_cmpi %r6,1
 1089 0148 7A1201EE 		e_beq %cr0,.L117
 1090              	.L99:
 1091              		.loc 1 687 0
 1092 014c 50C70050 		e_lwz %r6,80(%r7)
 1093 0150 4A05     		se_li %r5,32
 1094 0152 7CC32839 		and. %r3,%r6,%r5
 1095 0156 7A120010 		e_beq %cr0,.L101
 1096              		.loc 1 688 0 discriminator 1
 1097 015a C04E     		se_lwz %r4,0(%r30)
 1098              		.loc 1 687 0 discriminator 1
 1099 015c 30C40040 		e_lbz %r6,64(%r4)
 1100 0160 2A06     		se_cmpi %r6,0
 1101 0162 7A020036 		e_bne %cr0,.L118
 1102              	.L101:
 1103              		.loc 1 701 0
 1104 0166 50C70050 		e_lwz %r6,80(%r7)
 1105 016a 67B6     		se_btsti %r6,27
 1106 016c 7A120010 		e_beq %cr0,.L79
 1107              		.loc 1 702 0 discriminator 1
 1108 0170 C05E     		se_lwz %r5,0(%r30)
 1109              		.loc 1 701 0 discriminator 1
 1110 0172 30C50039 		e_lbz %r6,57(%r5)
 1111 0176 2A16     		se_cmpi %r6,1
 1112 0178 7A12006C 		e_beq %cr0,.L119
 1113              	.L79:
 1114              		.loc 1 718 0
 1115 017c 500100C4 		e_lwz %r0,196(%r1)
 1116 0180 0090     		se_mtlr %r0
 1117              		.cfi_remember_state
 1118              		.cfi_restore 65
 1119 0182 538100B0 		e_lwz %r28,176(%r1)
 1120 0186 53A100B4 		e_lwz %r29,180(%r1)
 1121 018a 53C100B8 		e_lwz %r30,184(%r1)
 1122              	.LVL105:
 1123 018e 53E100BC 		e_lwz %r31,188(%r1)
 1124 0192 182180C0 		e_addi %r1,%r1,192
 1125              	.LCFI7:
 1126              		.cfi_restore 31
 1127              		.cfi_restore 30
 1128              		.cfi_restore 29
 1129              		.cfi_restore 28
 1130              		.cfi_def_cfa_offset 0
 1131 0196 0004     		se_blr
 1132              	.LVL106:
 1133              	.L118:
 1134              	.LCFI8:
 1135              		.cfi_restore_state
 1136              		.loc 1 689 0
 1137 0198 50C70058 		e_lwz %r6,88(%r7)
 1138 019c 7CC32839 		and. %r3,%r6,%r5
 1139 01a0 7A12FFC6 		e_beq %cr0,.L101
 1140              		.loc 1 691 0
GAS LISTING C:\Users\bayra\AppData\Local\Temp\cc6ZYDYB.s 			page 21


 1141 01a4 50C40044 		e_lwz %r6,68(%r4)
 1142 01a8 2A06     		se_cmpi %r6,0
 1143 01aa 7A12000A 		e_beq %cr0,.L102
 1144              		.loc 1 693 0
 1145 01ae 00B6     		se_mtctr %r6
 1146 01b0 0007     		se_bctrl
 1147              	.LVL107:
 1148 01b2 C17E     		se_lwz %r7,4(%r30)
 1149              	.L102:
 1150              		.loc 1 696 0
 1151 01b4 4A06     		se_li %r6,32
 1152 01b6 54C70050 		e_stw %r6,80(%r7)
 1153 01ba C17E     		se_lwz %r7,4(%r30)
 1154 01bc 79FFFFAA 		e_b .L101
 1155              	.L114:
 1156              		.loc 1 628 0
 1157 01c0 50C70058 		e_lwz %r6,88(%r7)
 1158 01c4 67E6     		se_btsti %r6,30
 1159 01c6 7A12FF3C 		e_beq %cr0,.L93
 1160              		.loc 1 630 0
 1161 01ca C965     		se_lwz %r6,36(%r5)
 1162 01cc 2A06     		se_cmpi %r6,0
 1163 01ce 7A12000A 		e_beq %cr0,.L94
 1164              		.loc 1 632 0
 1165 01d2 00B6     		se_mtctr %r6
 1166 01d4 0007     		se_bctrl
 1167              	.LVL108:
 1168 01d6 C17E     		se_lwz %r7,4(%r30)
 1169              	.L94:
 1170              		.loc 1 635 0
 1171 01d8 4826     		se_li %r6,2
 1172 01da 54C70050 		e_stw %r6,80(%r7)
 1173 01de C17E     		se_lwz %r7,4(%r30)
 1174 01e0 79FFFF22 		e_b .L93
 1175              	.L119:
 1176              		.loc 1 703 0
 1177 01e4 50C70058 		e_lwz %r6,88(%r7)
 1178 01e8 67B6     		se_btsti %r6,27
 1179 01ea 7A02FF92 		e_bne %cr0,.L79
 1180              		.loc 1 705 0
 1181 01ee CF65     		se_lwz %r6,60(%r5)
 1182 01f0 2A06     		se_cmpi %r6,0
 1183 01f2 7A12004C 		e_beq %cr0,.L104
 1184              		.loc 1 708 0
 1185 01f6 18C18008 		e_addi %r6,%r1,8
 1186              		.loc 1 706 0
 1187 01fa 53E700B4 		e_lwz %r31,180(%r7)
 1188              		.loc 1 710 0
 1189 01fe 1BA68058 		e_addi %r29,%r6,88
 1190              		.loc 1 708 0
 1191 0202 01E3     		se_mr %r3,%r30
 1192              		.loc 1 706 0
 1193 0204 77FFC6BF 		e_rlwinm %r31,%r31,24,26,31
 1194              	.LVL109:
 1195              		.loc 1 708 0
 1196 0208 708000FE 		e_li %r4,254
 1197 020c 01F5     		se_mr %r5,%r31
GAS LISTING C:\Users\bayra\AppData\Local\Temp\cc6ZYDYB.s 			page 22


 1198 020e 78000001 		e_bl can_lld_readBuffer
 1199              	.LVL110:
 1200              		.loc 1 710 0
 1201 0212 4D05     		se_li %r5,80
 1202 0214 18818008 		e_addi %r4,%r1,8
 1203 0218 01D3     		se_mr %r3,%r29
 1204 021a 78000001 		e_bl memcpy
 1205              	.LVL111:
 1206 021e C07E     		se_lwz %r7,0(%r30)
 1207 0220 01F3     		se_mr %r3,%r31
 1208 0222 CF77     		se_lwz %r7,60(%r7)
 1209 0224 01D4     		se_mr %r4,%r29
 1210 0226 00B7     		se_mtctr %r7
 1211 0228 0007     		se_bctrl
 1212              	.LVL112:
 1213              		.loc 1 712 0
 1214 022a C17E     		se_lwz %r7,4(%r30)
 1215 022c 50A700B4 		e_lwz %r5,180(%r7)
 1216 0230 50C700B8 		e_lwz %r6,184(%r7)
 1217 0234 74A6C6BE 		e_rlwimi %r6,%r5,24,26,31
 1218 0238 54C700B8 		e_stw %r6,184(%r7)
 1219 023c C17E     		se_lwz %r7,4(%r30)
 1220              	.LVL113:
 1221              	.L104:
 1222              		.loc 1 715 0
 1223 023e 4906     		se_li %r6,16
 1224 0240 54C70050 		e_stw %r6,80(%r7)
 1225              		.loc 1 718 0
 1226 0244 500100C4 		e_lwz %r0,196(%r1)
 1227 0248 0090     		se_mtlr %r0
 1228              		.cfi_remember_state
 1229              		.cfi_restore 65
 1230 024a 538100B0 		e_lwz %r28,176(%r1)
 1231 024e 53A100B4 		e_lwz %r29,180(%r1)
 1232 0252 53C100B8 		e_lwz %r30,184(%r1)
 1233              	.LVL114:
 1234 0256 53E100BC 		e_lwz %r31,188(%r1)
 1235 025a 182180C0 		e_addi %r1,%r1,192
 1236              	.LCFI9:
 1237              		.cfi_restore 28
 1238              		.cfi_restore 29
 1239              		.cfi_restore 30
 1240              		.cfi_restore 31
 1241              		.cfi_def_cfa_offset 0
 1242 025e 0004     		se_blr
 1243              	.LVL115:
 1244              	.L112:
 1245              	.LCFI10:
 1246              		.cfi_restore_state
 1247              		.loc 1 600 0
 1248 0260 50C70058 		e_lwz %r6,88(%r7)
 1249 0264 67C6     		se_btsti %r6,28
 1250 0266 7A12FE70 		e_beq %cr0,.L89
 1251              		.loc 1 602 0
 1252 026a CD65     		se_lwz %r6,52(%r5)
 1253 026c 2A06     		se_cmpi %r6,0
 1254 026e 7A12000A 		e_beq %cr0,.L90
GAS LISTING C:\Users\bayra\AppData\Local\Temp\cc6ZYDYB.s 			page 23


 1255              		.loc 1 604 0
 1256 0272 00B6     		se_mtctr %r6
 1257 0274 0007     		se_bctrl
 1258              	.LVL116:
 1259 0276 C17E     		se_lwz %r7,4(%r30)
 1260              	.L90:
 1261              		.loc 1 607 0
 1262 0278 4886     		se_li %r6,8
 1263 027a 54C70050 		e_stw %r6,80(%r7)
 1264 027e C17E     		se_lwz %r7,4(%r30)
 1265 0280 79FFFE56 		e_b .L89
 1266              	.L113:
 1267              		.loc 1 614 0
 1268 0284 50C70058 		e_lwz %r6,88(%r7)
 1269 0288 67D6     		se_btsti %r6,29
 1270 028a 7A12FE62 		e_beq %cr0,.L91
 1271              		.loc 1 616 0
 1272 028e CB65     		se_lwz %r6,44(%r5)
 1273 0290 2A06     		se_cmpi %r6,0
 1274 0292 7A12000A 		e_beq %cr0,.L92
 1275              		.loc 1 618 0
 1276 0296 00B6     		se_mtctr %r6
 1277 0298 0007     		se_bctrl
 1278              	.LVL117:
 1279 029a C17E     		se_lwz %r7,4(%r30)
 1280              	.L92:
 1281              		.loc 1 621 0
 1282 029c 4846     		se_li %r6,4
 1283 029e 54C70050 		e_stw %r6,80(%r7)
 1284 02a2 C17E     		se_lwz %r7,4(%r30)
 1285 02a4 79FFFE48 		e_b .L91
 1286              	.L116:
 1287              		.loc 1 661 0
 1288 02a8 50C70058 		e_lwz %r6,88(%r7)
 1289 02ac 7CC32839 		and. %r3,%r6,%r5
 1290 02b0 7A12FE82 		e_beq %cr0,.L97
 1291              		.loc 1 663 0
 1292 02b4 50C40054 		e_lwz %r6,84(%r4)
 1293 02b8 2A06     		se_cmpi %r6,0
 1294 02ba 7A12000A 		e_beq %cr0,.L98
 1295              		.loc 1 665 0
 1296 02be 00B6     		se_mtctr %r6
 1297 02c0 0007     		se_bctrl
 1298              	.LVL118:
 1299 02c2 C17E     		se_lwz %r7,4(%r30)
 1300              	.L98:
 1301              		.loc 1 668 0
 1302 02c4 6386     		se_bgeni %r6,24
 1303 02c6 54C70050 		e_stw %r6,80(%r7)
 1304 02ca C17E     		se_lwz %r7,4(%r30)
 1305 02cc 79FFFE66 		e_b .L97
 1306              	.L115:
 1307              		.loc 1 642 0
 1308 02d0 50C70058 		e_lwz %r6,88(%r7)
 1309 02d4 67F6     		se_btsti %r6,31
 1310 02d6 7A12FE42 		e_beq %cr0,.L95
 1311              		.loc 1 644 0
GAS LISTING C:\Users\bayra\AppData\Local\Temp\cc6ZYDYB.s 			page 24


 1312 02da C765     		se_lwz %r6,28(%r5)
 1313 02dc 2A06     		se_cmpi %r6,0
 1314 02de 7A12004C 		e_beq %cr0,.L96
 1315              		.loc 1 647 0
 1316 02e2 18C18008 		e_addi %r6,%r1,8
 1317              		.loc 1 645 0
 1318 02e6 53E700A4 		e_lwz %r31,164(%r7)
 1319              		.loc 1 649 0
 1320 02ea 1BA68058 		e_addi %r29,%r6,88
 1321              		.loc 1 647 0
 1322 02ee 01E3     		se_mr %r3,%r30
 1323              		.loc 1 645 0
 1324 02f0 77FFC6BF 		e_rlwinm %r31,%r31,24,26,31
 1325              	.LVL119:
 1326              		.loc 1 647 0
 1327 02f4 708000FD 		e_li %r4,253
 1328 02f8 01F5     		se_mr %r5,%r31
 1329 02fa 78000001 		e_bl can_lld_readBuffer
 1330              	.LVL120:
 1331              		.loc 1 649 0
 1332 02fe 4D05     		se_li %r5,80
 1333 0300 18818008 		e_addi %r4,%r1,8
 1334 0304 01D3     		se_mr %r3,%r29
 1335 0306 78000001 		e_bl memcpy
 1336              	.LVL121:
 1337 030a C07E     		se_lwz %r7,0(%r30)
 1338 030c 01F3     		se_mr %r3,%r31
 1339 030e C777     		se_lwz %r7,28(%r7)
 1340 0310 01D4     		se_mr %r4,%r29
 1341 0312 00B7     		se_mtctr %r7
 1342 0314 0007     		se_bctrl
 1343              	.LVL122:
 1344              		.loc 1 651 0
 1345 0316 C17E     		se_lwz %r7,4(%r30)
 1346 0318 50A700A4 		e_lwz %r5,164(%r7)
 1347 031c 50C700A8 		e_lwz %r6,168(%r7)
 1348 0320 74A6C6BE 		e_rlwimi %r6,%r5,24,26,31
 1349 0324 54C700A8 		e_stw %r6,168(%r7)
 1350 0328 C17E     		se_lwz %r7,4(%r30)
 1351              	.LVL123:
 1352              	.L96:
 1353              		.loc 1 654 0
 1354 032a 4816     		se_li %r6,1
 1355 032c 54C70050 		e_stw %r6,80(%r7)
 1356 0330 C17E     		se_lwz %r7,4(%r30)
 1357 0332 79FFFDE6 		e_b .L95
 1358              	.L117:
 1359              		.loc 1 675 0
 1360 0336 50C70058 		e_lwz %r6,88(%r7)
 1361 033a 7CC32839 		and. %r3,%r6,%r5
 1362 033e 7A12FE0E 		e_beq %cr0,.L99
 1363              		.loc 1 677 0
 1364 0342 50C4004C 		e_lwz %r6,76(%r4)
 1365 0346 2A06     		se_cmpi %r6,0
 1366 0348 7A12000A 		e_beq %cr0,.L100
 1367              		.loc 1 679 0
 1368 034c 00B6     		se_mtctr %r6
GAS LISTING C:\Users\bayra\AppData\Local\Temp\cc6ZYDYB.s 			page 25


 1369 034e 0007     		se_bctrl
 1370              	.LVL124:
 1371 0350 C17E     		se_lwz %r7,4(%r30)
 1372              	.L100:
 1373              		.loc 1 682 0
 1374 0352 4C06     		se_li %r6,64
 1375 0354 54C70050 		e_stw %r6,80(%r7)
 1376 0358 C17E     		se_lwz %r7,4(%r30)
 1377 035a 79FFFDF2 		e_b .L99
 1378              	.LVL125:
 1379              	.L110:
 1380              		.loc 1 582 0
 1381 035e 18C18008 		e_addi %r6,%r1,8
 1382 0362 01E3     		se_mr %r3,%r30
 1383              	.LVL126:
 1384              		.loc 1 584 0
 1385 0364 1BA68058 		e_addi %r29,%r6,88
 1386              		.loc 1 582 0
 1387 0368 01F5     		se_mr %r5,%r31
 1388 036a 708000FC 		e_li %r4,252
 1389 036e 78000001 		e_bl can_lld_readBuffer
 1390              	.LVL127:
 1391              		.loc 1 584 0
 1392 0372 18818008 		e_addi %r4,%r1,8
 1393 0376 01D3     		se_mr %r3,%r29
 1394 0378 4D05     		se_li %r5,80
 1395 037a 78000001 		e_bl memcpy
 1396              	.LVL128:
 1397 037e C07E     		se_lwz %r7,0(%r30)
 1398 0380 01D4     		se_mr %r4,%r29
 1399 0382 C577     		se_lwz %r7,20(%r7)
 1400 0384 01F3     		se_mr %r3,%r31
 1401 0386 00B7     		se_mtctr %r7
 1402 0388 1BBF84E0 		e_addi %r29,%r31,-32
 1403 038c 0007     		se_bctrl
 1404              	.LVL129:
 1405              		.loc 1 586 0
 1406 038e 23EF     		se_cmpli %r31,31
 1407 0390 7A11FD1C 		e_bgt %cr0,.L106
 1408 0394 4817     		se_li %r7,1
 1409 0396 42C7     		se_slw %r7, %r28
 1410 0398 78000034 		e_b .L105
 1411              	.LVL130:
 1412              	.L109:
 1413              		.loc 1 582 0
 1414 039c 18C18008 		e_addi %r6,%r1,8
 1415 03a0 01E3     		se_mr %r3,%r30
 1416              	.LVL131:
 1417              		.loc 1 584 0
 1418 03a2 1BA68058 		e_addi %r29,%r6,88
 1419              		.loc 1 582 0
 1420 03a6 01F5     		se_mr %r5,%r31
 1421 03a8 708000FC 		e_li %r4,252
 1422 03ac 78000001 		e_bl can_lld_readBuffer
 1423              	.LVL132:
 1424              		.loc 1 584 0
 1425 03b0 18818008 		e_addi %r4,%r1,8
GAS LISTING C:\Users\bayra\AppData\Local\Temp\cc6ZYDYB.s 			page 26


 1426 03b4 4D05     		se_li %r5,80
 1427 03b6 01D3     		se_mr %r3,%r29
 1428 03b8 78000001 		e_bl memcpy
 1429              	.LVL133:
 1430 03bc C07E     		se_lwz %r7,0(%r30)
 1431 03be 01F3     		se_mr %r3,%r31
 1432 03c0 C577     		se_lwz %r7,20(%r7)
 1433 03c2 01D4     		se_mr %r4,%r29
 1434 03c4 00B7     		se_mtctr %r7
 1435 03c6 0007     		se_bctrl
 1436              	.LVL134:
 1437 03c8 4817     		se_li %r7,1
 1438 03ca 42F7     		se_slw %r7, %r31
 1439              	.LVL135:
 1440              	.L105:
 1441              		.loc 1 587 0
 1442 03cc C16E     		se_lwz %r6,4(%r30)
 1443 03ce 54E60098 		e_stw %r7,152(%r6)
 1444              		.loc 1 593 0
 1445 03d2 62C6     		se_bgeni %r6,12
 1446 03d4 C17E     		se_lwz %r7,4(%r30)
 1447 03d6 54C70050 		e_stw %r6,80(%r7)
 1448 03da C17E     		se_lwz %r7,4(%r30)
 1449 03dc 79FFFCE4 		e_b .L80
 1450              	.LVL136:
 1451              	.L82:
 1452              		.loc 1 582 0
 1453 03e0 18C18008 		e_addi %r6,%r1,8
 1454 03e4 708000FC 		e_li %r4,252
 1455              		.loc 1 584 0
 1456 03e8 1BE68058 		e_addi %r31,%r6,88
 1457              		.loc 1 582 0
 1458 03ec 4805     		se_li %r5,0
 1459 03ee 78000001 		e_bl can_lld_readBuffer
 1460              	.LVL137:
 1461              		.loc 1 584 0
 1462 03f2 18818008 		e_addi %r4,%r1,8
 1463 03f6 4D05     		se_li %r5,80
 1464 03f8 01F3     		se_mr %r3,%r31
 1465 03fa 78000001 		e_bl memcpy
 1466              	.LVL138:
 1467 03fe C07E     		se_lwz %r7,0(%r30)
 1468 0400 4803     		se_li %r3,0
 1469 0402 C577     		se_lwz %r7,20(%r7)
 1470 0404 01F4     		se_mr %r4,%r31
 1471 0406 00B7     		se_mtctr %r7
 1472 0408 0007     		se_bctrl
 1473              	.LVL139:
 1474 040a 4817     		se_li %r7,1
 1475 040c 79FFFFC0 		e_b .L105
 1476              		.cfi_endproc
 1477              	.LFE8:
 1478              		.size	can_lld_l1_handler, .-can_lld_l1_handler
 1479              		.section	.text.can_lld_getDLC,"axv",@progbits
 1480              		.align 1
 1481              		.p2align 4,,15
 1482              		.globl can_lld_getDLC
GAS LISTING C:\Users\bayra\AppData\Local\Temp\cc6ZYDYB.s 			page 27


 1483              		.type	can_lld_getDLC, @function
 1484              	can_lld_getDLC:
 1485              	.LFB6:
 1486              		.loc 1 339 0
 1487              		.cfi_startproc
 1488              	.LVL140:
 1489 0000 0137     		se_mr %r7,%r3
 1490              		.loc 1 340 0
 1491 0002 2273     		se_cmpli %r3,8
 1492 0004 7A010042 		e_ble %cr0,.L121
 1493              		.loc 1 344 0
 1494 0008 4893     		se_li %r3,9
 1495              	.LVL141:
 1496              		.loc 1 343 0
 1497 000a 22B7     		se_cmpli %r7,12
 1498 000c 7A12003A 		e_beq %cr0,.L121
 1499              		.loc 1 347 0
 1500 0010 48A3     		se_li %r3,10
 1501              		.loc 1 346 0
 1502 0012 22F7     		se_cmpli %r7,16
 1503 0014 7A120032 		e_beq %cr0,.L121
 1504              		.loc 1 350 0
 1505 0018 48B3     		se_li %r3,11
 1506              		.loc 1 349 0
 1507 001a 2337     		se_cmpli %r7,20
 1508 001c 7A12002A 		e_beq %cr0,.L121
 1509              		.loc 1 353 0
 1510 0020 48C3     		se_li %r3,12
 1511              		.loc 1 352 0
 1512 0022 2377     		se_cmpli %r7,24
 1513 0024 7A120022 		e_beq %cr0,.L121
 1514              		.loc 1 356 0
 1515 0028 48D3     		se_li %r3,13
 1516              		.loc 1 355 0
 1517 002a 23F7     		se_cmpli %r7,32
 1518 002c 7A12001A 		e_beq %cr0,.L121
 1519              	.LVL142:
 1520              	.LBB6:
 1521              	.LBB7:
 1522              		.loc 1 359 0
 1523 0030 48E3     		se_li %r3,14
 1524              		.loc 1 358 0
 1525 0032 7007A830 		e_cmpl16i %r7,48
 1526 0036 7A120010 		e_beq %cr0,.L121
 1527              		.loc 1 361 0
 1528 003a 7007A840 		e_cmpl16i %r7,64
 1529              		.loc 1 365 0
 1530 003e 48F6     		se_li %r6,15
 1531 0040 4807     		se_li %r7,0
 1532              	.LVL143:
 1533 0042 7C66389E 		isel %r3,%r6,%r7,2
 1534              	.L121:
 1535              	.LBE7:
 1536              	.LBE6:
 1537              		.loc 1 367 0
 1538 0046 0004     		se_blr
 1539              		.cfi_endproc
GAS LISTING C:\Users\bayra\AppData\Local\Temp\cc6ZYDYB.s 			page 28


 1540              	.LFE6:
 1541              		.size	can_lld_getDLC, .-can_lld_getDLC
 1542              		.section	.text.can_lld_writeTxBuffer,"axv",@progbits
 1543              		.align 1
 1544              		.p2align 4,,15
 1545              		.globl can_lld_writeTxBuffer
 1546              		.type	can_lld_writeTxBuffer, @function
 1547              	can_lld_writeTxBuffer:
 1548              	.LFB4:
 1549              		.loc 1 241 0
 1550              		.cfi_startproc
 1551              	.LVL144:
 1552 0000 182106E8 		e_stwu %r1,-24(%r1)
 1553              	.LCFI11:
 1554              		.cfi_def_cfa_offset 24
 1555 0004 0080     		se_mflr %r0
 1556 0006 1BA1090C 		e_stmw %r29,12(%r1)
 1557 000a D701     		se_stw %r0,28(%r1)
 1558              		.cfi_offset 65, 4
 1559              		.cfi_offset 29, -12
 1560              		.cfi_offset 30, -8
 1561              		.cfi_offset 31, -4
 1562              		.loc 1 241 0
 1563 000c 015F     		se_mr %r31,%r5
 1564              		.loc 1 250 0
 1565 000e 8C73     		se_lbz %r7,12(%r3)
 1566              		.loc 1 241 0
 1567 0010 013D     		se_mr %r29,%r3
 1568              		.loc 1 254 0
 1569 0012 7C852070 		e_slwi %r5,%r4,4
 1570              	.LVL145:
 1571              		.loc 1 250 0
 1572 0016 70079840 		e_cmp16i %r7,64
 1573 001a 7A1200A4 		e_beq %cr0,.L145
 1574              	.LVL146:
 1575              		.loc 1 259 0
 1576 001e 826F     		se_lbz %r6,2(%r31)
 1577              		.loc 1 256 0
 1578 0020 C17D     		se_lwz %r7,4(%r29)
 1579 0022 C24D     		se_lwz %r4,8(%r29)
 1580              	.LVL147:
 1581 0024 50E700C0 		e_lwz %r7,192(%r7)
 1582              		.loc 1 259 0
 1583 0028 2A16     		se_cmpi %r6,1
 1584              		.loc 1 256 0
 1585 002a 74E7043B 		e_rlwinm %r7,%r7,0,16,29
 1586              		.loc 1 260 0
 1587 002e C16F     		se_lwz %r6,4(%r31)
 1588              		.loc 1 256 0
 1589 0030 0447     		se_add %r7,%r4
 1590 0032 7FC72A14 		add %r30,%r7,%r5
 1591              	.LVL148:
 1592              		.loc 1 259 0
 1593 0036 7A1200B0 		e_beq %cr0,.L146
 1594              	.L133:
 1595              	.LVL149:
 1596              		.loc 1 263 0
GAS LISTING C:\Users\bayra\AppData\Local\Temp\cc6ZYDYB.s 			page 29


 1597 003a 6D26     		se_slwi %r6, 18
 1598 003c 7CC7292E 		stwx %r6,%r7,%r5
 1599              		.loc 1 267 0
 1600 0040 883F     		se_lbz %r3,8(%r31)
 1601              	.LVL150:
 1602 0042 78000001 		e_bl can_lld_getDLC
 1603              	.LVL151:
 1604              		.loc 1 268 0
 1605 0046 6D03     		se_slwi %r3, 16
 1606              	.LVL152:
 1607              		.loc 1 269 0
 1608 0048 D13E     		se_stw %r3,4(%r30)
 1609              		.loc 1 272 0
 1610 004a 807F     		se_lbz %r7,0(%r31)
 1611 004c 2A17     		se_cmpi %r7,1
 1612 004e 7A1200B0 		e_beq %cr0,.L147
 1613              	.LVL153:
 1614              	.L136:
 1615              		.loc 1 281 0
 1616 0052 886F     		se_lbz %r6,8(%r31)
 1617              		.loc 1 280 0
 1618 0054 18FE8008 		e_addi %r7,%r30,8
 1619              	.LVL154:
 1620              		.loc 1 281 0
 1621 0058 18C5C003 		e_andi %r5,%r6,3
 1622 005c 2A05     		se_cmpi %r5,0
 1623 005e 7A020056 		e_bne %cr0,.L138
 1624              	.LVL155:
 1625              		.loc 1 287 0
 1626 0062 7CC51471 		e_srwi. %r5,%r6,2
 1627 0066 7A120042 		e_beq %cr0,.L130
 1628              	.LVL156:
 1629              	.L139:
 1630 006a 18C584FF 		e_addi %r6,%r5,-1
 1631 006e 20BE     		se_addi %r30,12
 1632 0070 74C315BB 		e_rlwinm %r3,%r6,2,22,29
 1633              	.LVL157:
 1634 0074 517D0000 		e_lwz %r11,0(%r29)
 1635 0078 18BF8008 		e_addi %r5,%r31,8
 1636              	.LVL158:
 1637 007c 7C7E1A14 		add %r3,%r30,%r3
 1638 0080 7800000E 		e_b .L143
 1639              	.LVL159:
 1640              	.L148:
 1641              		.loc 1 291 0
 1642 0084 D047     		se_stw %r4,0(%r7)
 1643              		.loc 1 295 0
 1644 0086 2037     		se_addi %r7,4
 1645              	.LVL160:
 1646              		.loc 1 287 0
 1647 0088 0D37     		se_cmpl %r7,%r3
 1648 008a 7A12001E 		e_beq %cr0,.L130
 1649              	.LVL161:
 1650              	.L143:
 1651              		.loc 1 290 0
 1652 008e 30CB0001 		e_lbz %r6,1(%r11)
 1653              		.loc 1 288 0
GAS LISTING C:\Users\bayra\AppData\Local\Temp\cc6ZYDYB.s 			page 30


 1654 0092 18850204 		e_lwzu %r4,4(%r5)
 1655              	.LVL162:
 1656              		.loc 1 290 0
 1657 0096 2A06     		se_cmpi %r6,0
 1658 0098 7A12FFEC 		e_beq %cr0,.L148
 1659              		.loc 1 293 0
 1660 009c 7C803D2C 		stwbrx %r4,0,%r7
 1661              		.loc 1 295 0
 1662 00a0 2037     		se_addi %r7,4
 1663              	.LVL163:
 1664              		.loc 1 287 0
 1665 00a2 0D37     		se_cmpl %r7,%r3
 1666 00a4 7A02FFEA 		e_bne %cr0,.L143
 1667              	.LVL164:
 1668              	.L130:
 1669              		.loc 1 300 0
 1670 00a8 C701     		se_lwz %r0,28(%r1)
 1671 00aa 0090     		se_mtlr %r0
 1672              		.cfi_remember_state
 1673              		.cfi_restore 65
 1674 00ac 1BA1080C 		e_lmw %r29,12(%r1)
 1675              	.LVL165:
 1676 00b0 2171     		se_addi %r1,24
 1677              	.LCFI12:
 1678              		.cfi_restore 31
 1679              		.cfi_restore 30
 1680              		.cfi_restore 29
 1681              		.cfi_def_cfa_offset 0
 1682 00b2 0004     		se_blr
 1683              	.LVL166:
 1684              	.L138:
 1685              	.LCFI13:
 1686              		.cfi_restore_state
 1687              		.loc 1 285 0
 1688 00b4 6826     		se_srwi %r6,2
 1689 00b6 18A68001 		e_addi %r5,%r6,1
 1690              	.LVL167:
 1691 00ba 79FFFFB0 		e_b .L139
 1692              	.LVL168:
 1693              	.L145:
 1694              		.loc 1 251 0
 1695 00be 7C871870 		e_slwi %r7,%r4,3
 1696 00c2 7C853070 		e_slwi %r5,%r4,6
 1697              		.loc 1 259 0
 1698 00c6 826F     		se_lbz %r6,2(%r31)
 1699              		.loc 1 251 0
 1700 00c8 7CA72A14 		add %r5,%r7,%r5
 1701              	.LVL169:
 1702              		.loc 1 256 0
 1703 00cc C24D     		se_lwz %r4,8(%r29)
 1704              	.LVL170:
 1705 00ce C17D     		se_lwz %r7,4(%r29)
 1706              		.loc 1 259 0
 1707 00d0 2A16     		se_cmpi %r6,1
 1708              		.loc 1 256 0
 1709 00d2 50E700C0 		e_lwz %r7,192(%r7)
 1710              		.loc 1 260 0
GAS LISTING C:\Users\bayra\AppData\Local\Temp\cc6ZYDYB.s 			page 31


 1711 00d6 C16F     		se_lwz %r6,4(%r31)
 1712              		.loc 1 256 0
 1713 00d8 74E7043B 		e_rlwinm %r7,%r7,0,16,29
 1714 00dc 0447     		se_add %r7,%r4
 1715 00de 7FC72A14 		add %r30,%r7,%r5
 1716              	.LVL171:
 1717              		.loc 1 259 0
 1718 00e2 7A02FF58 		e_bne %cr0,.L133
 1719              	.L146:
 1720              		.loc 1 260 0
 1721 00e6 6416     		se_bseti %r6,1
 1722 00e8 7CC7292E 		stwx %r6,%r7,%r5
 1723              	.LVL172:
 1724              		.loc 1 267 0
 1725 00ec 883F     		se_lbz %r3,8(%r31)
 1726              	.LVL173:
 1727 00ee 78000001 		e_bl can_lld_getDLC
 1728              	.LVL174:
 1729              		.loc 1 268 0
 1730 00f2 6D03     		se_slwi %r3, 16
 1731              	.LVL175:
 1732              		.loc 1 269 0
 1733 00f4 D13E     		se_stw %r3,4(%r30)
 1734              		.loc 1 272 0
 1735 00f6 807F     		se_lbz %r7,0(%r31)
 1736 00f8 2A17     		se_cmpi %r7,1
 1737 00fa 7A02FF58 		e_bne %cr0,.L136
 1738              	.LVL176:
 1739              	.L147:
 1740              		.loc 1 273 0
 1741 00fe C17E     		se_lwz %r7,4(%r30)
 1742              		.loc 1 274 0
 1743 0100 C06D     		se_lwz %r6,0(%r29)
 1744              		.loc 1 273 0
 1745 0102 64A7     		se_bseti %r7,10
 1746 0104 D17E     		se_stw %r7,4(%r30)
 1747              		.loc 1 274 0
 1748 0106 8976     		se_lbz %r7,9(%r6)
 1749 0108 2A17     		se_cmpi %r7,1
 1750 010a 7A02FF48 		e_bne %cr0,.L136
 1751              		.loc 1 275 0
 1752 010e C17E     		se_lwz %r7,4(%r30)
 1753 0110 64B7     		se_bseti %r7,11
 1754 0112 D17E     		se_stw %r7,4(%r30)
 1755 0114 79FFFF3E 		e_b .L136
 1756              		.cfi_endproc
 1757              	.LFE4:
 1758              		.size	can_lld_writeTxBuffer, .-can_lld_writeTxBuffer
 1759              		.section	.text.vector688,"axv",@progbits
 1760              		.align 1
 1761              		.p2align 4,,15
 1762              		.globl vector688
 1763              		.type	vector688, @function
 1764              	vector688:
 1765              	.LFB9:
 1766              		.loc 1 756 0
 1767              		.cfi_startproc
GAS LISTING C:\Users\bayra\AppData\Local\Temp\cc6ZYDYB.s 			page 32


 1768              		.loc 1 760 0
 1769 0000 7060E000 		e_lis %r3,.LANCHOR0@ha
 1770              		.loc 1 763 0
 1771              		.loc 1 760 0
 1772 0004 1C630000 		e_la %r3,.LANCHOR0@l(%r3)
 1773 0008 78000000 		e_b can_lld_l0_handler
 1774              	.LVL177:
 1775              		.cfi_endproc
 1776              	.LFE9:
 1777              		.size	vector688, .-vector688
 1778              		.section	.text.vector689,"axv",@progbits
 1779              		.align 1
 1780              		.p2align 4,,15
 1781              		.globl vector689
 1782              		.type	vector689, @function
 1783              	vector689:
 1784              	.LFB10:
 1785              		.loc 1 770 0
 1786              		.cfi_startproc
 1787              		.loc 1 774 0
 1788 0000 7060E000 		e_lis %r3,.LANCHOR0@ha
 1789              		.loc 1 777 0
 1790              		.loc 1 774 0
 1791 0004 1C630000 		e_la %r3,.LANCHOR0@l(%r3)
 1792 0008 78000000 		e_b can_lld_l1_handler
 1793              	.LVL178:
 1794              		.cfi_endproc
 1795              	.LFE10:
 1796              		.size	vector689, .-vector689
 1797              		.section	.text.vector694,"axv",@progbits
 1798              		.align 1
 1799              		.p2align 4,,15
 1800              		.globl vector694
 1801              		.type	vector694, @function
 1802              	vector694:
 1803              	.LFB11:
 1804              		.loc 1 906 0
 1805              		.cfi_startproc
 1806              		.loc 1 910 0
 1807 0000 7060E000 		e_lis %r3,.LANCHOR1@ha
 1808              		.loc 1 913 0
 1809              		.loc 1 910 0
 1810 0004 1C630000 		e_la %r3,.LANCHOR1@l(%r3)
 1811 0008 78000000 		e_b can_lld_l0_handler
 1812              	.LVL179:
 1813              		.cfi_endproc
 1814              	.LFE11:
 1815              		.size	vector694, .-vector694
 1816              		.section	.text.vector695,"axv",@progbits
 1817              		.align 1
 1818              		.p2align 4,,15
 1819              		.globl vector695
 1820              		.type	vector695, @function
 1821              	vector695:
 1822              	.LFB12:
 1823              		.loc 1 920 0
 1824              		.cfi_startproc
GAS LISTING C:\Users\bayra\AppData\Local\Temp\cc6ZYDYB.s 			page 33


 1825              		.loc 1 924 0
 1826 0000 7060E000 		e_lis %r3,.LANCHOR1@ha
 1827              		.loc 1 927 0
 1828              		.loc 1 924 0
 1829 0004 1C630000 		e_la %r3,.LANCHOR1@l(%r3)
 1830 0008 78000000 		e_b can_lld_l1_handler
 1831              	.LVL180:
 1832              		.cfi_endproc
 1833              	.LFE12:
 1834              		.size	vector695, .-vector695
 1835              		.section	.text.can_lld_init,"axv",@progbits
 1836              		.align 1
 1837              		.p2align 4,,15
 1838              		.globl can_lld_init
 1839              		.type	can_lld_init, @function
 1840              	can_lld_init:
 1841              	.LFB13:
 1842              		.loc 1 1328 0
 1843              		.cfi_startproc
 1844 0000 182106F8 		e_stwu %r1,-8(%r1)
 1845              	.LCFI14:
 1846              		.cfi_def_cfa_offset 8
 1847              		.loc 1 1351 0
 1848 0004 70E4000A 		e_li %r7,8202
 1849              		.loc 1 1349 0
 1850 0008 4804     		se_li %r4,0
 1851              		.loc 1 1328 0
 1852 000a 0080     		se_mflr %r0
 1853              		.loc 1 1349 0
 1854 000c 70C0E000 		e_lis %r6,.LANCHOR0@ha
 1855              		.loc 1 1328 0
 1856 0010 D301     		se_stw %r0,12(%r1)
 1857              		.cfi_offset 65, 4
 1858              		.loc 1 1349 0
 1859 0012 54860000 		e_stw %r4,.LANCHOR0@l(%r6)
 1860              		.loc 1 1351 0
 1861 0016 70BEE404 		e_lis %r5,0xf404
 1862              		.loc 1 1349 0
 1863 001a 1CC60000 		e_la %r6,.LANCHOR0@l(%r6)
 1864              		.loc 1 1351 0
 1865 001e 70A8C5C0 		e_or2i %r5,17856
 1866              		.loc 1 1352 0
 1867 0022 707EE404 		e_lis %r3,0xf404
 1868              		.loc 1 1351 0
 1869 0026 B075     		se_sth %r7,0(%r5)
 1870              		.loc 1 1352 0
 1871 0028 7068C5C2 		e_or2i %r3,17858
 1872              		.loc 1 1385 0
 1873 002c 70A0E000 		e_lis %r5,.LANCHOR1@ha
 1874              		.loc 1 1352 0
 1875 0030 B073     		se_sth %r7,0(%r3)
 1876              		.loc 1 1385 0
 1877 0032 54850000 		e_stw %r4,.LANCHOR1@l(%r5)
 1878 0036 1C650000 		e_la %r3,.LANCHOR1@l(%r5)
 1879              		.loc 1 1490 0
 1880 003a 4924     		se_li %r4,18
 1881              		.loc 1 1387 0
GAS LISTING C:\Users\bayra\AppData\Local\Temp\cc6ZYDYB.s 			page 34


 1882 003c 70BEE404 		e_lis %r5,0xf404
 1883 0040 70A8C5CC 		e_or2i %r5,17868
 1884 0044 B075     		se_sth %r7,0(%r5)
 1885              		.loc 1 1350 0
 1886 0046 70BEE7EE 		e_lis %r5,0xf7ee
 1887 004a 6505     		se_bseti %r5,16
 1888 004c D156     		se_stw %r5,4(%r6)
 1889              		.loc 1 1386 0
 1890 004e 70DFE3EE 		e_lis %r6,0xfbee
 1891 0052 6516     		se_bseti %r6,17
 1892 0054 D163     		se_stw %r6,4(%r3)
 1893              		.loc 1 1388 0
 1894 0056 70DEE404 		e_lis %r6,0xf404
 1895              		.loc 1 1490 0
 1896 005a 4CA3     		se_li %r3,74
 1897              		.loc 1 1388 0
 1898 005c 70C8C5CE 		e_or2i %r6,17870
 1899 0060 B076     		se_sth %r7,0(%r6)
 1900              		.loc 1 1490 0
 1901 0062 78000001 		e_bl SPCSetPeripheralClockMode
 1902              	.LVL181:
 1903 0066 70FEE7ED 		e_lis %r7,0xf7ed
 1904              		.loc 1 1491 0
 1905 006a 70A10780 		e_li %r5,3968
 1906              		.loc 1 1493 0
 1907 006e 4806     		se_li %r6,0
 1908              		.loc 1 1490 0
 1909 0070 6517     		se_bseti %r7,17
 1910              		.loc 1 1491 0
 1911 0072 00B5     		se_mtctr %r5
 1912              	.LVL182:
 1913              	.L154:
 1914              		.loc 1 1493 0 discriminator 3
 1915 0074 D067     		se_stw %r6,0(%r7)
 1916              	.LVL183:
 1917 0076 2037     		se_addi %r7,4
 1918              	.LVL184:
 1919              		.loc 1 1491 0 discriminator 3
 1920 0078 7A20FFFC 		e_bdnz .L154
 1921              		.loc 1 1504 0
 1922 007c 706000CA 		e_li %r3,202
 1923 0080 4924     		se_li %r4,18
 1924 0082 78000001 		e_bl SPCSetPeripheralClockMode
 1925              	.LVL185:
 1926 0086 70FFE3ED 		e_lis %r7,0xfbed
 1927              		.loc 1 1505 0
 1928 008a 70A10780 		e_li %r5,3968
 1929              		.loc 1 1507 0
 1930 008e 4806     		se_li %r6,0
 1931              		.loc 1 1504 0
 1932 0090 6517     		se_bseti %r7,17
 1933              		.loc 1 1505 0
 1934 0092 00B5     		se_mtctr %r5
 1935              	.LVL186:
 1936              	.L155:
 1937              		.loc 1 1507 0 discriminator 3
 1938 0094 D067     		se_stw %r6,0(%r7)
GAS LISTING C:\Users\bayra\AppData\Local\Temp\cc6ZYDYB.s 			page 35


 1939              	.LVL187:
 1940 0096 2037     		se_addi %r7,4
 1941              	.LVL188:
 1942              		.loc 1 1505 0 discriminator 3
 1943 0098 7A20FFFC 		e_bdnz .L155
 1944              		.loc 1 1539 0
 1945 009c C301     		se_lwz %r0,12(%r1)
 1946 009e 0090     		se_mtlr %r0
 1947              		.cfi_restore 65
 1948 00a0 2071     		se_addi %r1,8
 1949              	.LCFI15:
 1950              		.cfi_def_cfa_offset 0
 1951 00a2 0004     		se_blr
 1952              		.cfi_endproc
 1953              	.LFE13:
 1954              		.size	can_lld_init, .-can_lld_init
 1955              		.section	.text.can_lld_start,"axv",@progbits
 1956              		.align 1
 1957              		.p2align 4,,15
 1958              		.globl can_lld_start
 1959              		.type	can_lld_start, @function
 1960              	can_lld_start:
 1961              	.LFB14:
 1962              		.loc 1 1549 0
 1963              		.cfi_startproc
 1964              	.LVL189:
 1965 0000 182106F0 		e_stwu %r1,-16(%r1)
 1966              	.LCFI16:
 1967              		.cfi_def_cfa_offset 16
 1968 0004 0080     		se_mflr %r0
 1969 0006 1BC10908 		e_stmw %r30,8(%r1)
 1970 000a D501     		se_stw %r0,20(%r1)
 1971              		.cfi_offset 65, 4
 1972              		.cfi_offset 30, -8
 1973              		.cfi_offset 31, -4
 1974              		.loc 1 1571 0
 1975 000c 70E0E000 		e_lis %r7,.LANCHOR0@ha
 1976              		.loc 1 1549 0
 1977 0010 013F     		se_mr %r31,%r3
 1978              		.loc 1 1571 0
 1979 0012 1CE70000 		e_la %r7,.LANCHOR0@l(%r7)
 1980              		.loc 1 1561 0
 1981 0016 D043     		se_stw %r4,0(%r3)
 1982              		.loc 1 1571 0
 1983 0018 0C73     		se_cmp %r3,%r7
 1984 001a 7A12071E 		e_beq %cr0,.L201
 1985              		.loc 1 1615 0
 1986 001e 70E0E000 		e_lis %r7,.LANCHOR1@ha
 1987 0022 1CE70000 		e_la %r7,.LANCHOR1@l(%r7)
 1988 0026 0C73     		se_cmp %r3,%r7
 1989 0028 7A120724 		e_beq %cr0,.L202
 1990              	.LVL190:
 1991              	.L160:
 1992              		.loc 1 1716 0
 1993 002c 4836     		se_li %r6,3
 1994 002e C17F     		se_lwz %r7,4(%r31)
 1995 0030 D667     		se_stw %r6,24(%r7)
GAS LISTING C:\Users\bayra\AppData\Local\Temp\cc6ZYDYB.s 			page 36


 1996 0032 C16F     		se_lwz %r6,4(%r31)
 1997              	.L161:
 1998              		.loc 1 1717 0 discriminator 1
 1999 0034 C676     		se_lwz %r7,24(%r6)
 2000 0036 67F7     		se_btsti %r7,31
 2001 0038 7A12FFFC 		e_beq %cr0,.L161
 2002              		.loc 1 1722 0
 2003 003c 4BE3     		se_li %r3,62
 2004 003e 4924     		se_li %r4,18
 2005 0040 78000001 		e_bl SPCSetPeripheralClockMode
 2006              	.LVL191:
 2007              		.loc 1 1724 0
 2008 0044 70DEE7F0 		e_lis %r6,0xf7f0
 2009 0048 6516     		se_bseti %r6,17
 2010 004a C176     		se_lwz %r7,4(%r6)
 2011 004c 7007AC44 		e_cmpl16i %r7,1092
 2012 0050 7A12000A 		e_beq %cr0,.L162
 2013              		.loc 1 1725 0
 2014 0054 70E00444 		e_li %r7,1092
 2015 0058 D176     		se_stw %r7,4(%r6)
 2016              	.L162:
 2017              		.loc 1 1727 0
 2018 005a 4BE3     		se_li %r3,62
 2019 005c 4804     		se_li %r4,0
 2020 005e 78000001 		e_bl SPCSetPeripheralClockMode
 2021              	.LVL192:
 2022              		.loc 1 1745 0
 2023 0062 C07F     		se_lwz %r7,0(%r31)
 2024 0064 8067     		se_lbz %r6,0(%r7)
 2025 0066 2A06     		se_cmpi %r6,0
 2026 0068 7A120024 		e_beq %cr0,.L163
 2027              		.loc 1 1746 0
 2028 006c C17F     		se_lwz %r7,4(%r31)
 2029 006e 4815     		se_li %r5,1
 2030 0070 C667     		se_lwz %r6,24(%r7)
 2031 0072 74A63E30 		e_rlwimi %r6,%r5,7,24,24
 2032 0076 D667     		se_stw %r6,24(%r7)
 2033              		.loc 1 1747 0
 2034 0078 C17F     		se_lwz %r7,4(%r31)
 2035 007a C467     		se_lwz %r6,16(%r7)
 2036 007c 74A626F6 		e_rlwimi %r6,%r5,4,27,27
 2037 0080 D467     		se_stw %r6,16(%r7)
 2038              		.loc 1 1748 0
 2039 0082 C07F     		se_lwz %r7,0(%r31)
 2040 0084 8067     		se_lbz %r6,0(%r7)
 2041 0086 2A16     		se_cmpi %r6,1
 2042 0088 7A12064C 		e_beq %cr0,.L203
 2043              	.L163:
 2044              		.loc 1 1772 0
 2045 008c C16F     		se_lwz %r6,4(%r31)
 2046 008e 8257     		se_lbz %r5,2(%r7)
 2047 0090 C776     		se_lwz %r7,28(%r6)
 2048 0092 74A7C80C 		e_rlwimi %r7,%r5,25,0,6
 2049 0096 D776     		se_stw %r7,28(%r6)
 2050              		.loc 1 1773 0
 2051 0098 C06F     		se_lwz %r6,0(%r31)
 2052 009a C17F     		se_lwz %r7,4(%r31)
GAS LISTING C:\Users\bayra\AppData\Local\Temp\cc6ZYDYB.s 			page 37


 2053 009c 8366     		se_lbz %r6,3(%r6)
 2054 009e 34C7001E 		e_stb %r6,30(%r7)
 2055              		.loc 1 1774 0
 2056 00a2 C17F     		se_lwz %r7,4(%r31)
 2057 00a4 C05F     		se_lwz %r5,0(%r31)
 2058 00a6 C767     		se_lwz %r6,28(%r7)
 2059 00a8 8455     		se_lbz %r5,4(%r5)
 2060 00aa 74A6067E 		e_rlwimi %r6,%r5,0,25,31
 2061 00ae D767     		se_stw %r6,28(%r7)
 2062              		.loc 1 1775 0
 2063 00b0 C16F     		se_lwz %r6,4(%r31)
 2064 00b2 C07F     		se_lwz %r7,0(%r31)
 2065 00b4 C756     		se_lwz %r5,28(%r6)
 2066 00b6 A377     		se_lhz %r7,6(%r7)
 2067 00b8 18E784FF 		e_addi %r7,%r7,-1
 2068 00bc 74E581DE 		e_rlwimi %r5,%r7,16,7,15
 2069 00c0 D756     		se_stw %r5,28(%r6)
 2070              		.loc 1 1778 0
 2071 00c2 C07F     		se_lwz %r7,0(%r31)
 2072              		.loc 1 1779 0
 2073 00c4 C16F     		se_lwz %r6,4(%r31)
 2074              		.loc 1 1778 0
 2075 00c6 8877     		se_lbz %r7,8(%r7)
 2076 00c8 2A17     		se_cmpi %r7,1
 2077 00ca 7A1204F8 		e_beq %cr0,.L204
 2078              		.loc 1 1818 0
 2079 00ce 4807     		se_li %r7,0
 2080              		.loc 1 1817 0
 2081 00d0 4885     		se_li %r5,8
 2082              	.L200:
 2083 00d2 9C5F     		se_stb %r5,12(%r31)
 2084              		.loc 1 1825 0
 2085 00d4 4803     		se_li %r3,0
 2086              		.loc 1 1818 0
 2087 00d6 50A600BC 		e_lwz %r5,188(%r6)
 2088 00da 74E5077E 		e_rlwimi %r5,%r7,0,29,31
 2089 00de 54A600BC 		e_stw %r5,188(%r6)
 2090              		.loc 1 1819 0
 2091 00e2 C16F     		se_lwz %r6,4(%r31)
 2092 00e4 50A600BC 		e_lwz %r5,188(%r6)
 2093 00e8 74E52676 		e_rlwimi %r5,%r7,4,25,27
 2094 00ec 54A600BC 		e_stw %r5,188(%r6)
 2095              		.loc 1 1820 0
 2096 00f0 C16F     		se_lwz %r6,4(%r31)
 2097 00f2 50A600BC 		e_lwz %r5,188(%r6)
 2098 00f6 74E5456E 		e_rlwimi %r5,%r7,8,21,23
 2099 00fa 54A600BC 		e_stw %r5,188(%r6)
 2100              		.loc 1 1821 0
 2101 00fe C16F     		se_lwz %r6,4(%r31)
 2102 0100 50A600C8 		e_lwz %r5,200(%r6)
 2103 0104 74E5077E 		e_rlwimi %r5,%r7,0,29,31
 2104 0108 54A600C8 		e_stw %r5,200(%r6)
 2105              		.loc 1 1825 0
 2106 010c C17F     		se_lwz %r7,4(%r31)
 2107 010e 50C70080 		e_lwz %r6,128(%r7)
 2108 0112 746626B6 		e_rlwimi %r6,%r3,4,26,27
 2109 0116 54C70080 		e_stw %r6,128(%r7)
GAS LISTING C:\Users\bayra\AppData\Local\Temp\cc6ZYDYB.s 			page 38


 2110              		.loc 1 1826 0
 2111 011a C17F     		se_lwz %r7,4(%r31)
 2112 011c 50C70080 		e_lwz %r6,128(%r7)
 2113 0120 7466173A 		e_rlwimi %r6,%r3,2,28,29
 2114 0124 54C70080 		e_stw %r6,128(%r7)
 2115              		.loc 1 1829 0
 2116 0128 C17F     		se_lwz %r7,4(%r31)
 2117 012a 50C70084 		e_lwz %r6,132(%r7)
 2118 012e 7466143A 		e_rlwimi %r6,%r3,2,16,29
 2119 0132 54C70084 		e_stw %r6,132(%r7)
 2120              		.loc 1 1830 0
 2121 0136 C06F     		se_lwz %r6,0(%r31)
 2122 0138 C17F     		se_lwz %r7,4(%r31)
 2123 013a 30C600D0 		e_lbz %r6,208(%r6)
 2124 013e 34C70085 		e_stb %r6,133(%r7)
 2125              		.loc 1 1831 0
 2126 0142 C07F     		se_lwz %r7,0(%r31)
 2127              		.loc 1 1838 0
 2128 0144 517F0004 		e_lwz %r11,4(%r31)
 2129              		.loc 1 1831 0
 2130 0148 30A700D0 		e_lbz %r5,208(%r7)
 2131              	.LVL193:
 2132              		.loc 1 1838 0
 2133 014c 500B0088 		e_lwz %r0,136(%r11)
 2134 0150 7CA61070 		e_slwi %r6,%r5,2
 2135              	.LVL194:
 2136 0154 74A504BF 		e_rlwinm %r5,%r5,0,18,31
 2137 0158 74A0143A 		e_rlwimi %r0,%r5,2,16,29
 2138 015c 540B0088 		e_stw %r0,136(%r11)
 2139              		.loc 1 1839 0
 2140 0160 C15F     		se_lwz %r5,4(%r31)
 2141 0162 C07F     		se_lwz %r7,0(%r31)
 2142 0164 50050088 		e_lwz %r0,136(%r5)
 2143 0168 30E700D1 		e_lbz %r7,209(%r7)
 2144 016c 74E0825E 		e_rlwimi %r0,%r7,16,9,15
 2145 0170 54050088 		e_stw %r0,136(%r5)
 2146              		.loc 1 1846 0
 2147 0174 C15F     		se_lwz %r5,4(%r31)
 2148              		.loc 1 1840 0
 2149 0176 C07F     		se_lwz %r7,0(%r31)
 2150              		.loc 1 1846 0
 2151 0178 500500A0 		e_lwz %r0,160(%r5)
 2152              		.loc 1 1840 0
 2153 017c 30E700D1 		e_lbz %r7,209(%r7)
 2154 0180 6C37     		se_slwi %r7, 3
 2155 0182 7C873214 		add %r4,%r7,%r6
 2156              	.LVL195:
 2157              		.loc 1 1846 0
 2158 0186 7480043A 		e_rlwimi %r0,%r4,0,16,29
 2159 018a 540500A0 		e_stw %r0,160(%r5)
 2160              		.loc 1 1847 0
 2161 018e C17F     		se_lwz %r7,4(%r31)
 2162 0190 C05F     		se_lwz %r5,0(%r31)
 2163 0192 50C700A0 		e_lwz %r6,160(%r7)
 2164 0196 30A500D3 		e_lbz %r5,211(%r5)
 2165 019a 74A6825E 		e_rlwimi %r6,%r5,16,9,15
 2166 019e 54C700A0 		e_stw %r6,160(%r7)
GAS LISTING C:\Users\bayra\AppData\Local\Temp\cc6ZYDYB.s 			page 39


 2167              		.loc 1 1849 0
 2168 01a2 C07F     		se_lwz %r7,0(%r31)
 2169 01a4 30E70030 		e_lbz %r7,48(%r7)
 2170 01a8 2A17     		se_cmpi %r7,1
 2171              		.loc 1 1850 0
 2172 01aa C17F     		se_lwz %r7,4(%r31)
 2173 01ac 50C700A0 		e_lwz %r6,160(%r7)
 2174              		.loc 1 1849 0
 2175 01b0 7A1204C4 		e_beq %cr0,.L205
 2176              		.loc 1 1853 0
 2177 01b4 4815     		se_li %r5,1
 2178 01b6 74A6F800 		e_rlwimi %r6,%r5,31,0,0
 2179 01ba 54C700A0 		e_stw %r6,160(%r7)
 2180              	.L171:
 2181              		.loc 1 1855 0
 2182 01be C06F     		se_lwz %r6,0(%r31)
 2183 01c0 30E60020 		e_lbz %r7,32(%r6)
 2184 01c4 2A07     		se_cmpi %r7,0
 2185 01c6 7A120014 		e_beq %cr0,.L172
 2186              		.loc 1 1856 0
 2187 01ca C16F     		se_lwz %r6,4(%r31)
 2188 01cc 50A600A0 		e_lwz %r5,160(%r6)
 2189 01d0 74E5C04E 		e_rlwimi %r5,%r7,24,1,7
 2190 01d4 54A600A0 		e_stw %r5,160(%r6)
 2191 01d8 C06F     		se_lwz %r6,0(%r31)
 2192              	.L172:
 2193              		.loc 1 1858 0
 2194 01da 30A600D3 		e_lbz %r5,211(%r6)
 2195 01de 8C7F     		se_lbz %r7,12(%r31)
 2196              		.loc 1 1864 0
 2197 01e0 C13F     		se_lwz %r3,4(%r31)
 2198              		.loc 1 1858 0
 2199 01e2 2077     		se_addi %r7,8
 2200              		.loc 1 1864 0
 2201 01e4 500300B0 		e_lwz %r0,176(%r3)
 2202              		.loc 1 1858 0
 2203 01e8 0557     		se_mullw %r7,%r5
 2204 01ea 7CC72214 		add %r6,%r7,%r4
 2205              	.LVL196:
 2206              		.loc 1 1864 0
 2207 01ee 74C0043A 		e_rlwimi %r0,%r6,0,16,29
 2208 01f2 540300B0 		e_stw %r0,176(%r3)
 2209              		.loc 1 1865 0
 2210 01f6 C17F     		se_lwz %r7,4(%r31)
 2211 01f8 C04F     		se_lwz %r4,0(%r31)
 2212 01fa 50A700B0 		e_lwz %r5,176(%r7)
 2213 01fe 308400D4 		e_lbz %r4,212(%r4)
 2214 0202 7485825E 		e_rlwimi %r5,%r4,16,9,15
 2215 0206 54A700B0 		e_stw %r5,176(%r7)
 2216              		.loc 1 1867 0
 2217 020a C07F     		se_lwz %r7,0(%r31)
 2218 020c 30E70050 		e_lbz %r7,80(%r7)
 2219 0210 2A17     		se_cmpi %r7,1
 2220              		.loc 1 1868 0
 2221 0212 C17F     		se_lwz %r7,4(%r31)
 2222 0214 50A700B0 		e_lwz %r5,176(%r7)
 2223              		.loc 1 1867 0
GAS LISTING C:\Users\bayra\AppData\Local\Temp\cc6ZYDYB.s 			page 40


 2224 0218 7A12044E 		e_beq %cr0,.L206
 2225              		.loc 1 1871 0
 2226 021c 4814     		se_li %r4,1
 2227 021e 7485F800 		e_rlwimi %r5,%r4,31,0,0
 2228 0222 54A700B0 		e_stw %r5,176(%r7)
 2229              	.L174:
 2230              		.loc 1 1873 0
 2231 0226 C05F     		se_lwz %r5,0(%r31)
 2232 0228 30E50040 		e_lbz %r7,64(%r5)
 2233 022c 2A07     		se_cmpi %r7,0
 2234 022e 7A120014 		e_beq %cr0,.L175
 2235              		.loc 1 1874 0
 2236 0232 C15F     		se_lwz %r5,4(%r31)
 2237 0234 508500B0 		e_lwz %r4,176(%r5)
 2238 0238 74E4C04E 		e_rlwimi %r4,%r7,24,1,7
 2239 023c 548500B0 		e_stw %r4,176(%r5)
 2240 0240 C05F     		se_lwz %r5,0(%r31)
 2241              	.L175:
 2242              		.loc 1 1876 0
 2243 0242 30A500D4 		e_lbz %r5,212(%r5)
 2244              		.loc 1 1882 0
 2245 0246 C14F     		se_lwz %r4,4(%r31)
 2246              		.loc 1 1876 0
 2247 0248 8C7F     		se_lbz %r7,12(%r31)
 2248              		.loc 1 1882 0
 2249 024a 506400AC 		e_lwz %r3,172(%r4)
 2250              		.loc 1 1876 0
 2251 024e 2077     		se_addi %r7,8
 2252 0250 0557     		se_mullw %r7,%r5
 2253 0252 7CE63A14 		add %r7,%r6,%r7
 2254              	.LVL197:
 2255              		.loc 1 1882 0
 2256 0256 74E3043A 		e_rlwimi %r3,%r7,0,16,29
 2257 025a 546400AC 		e_stw %r3,172(%r4)
 2258              	.LVL198:
 2259              		.loc 1 1888 0
 2260 025e 8C6F     		se_lbz %r6,12(%r31)
 2261              		.loc 1 1895 0
 2262 0260 C14F     		se_lwz %r4,4(%r31)
 2263              		.loc 1 1888 0
 2264 0262 517F0000 		e_lwz %r11,0(%r31)
 2265              		.loc 1 1895 0
 2266 0266 506400C0 		e_lwz %r3,192(%r4)
 2267              		.loc 1 1888 0
 2268 026a 18A68008 		e_addi %r5,%r6,8
 2269 026e 30CB00D2 		e_lbz %r6,210(%r11)
 2270 0272 0556     		se_mullw %r6,%r5
 2271 0274 0467     		se_add %r7,%r6
 2272              	.LVL199:
 2273              		.loc 1 1895 0
 2274 0276 74E3043A 		e_rlwimi %r3,%r7,0,16,29
 2275 027a 546400C0 		e_stw %r3,192(%r4)
 2276              		.loc 1 1896 0
 2277 027e C17F     		se_lwz %r7,4(%r31)
 2278 0280 C05F     		se_lwz %r5,0(%r31)
 2279 0282 50C700C0 		e_lwz %r6,192(%r7)
 2280 0286 30A500D6 		e_lbz %r5,214(%r5)
GAS LISTING C:\Users\bayra\AppData\Local\Temp\cc6ZYDYB.s 			page 41


 2281 028a 74A6829E 		e_rlwimi %r6,%r5,16,10,15
 2282 028e 54C700C0 		e_stw %r6,192(%r7)
 2283              		.loc 1 1898 0
 2284 0292 C03F     		se_lwz %r3,0(%r31)
 2285 0294 30E300D5 		e_lbz %r7,213(%r3)
 2286 0298 700798FF 		e_cmp16i %r7,255
 2287 029c 7A12003E 		e_beq %cr0,.L176
 2288              		.loc 1 1899 0
 2289 02a0 30E300D7 		e_lbz %r7,215(%r3)
 2290 02a4 C16F     		se_lwz %r6,4(%r31)
 2291 02a6 18E7C03F 		e_andi %r7,%r7,63
 2292 02aa 50A600C0 		e_lwz %r5,192(%r6)
 2293 02ae 74E5C08E 		e_rlwimi %r5,%r7,24,2,7
 2294 02b2 54A600C0 		e_stw %r5,192(%r6)
 2295              		.loc 1 1901 0
 2296 02b6 C03F     		se_lwz %r3,0(%r31)
 2297 02b8 30E300D5 		e_lbz %r7,213(%r3)
 2298 02bc 18E7C0FD 		e_andi %r7,%r7,253
 2299 02c0 700798FC 		e_cmp16i %r7,252
 2300 02c4 7A020016 		e_bne %cr0,.L176
 2301              		.loc 1 1902 0
 2302 02c8 C17F     		se_lwz %r7,4(%r31)
 2303 02ca 4815     		se_li %r5,1
 2304 02cc 50C700C0 		e_lwz %r6,192(%r7)
 2305 02d0 74A6F042 		e_rlwimi %r6,%r5,30,1,1
 2306 02d4 54C700C0 		e_stw %r6,192(%r7)
 2307 02d8 C03F     		se_lwz %r3,0(%r31)
 2308              	.L176:
 2309              	.LVL200:
 2310              		.loc 1 1908 0 discriminator 1
 2311 02da 30E300D0 		e_lbz %r7,208(%r3)
 2312 02de 515F0004 		e_lwz %r10,4(%r31)
 2313 02e2 18A3805C 		e_addi %r5,%r3,92
 2314 02e6 4800     		se_li %r0,0
 2315 02e8 2A07     		se_cmpi %r7,0
 2316 02ea 7A12004E 		e_beq %cr0,.L178
 2317              	.LVL201:
 2318              	.L179:
 2319              	.LBB8:
 2320              		.loc 1 1913 0 discriminator 3
 2321 02ee 50E5FFFC 		e_lwz %r7,-4(%r5)
 2322              		.loc 1 1914 0 discriminator 3
 2323 02f2 31250005 		e_lbz %r9,5(%r5)
 2324              		.loc 1 1915 0 discriminator 3
 2325 02f6 31650004 		e_lbz %r11,4(%r5)
 2326              		.loc 1 1913 0 discriminator 3
 2327 02fa C0E5     		se_lwz %r30,0(%r5)
 2328              		.loc 1 1916 0 discriminator 3
 2329 02fc 508A0084 		e_lwz %r4,132(%r10)
 2330 0300 519F0008 		e_lwz %r12,8(%r31)
 2331 0304 7C081070 		e_slwi %r8,%r0,2
 2332              		.loc 1 1913 0 discriminator 3
 2333 0308 7CE68070 		e_slwi %r6,%r7,16
 2334              		.loc 1 1915 0 discriminator 3
 2335 030c 7D6BF070 		e_slwi %r11,%r11,30
 2336              		.loc 1 1913 0 discriminator 3
 2337 0310 04E6     		se_add %r6,%r30
GAS LISTING C:\Users\bayra\AppData\Local\Temp\cc6ZYDYB.s 			page 42


 2338              	.LVL202:
 2339              		.loc 1 1914 0 discriminator 3
 2340 0312 7D27D870 		e_slwi %r7,%r9,27
 2341              	.LBE8:
 2342              		.loc 1 1908 0 discriminator 3
 2343 0316 2000     		se_addi %r0,1
 2344              	.LVL203:
 2345              	.LBB9:
 2346              		.loc 1 1914 0 discriminator 3
 2347 0318 7CE63A14 		add %r7,%r6,%r7
 2348              	.LVL204:
 2349 031c 20B5     		se_addi %r5,12
 2350              		.loc 1 1915 0 discriminator 3
 2351 031e 7CE75A14 		add %r7,%r7,%r11
 2352              	.LVL205:
 2353              		.loc 1 1916 0 discriminator 3
 2354 0322 7486043B 		e_rlwinm %r6,%r4,0,16,29
 2355 0326 7CC66214 		add %r6,%r6,%r12
 2356              		.loc 1 1917 0 discriminator 3
 2357 032a 7CE6412E 		stwx %r7,%r6,%r8
 2358              	.LBE9:
 2359              		.loc 1 1908 0 discriminator 3
 2360 032e 30E300D0 		e_lbz %r7,208(%r3)
 2361              	.LVL206:
 2362 0332 0D07     		se_cmpl %r7,%r0
 2363 0334 7A11FFBA 		e_bgt %cr0,.L179
 2364              	.LVL207:
 2365              	.L178:
 2366              		.loc 1 1921 0 discriminator 1
 2367 0338 30C300D1 		e_lbz %r6,209(%r3)
 2368 033c 18E380AC 		e_addi %r7,%r3,172
 2369 0340 4804     		se_li %r4,0
 2370 0342 2A06     		se_cmpi %r6,0
 2371 0344 7A120052 		e_beq %cr0,.L184
 2372              	.LVL208:
 2373              	.L195:
 2374              	.LBB10:
 2375              		.loc 1 1926 0 discriminator 3
 2376 0348 51270000 		e_lwz %r9,0(%r7)
 2377              	.LVL209:
 2378              		.loc 1 1927 0 discriminator 3
 2379 034c 8957     		se_lbz %r5,9(%r7)
 2380              		.loc 1 1928 0 discriminator 3
 2381 034e 50CA0088 		e_lwz %r6,136(%r10)
 2382 0352 C20F     		se_lwz %r0,8(%r31)
 2383 0354 7C8B1870 		e_slwi %r11,%r4,3
 2384 0358 20B7     		se_addi %r7,12
 2385              		.loc 1 1927 0 discriminator 3
 2386 035a 6DD5     		se_slwi %r5, 29
 2387              		.loc 1 1928 0 discriminator 3
 2388 035c 74C6043B 		e_rlwinm %r6,%r6,0,16,29
 2389              		.loc 1 1927 0 discriminator 3
 2390 0360 7CA54A14 		add %r5,%r5,%r9
 2391              	.LVL210:
 2392              		.loc 1 1928 0 discriminator 3
 2393 0364 0406     		se_add %r6,%r0
 2394              	.LBE10:
GAS LISTING C:\Users\bayra\AppData\Local\Temp\cc6ZYDYB.s 			page 43


 2395              		.loc 1 1921 0 discriminator 3
 2396 0366 2004     		se_addi %r4,1
 2397              	.LVL211:
 2398              	.LBB11:
 2399              		.loc 1 1929 0 discriminator 3
 2400 0368 7CA6592E 		stwx %r5,%r6,%r11
 2401              		.loc 1 1931 0 discriminator 3
 2402 036c 5127FFF8 		e_lwz %r9,-8(%r7)
 2403              	.LVL212:
 2404              		.loc 1 1932 0 discriminator 3
 2405 0370 30A7FFFC 		e_lbz %r5,-4(%r7)
 2406              		.loc 1 1933 0 discriminator 3
 2407 0374 500A0088 		e_lwz %r0,136(%r10)
 2408 0378 C26F     		se_lwz %r6,8(%r31)
 2409              		.loc 1 1932 0 discriminator 3
 2410 037a 6DE5     		se_slwi %r5, 30
 2411 037c 2036     		se_addi %r6,4
 2412 037e 7CA54A14 		add %r5,%r5,%r9
 2413              	.LVL213:
 2414              		.loc 1 1933 0 discriminator 3
 2415 0382 7400043B 		e_rlwinm %r0,%r0,0,16,29
 2416              	.LVL214:
 2417 0386 0406     		se_add %r6,%r0
 2418              		.loc 1 1934 0 discriminator 3
 2419 0388 7CA6592E 		stwx %r5,%r6,%r11
 2420              	.LBE11:
 2421              		.loc 1 1921 0 discriminator 3
 2422 038c 30C300D1 		e_lbz %r6,209(%r3)
 2423 0390 0D46     		se_cmpl %r6,%r4
 2424 0392 7A11FFB6 		e_bgt %cr0,.L195
 2425              	.LVL215:
 2426              	.L184:
 2427              		.loc 1 1938 0
 2428 0396 30E30012 		e_lbz %r7,18(%r3)
 2429 039a 700798FF 		e_cmp16i %r7,255
 2430 039e 7A12002C 		e_beq %cr0,.L182
 2431              		.loc 1 1939 0
 2432 03a2 50EA0054 		e_lwz %r7,84(%r10)
 2433 03a6 4816     		se_li %r6,1
 2434 03a8 74C79B18 		e_rlwimi %r7,%r6,19,12,12
 2435 03ac 54EA0054 		e_stw %r7,84(%r10)
 2436              		.loc 1 1941 0
 2437 03b0 C17F     		se_lwz %r7,4(%r31)
 2438 03b2 C05F     		se_lwz %r5,0(%r31)
 2439 03b4 50C70058 		e_lwz %r6,88(%r7)
 2440 03b8 30A50012 		e_lbz %r5,18(%r5)
 2441 03bc 74A69B18 		e_rlwimi %r6,%r5,19,12,12
 2442 03c0 54C70058 		e_stw %r6,88(%r7)
 2443 03c4 C03F     		se_lwz %r3,0(%r31)
 2444 03c6 515F0004 		e_lwz %r10,4(%r31)
 2445              	.L182:
 2446              		.loc 1 1945 0
 2447 03ca 30E30018 		e_lbz %r7,24(%r3)
 2448 03ce 700798FF 		e_cmp16i %r7,255
 2449 03d2 7A12002C 		e_beq %cr0,.L185
 2450              		.loc 1 1946 0
 2451 03d6 30E30019 		e_lbz %r7,25(%r3)
GAS LISTING C:\Users\bayra\AppData\Local\Temp\cc6ZYDYB.s 			page 44


 2452 03da 2A17     		se_cmpi %r7,1
 2453 03dc 7A1202CE 		e_beq %cr0,.L207
 2454              	.L186:
 2455              		.loc 1 1950 0
 2456 03e0 30E30020 		e_lbz %r7,32(%r3)
 2457 03e4 2A07     		se_cmpi %r7,0
 2458 03e6 7A020150 		e_bne %cr0,.L208
 2459              		.loc 1 1954 0
 2460 03ea 30E30028 		e_lbz %r7,40(%r3)
 2461 03ee 2A17     		se_cmpi %r7,1
 2462 03f0 7A120178 		e_beq %cr0,.L209
 2463              	.L188:
 2464              		.loc 1 1958 0
 2465 03f4 30E30030 		e_lbz %r7,48(%r3)
 2466 03f8 2A17     		se_cmpi %r7,1
 2467 03fa 7A12019E 		e_beq %cr0,.L210
 2468              	.L185:
 2469              		.loc 1 1965 0
 2470 03fe 30E30038 		e_lbz %r7,56(%r3)
 2471 0402 700798FF 		e_cmp16i %r7,255
 2472 0406 7A12002C 		e_beq %cr0,.L189
 2473              		.loc 1 1966 0
 2474 040a 30E30039 		e_lbz %r7,57(%r3)
 2475 040e 2A17     		se_cmpi %r7,1
 2476 0410 7A120270 		e_beq %cr0,.L211
 2477              	.L190:
 2478              		.loc 1 1970 0
 2479 0414 30E30040 		e_lbz %r7,64(%r3)
 2480 0418 2A07     		se_cmpi %r7,0
 2481 041a 7A020092 		e_bne %cr0,.L212
 2482              		.loc 1 1974 0
 2483 041e 30E30048 		e_lbz %r7,72(%r3)
 2484 0422 2A17     		se_cmpi %r7,1
 2485 0424 7A1200BA 		e_beq %cr0,.L213
 2486              	.L192:
 2487              		.loc 1 1978 0
 2488 0428 30E30050 		e_lbz %r7,80(%r3)
 2489 042c 2A17     		se_cmpi %r7,1
 2490 042e 7A1200E0 		e_beq %cr0,.L214
 2491              	.L189:
 2492              		.loc 1 1985 0
 2493 0432 2C07     		se_bmaski %r7,0
 2494              		.loc 1 1988 0
 2495 0434 4815     		se_li %r5,1
 2496              		.loc 1 1985 0
 2497 0436 54EA0098 		e_stw %r7,152(%r10)
 2498              		.loc 1 1986 0
 2499 043a C16F     		se_lwz %r6,4(%r31)
 2500 043c 54E6009C 		e_stw %r7,156(%r6)
 2501              		.loc 1 1988 0
 2502 0440 C17F     		se_lwz %r7,4(%r31)
 2503 0442 50C70054 		e_lwz %r6,84(%r7)
 2504 0446 74A6C98C 		e_rlwimi %r6,%r5,25,6,6
 2505              		.loc 1 1989 0
 2506 044a 4805     		se_li %r5,0
 2507              		.loc 1 1988 0
 2508 044c 54C70054 		e_stw %r6,84(%r7)
GAS LISTING C:\Users\bayra\AppData\Local\Temp\cc6ZYDYB.s 			page 45


 2509              		.loc 1 1989 0
 2510 0450 C17F     		se_lwz %r7,4(%r31)
 2511 0452 50C70058 		e_lwz %r6,88(%r7)
 2512 0456 74A6C98C 		e_rlwimi %r6,%r5,25,6,6
 2513 045a 54C70058 		e_stw %r6,88(%r7)
 2514              		.loc 1 2014 0
 2515 045e C07F     		se_lwz %r7,0(%r31)
 2516 0460 50E700D8 		e_lwz %r7,216(%r7)
 2517 0464 2A07     		se_cmpi %r7,0
 2518 0466 7A120012 		e_beq %cr0,.L193
 2519              		.loc 1 2015 0
 2520 046a C16F     		se_lwz %r6,4(%r31)
 2521 046c 50E60054 		e_lwz %r7,84(%r6)
 2522 0470 70E7D7F6 		e_or2is %r7,0x3ff6
 2523 0474 54E60054 		e_stw %r7,84(%r6)
 2524              	.L193:
 2525              		.loc 1 2019 0
 2526 0478 C17F     		se_lwz %r7,4(%r31)
 2527              		.loc 1 2022 0
 2528 047a 4805     		se_li %r5,0
 2529              		.loc 1 2019 0
 2530 047c 4836     		se_li %r6,3
 2531 047e 54C7005C 		e_stw %r6,92(%r7)
 2532              		.loc 1 2022 0
 2533 0482 C17F     		se_lwz %r7,4(%r31)
 2534 0484 C667     		se_lwz %r6,24(%r7)
 2535 0486 74A6177A 		e_rlwimi %r6,%r5,2,29,29
 2536 048a D667     		se_stw %r6,24(%r7)
 2537              		.loc 1 2023 0
 2538 048c C17F     		se_lwz %r7,4(%r31)
 2539 048e C667     		se_lwz %r6,24(%r7)
 2540 0490 74A607FE 		e_rlwimi %r6,%r5,0,31,31
 2541 0494 D667     		se_stw %r6,24(%r7)
 2542 0496 C16F     		se_lwz %r6,4(%r31)
 2543              	.L194:
 2544              		.loc 1 2024 0 discriminator 1
 2545 0498 C676     		se_lwz %r7,24(%r6)
 2546 049a 67F7     		se_btsti %r7,31
 2547 049c 7A02FFFC 		e_bne %cr0,.L194
 2548              		.loc 1 2027 0
 2549 04a0 C501     		se_lwz %r0,20(%r1)
 2550 04a2 0090     		se_mtlr %r0
 2551              		.cfi_remember_state
 2552              		.cfi_restore 65
 2553 04a4 1BC10808 		e_lmw %r30,8(%r1)
 2554              	.LVL216:
 2555 04a8 20F1     		se_addi %r1,16
 2556              	.LCFI17:
 2557              		.cfi_restore 31
 2558              		.cfi_restore 30
 2559              		.cfi_def_cfa_offset 0
 2560 04aa 0004     		se_blr
 2561              	.LVL217:
 2562              	.L212:
 2563              	.LCFI18:
 2564              		.cfi_restore_state
 2565              		.loc 1 1971 0
GAS LISTING C:\Users\bayra\AppData\Local\Temp\cc6ZYDYB.s 			page 46


 2566 04ac 50EA0054 		e_lwz %r7,84(%r10)
 2567 04b0 4816     		se_li %r6,1
 2568 04b2 74C72EB4 		e_rlwimi %r7,%r6,5,26,26
 2569 04b6 54EA0054 		e_stw %r7,84(%r10)
 2570              		.loc 1 1972 0
 2571 04ba C17F     		se_lwz %r7,4(%r31)
 2572 04bc C05F     		se_lwz %r5,0(%r31)
 2573 04be 50C70058 		e_lwz %r6,88(%r7)
 2574 04c2 30A50038 		e_lbz %r5,56(%r5)
 2575 04c6 74A62EB4 		e_rlwimi %r6,%r5,5,26,26
 2576 04ca 54C70058 		e_stw %r6,88(%r7)
 2577 04ce C03F     		se_lwz %r3,0(%r31)
 2578 04d0 515F0004 		e_lwz %r10,4(%r31)
 2579              		.loc 1 1974 0
 2580 04d4 30E30048 		e_lbz %r7,72(%r3)
 2581 04d8 2A17     		se_cmpi %r7,1
 2582 04da 7A02FF4E 		e_bne %cr0,.L192
 2583              	.L213:
 2584              		.loc 1 1975 0
 2585 04de 50CA0054 		e_lwz %r6,84(%r10)
 2586 04e2 74E63672 		e_rlwimi %r6,%r7,6,25,25
 2587 04e6 54CA0054 		e_stw %r6,84(%r10)
 2588              		.loc 1 1976 0
 2589 04ea C17F     		se_lwz %r7,4(%r31)
 2590 04ec C05F     		se_lwz %r5,0(%r31)
 2591 04ee 50C70058 		e_lwz %r6,88(%r7)
 2592 04f2 30A50038 		e_lbz %r5,56(%r5)
 2593 04f6 74A63672 		e_rlwimi %r6,%r5,6,25,25
 2594 04fa 54C70058 		e_stw %r6,88(%r7)
 2595 04fe C03F     		se_lwz %r3,0(%r31)
 2596 0500 515F0004 		e_lwz %r10,4(%r31)
 2597              		.loc 1 1978 0
 2598 0504 30E30050 		e_lbz %r7,80(%r3)
 2599 0508 2A17     		se_cmpi %r7,1
 2600 050a 7A02FF28 		e_bne %cr0,.L189
 2601              	.L214:
 2602              		.loc 1 1979 0
 2603 050e 50CA0054 		e_lwz %r6,84(%r10)
 2604 0512 74E63E30 		e_rlwimi %r6,%r7,7,24,24
 2605 0516 54CA0054 		e_stw %r6,84(%r10)
 2606              		.loc 1 1980 0
 2607 051a C17F     		se_lwz %r7,4(%r31)
 2608 051c C05F     		se_lwz %r5,0(%r31)
 2609 051e 50C70058 		e_lwz %r6,88(%r7)
 2610 0522 30A50038 		e_lbz %r5,56(%r5)
 2611 0526 74A63E30 		e_rlwimi %r6,%r5,7,24,24
 2612 052a 54C70058 		e_stw %r6,88(%r7)
 2613 052e 515F0004 		e_lwz %r10,4(%r31)
 2614 0532 79FFFF00 		e_b .L189
 2615              	.L208:
 2616              		.loc 1 1951 0
 2617 0536 50EA0054 		e_lwz %r7,84(%r10)
 2618 053a 4816     		se_li %r6,1
 2619 053c 74C70FBC 		e_rlwimi %r7,%r6,1,30,30
 2620 0540 54EA0054 		e_stw %r7,84(%r10)
 2621              		.loc 1 1952 0
 2622 0544 C17F     		se_lwz %r7,4(%r31)
GAS LISTING C:\Users\bayra\AppData\Local\Temp\cc6ZYDYB.s 			page 47


 2623 0546 C05F     		se_lwz %r5,0(%r31)
 2624 0548 50C70058 		e_lwz %r6,88(%r7)
 2625 054c 30A50018 		e_lbz %r5,24(%r5)
 2626 0550 74A60FBC 		e_rlwimi %r6,%r5,1,30,30
 2627 0554 54C70058 		e_stw %r6,88(%r7)
 2628 0558 C03F     		se_lwz %r3,0(%r31)
 2629 055a 515F0004 		e_lwz %r10,4(%r31)
 2630              		.loc 1 1954 0
 2631 055e 30E30028 		e_lbz %r7,40(%r3)
 2632 0562 2A17     		se_cmpi %r7,1
 2633 0564 7A02FE90 		e_bne %cr0,.L188
 2634              	.L209:
 2635              		.loc 1 1955 0
 2636 0568 50CA0054 		e_lwz %r6,84(%r10)
 2637 056c 74E6177A 		e_rlwimi %r6,%r7,2,29,29
 2638 0570 54CA0054 		e_stw %r6,84(%r10)
 2639              		.loc 1 1956 0
 2640 0574 C17F     		se_lwz %r7,4(%r31)
 2641 0576 C05F     		se_lwz %r5,0(%r31)
 2642 0578 50C70058 		e_lwz %r6,88(%r7)
 2643 057c 30A50018 		e_lbz %r5,24(%r5)
 2644 0580 74A6177A 		e_rlwimi %r6,%r5,2,29,29
 2645 0584 54C70058 		e_stw %r6,88(%r7)
 2646 0588 C03F     		se_lwz %r3,0(%r31)
 2647 058a 515F0004 		e_lwz %r10,4(%r31)
 2648              		.loc 1 1958 0
 2649 058e 30E30030 		e_lbz %r7,48(%r3)
 2650 0592 2A17     		se_cmpi %r7,1
 2651 0594 7A02FE6A 		e_bne %cr0,.L185
 2652              	.L210:
 2653              		.loc 1 1959 0
 2654 0598 50CA0054 		e_lwz %r6,84(%r10)
 2655 059c 74E61F38 		e_rlwimi %r6,%r7,3,28,28
 2656 05a0 54CA0054 		e_stw %r6,84(%r10)
 2657              		.loc 1 1960 0
 2658 05a4 C17F     		se_lwz %r7,4(%r31)
 2659 05a6 C05F     		se_lwz %r5,0(%r31)
 2660 05a8 50C70058 		e_lwz %r6,88(%r7)
 2661 05ac 30A50018 		e_lbz %r5,24(%r5)
 2662 05b0 74A61F38 		e_rlwimi %r6,%r5,3,28,28
 2663 05b4 54C70058 		e_stw %r6,88(%r7)
 2664 05b8 C03F     		se_lwz %r3,0(%r31)
 2665 05ba 515F0004 		e_lwz %r10,4(%r31)
 2666 05be 79FFFE40 		e_b .L185
 2667              	.LVL218:
 2668              	.L204:
 2669              		.loc 1 1779 0
 2670 05c2 C656     		se_lwz %r5,24(%r6)
 2671 05c4 74E545EE 		e_rlwimi %r5,%r7,8,23,23
 2672 05c8 D656     		se_stw %r5,24(%r6)
 2673              		.loc 1 1780 0
 2674 05ca C07F     		se_lwz %r7,0(%r31)
 2675 05cc 8977     		se_lbz %r7,9(%r7)
 2676 05ce 2A17     		se_cmpi %r7,1
 2677 05d0 7A12015A 		e_beq %cr0,.L215
 2678              		.loc 1 1784 0
 2679 05d4 C17F     		se_lwz %r7,4(%r31)
GAS LISTING C:\Users\bayra\AppData\Local\Temp\cc6ZYDYB.s 			page 48


 2680 05d6 4805     		se_li %r5,0
 2681 05d8 C667     		se_lwz %r6,24(%r7)
 2682 05da 74A64DAC 		e_rlwimi %r6,%r5,9,22,22
 2683 05de D667     		se_stw %r6,24(%r7)
 2684              	.L166:
 2685              		.loc 1 1788 0
 2686 05e0 C17F     		se_lwz %r7,4(%r31)
 2687 05e2 C05F     		se_lwz %r5,0(%r31)
 2688 05e4 C367     		se_lwz %r6,12(%r7)
 2689 05e6 8A55     		se_lbz %r5,10(%r5)
 2690 05e8 74A6073E 		e_rlwimi %r6,%r5,0,28,31
 2691 05ec D367     		se_stw %r6,12(%r7)
 2692              		.loc 1 1789 0
 2693 05ee C17F     		se_lwz %r7,4(%r31)
 2694 05f0 C05F     		se_lwz %r5,0(%r31)
 2695 05f2 C367     		se_lwz %r6,12(%r7)
 2696 05f4 8B55     		se_lbz %r5,11(%r5)
 2697 05f6 74A644EE 		e_rlwimi %r6,%r5,8,19,23
 2698 05fa D367     		se_stw %r6,12(%r7)
 2699              		.loc 1 1790 0
 2700 05fc C17F     		se_lwz %r7,4(%r31)
 2701 05fe C05F     		se_lwz %r5,0(%r31)
 2702 0600 C367     		se_lwz %r6,12(%r7)
 2703 0602 8C55     		se_lbz %r5,12(%r5)
 2704 0604 74A62636 		e_rlwimi %r6,%r5,4,24,27
 2705 0608 D367     		se_stw %r6,12(%r7)
 2706              		.loc 1 1791 0
 2707 060a C16F     		se_lwz %r6,4(%r31)
 2708 060c C07F     		se_lwz %r7,0(%r31)
 2709 060e C356     		se_lwz %r5,12(%r6)
 2710 0610 8D77     		se_lbz %r7,13(%r7)
 2711 0612 18E784FF 		e_addi %r7,%r7,-1
 2712 0616 74E582DE 		e_rlwimi %r5,%r7,16,11,15
 2713 061a D356     		se_stw %r5,12(%r6)
 2714              		.loc 1 1794 0
 2715 061c C07F     		se_lwz %r7,0(%r31)
 2716              		.loc 1 1795 0
 2717 061e C16F     		se_lwz %r6,4(%r31)
 2718              		.loc 1 1794 0
 2719 0620 8E77     		se_lbz %r7,14(%r7)
 2720 0622 2A17     		se_cmpi %r7,1
 2721 0624 7A1200C0 		e_beq %cr0,.L216
 2722              		.loc 1 1801 0
 2723 0628 C356     		se_lwz %r5,12(%r6)
 2724 062a 4807     		se_li %r7,0
 2725 062c 74E5BA10 		e_rlwimi %r5,%r7,23,8,8
 2726 0630 D356     		se_stw %r5,12(%r6)
 2727              		.loc 1 1802 0
 2728 0632 C16F     		se_lwz %r6,4(%r31)
 2729 0634 50A60044 		e_lwz %r5,68(%r6)
 2730 0638 74E5825E 		e_rlwimi %r5,%r7,16,9,15
 2731 063c 54A60044 		e_stw %r5,68(%r6)
 2732              		.loc 1 1803 0
 2733 0640 C16F     		se_lwz %r6,4(%r31)
 2734 0642 50A60048 		e_lwz %r5,72(%r6)
 2735 0646 74E5446E 		e_rlwimi %r5,%r7,8,17,23
 2736 064a 54A60048 		e_stw %r5,72(%r6)
GAS LISTING C:\Users\bayra\AppData\Local\Temp\cc6ZYDYB.s 			page 49


 2737              		.loc 1 1804 0
 2738 064e C16F     		se_lwz %r6,4(%r31)
 2739 0650 50A60048 		e_lwz %r5,72(%r6)
 2740 0654 74E5067E 		e_rlwimi %r5,%r7,0,25,31
 2741 0658 54A60048 		e_stw %r5,72(%r6)
 2742              	.L168:
 2743              		.loc 1 1809 0
 2744 065c C16F     		se_lwz %r6,4(%r31)
 2745 065e 4877     		se_li %r7,7
 2746              		.loc 1 1808 0
 2747 0660 4C05     		se_li %r5,64
 2748 0662 79FFFA70 		e_b .L200
 2749              	.LVL219:
 2750              	.L206:
 2751              		.loc 1 1868 0
 2752 0666 4804     		se_li %r4,0
 2753 0668 7485F800 		e_rlwimi %r5,%r4,31,0,0
 2754 066c 54A700B0 		e_stw %r5,176(%r7)
 2755 0670 79FFFBB6 		e_b .L174
 2756              	.LVL220:
 2757              	.L205:
 2758              		.loc 1 1850 0
 2759 0674 7466F800 		e_rlwimi %r6,%r3,31,0,0
 2760 0678 54C700A0 		e_stw %r6,160(%r7)
 2761 067c 79FFFB42 		e_b .L171
 2762              	.LVL221:
 2763              	.L211:
 2764              		.loc 1 1967 0
 2765 0680 50CA0054 		e_lwz %r6,84(%r10)
 2766 0684 74E626F6 		e_rlwimi %r6,%r7,4,27,27
 2767 0688 54CA0054 		e_stw %r6,84(%r10)
 2768              		.loc 1 1968 0
 2769 068c C17F     		se_lwz %r7,4(%r31)
 2770 068e C05F     		se_lwz %r5,0(%r31)
 2771 0690 50C70058 		e_lwz %r6,88(%r7)
 2772 0694 30A50038 		e_lbz %r5,56(%r5)
 2773 0698 74A626F6 		e_rlwimi %r6,%r5,4,27,27
 2774 069c 54C70058 		e_stw %r6,88(%r7)
 2775 06a0 C03F     		se_lwz %r3,0(%r31)
 2776 06a2 515F0004 		e_lwz %r10,4(%r31)
 2777 06a6 79FFFD6E 		e_b .L190
 2778              	.L207:
 2779              		.loc 1 1947 0
 2780 06aa 50CA0054 		e_lwz %r6,84(%r10)
 2781 06ae 74E607FE 		e_rlwimi %r6,%r7,0,31,31
 2782 06b2 54CA0054 		e_stw %r6,84(%r10)
 2783              		.loc 1 1948 0
 2784 06b6 C17F     		se_lwz %r7,4(%r31)
 2785 06b8 C05F     		se_lwz %r5,0(%r31)
 2786 06ba 50C70058 		e_lwz %r6,88(%r7)
 2787 06be 30A50018 		e_lbz %r5,24(%r5)
 2788 06c2 74A607FE 		e_rlwimi %r6,%r5,0,31,31
 2789 06c6 54C70058 		e_stw %r6,88(%r7)
 2790 06ca C03F     		se_lwz %r3,0(%r31)
 2791 06cc 515F0004 		e_lwz %r10,4(%r31)
 2792 06d0 79FFFD10 		e_b .L186
 2793              	.LVL222:
GAS LISTING C:\Users\bayra\AppData\Local\Temp\cc6ZYDYB.s 			page 50


 2794              	.L203:
 2795              		.loc 1 1749 0
 2796 06d4 C17F     		se_lwz %r7,4(%r31)
 2797 06d6 C657     		se_lwz %r5,24(%r7)
 2798 06d8 74C52EB4 		e_rlwimi %r5,%r6,5,26,26
 2799 06dc D657     		se_stw %r5,24(%r7)
 2800 06de C07F     		se_lwz %r7,0(%r31)
 2801 06e0 79FFF9AC 		e_b .L163
 2802              	.L216:
 2803              		.loc 1 1795 0
 2804 06e4 C356     		se_lwz %r5,12(%r6)
 2805 06e6 74E5BA10 		e_rlwimi %r5,%r7,23,8,8
 2806 06ea D356     		se_stw %r5,12(%r6)
 2807              		.loc 1 1796 0
 2808 06ec C17F     		se_lwz %r7,4(%r31)
 2809 06ee C05F     		se_lwz %r5,0(%r31)
 2810 06f0 50C70044 		e_lwz %r6,68(%r7)
 2811 06f4 8F55     		se_lbz %r5,15(%r5)
 2812 06f6 74A6825E 		e_rlwimi %r6,%r5,16,9,15
 2813 06fa 54C70044 		e_stw %r6,68(%r7)
 2814              		.loc 1 1797 0
 2815 06fe C17F     		se_lwz %r7,4(%r31)
 2816 0700 C05F     		se_lwz %r5,0(%r31)
 2817 0702 50C70048 		e_lwz %r6,72(%r7)
 2818 0706 30A50010 		e_lbz %r5,16(%r5)
 2819 070a 74A6446E 		e_rlwimi %r6,%r5,8,17,23
 2820 070e 54C70048 		e_stw %r6,72(%r7)
 2821              		.loc 1 1798 0
 2822 0712 C17F     		se_lwz %r7,4(%r31)
 2823 0714 C05F     		se_lwz %r5,0(%r31)
 2824 0716 50C70048 		e_lwz %r6,72(%r7)
 2825 071a 30A50011 		e_lbz %r5,17(%r5)
 2826 071e 74A6067E 		e_rlwimi %r6,%r5,0,25,31
 2827 0722 54C70048 		e_stw %r6,72(%r7)
 2828 0726 79FFFF36 		e_b .L168
 2829              	.L215:
 2830              		.loc 1 1781 0
 2831 072a C16F     		se_lwz %r6,4(%r31)
 2832 072c C656     		se_lwz %r5,24(%r6)
 2833 072e 74E54DAC 		e_rlwimi %r5,%r7,9,22,22
 2834 0732 D656     		se_stw %r5,24(%r6)
 2835 0734 79FFFEAC 		e_b .L166
 2836              	.LVL223:
 2837              	.L201:
 2838              		.loc 1 1574 0
 2839 0738 4C53     		se_li %r3,69
 2840              	.LVL224:
 2841 073a 4924     		se_li %r4,18
 2842              	.LVL225:
 2843              		.loc 1 1573 0
 2844 073c 70FEE7ED 		e_lis %r7,0xf7ed
 2845 0740 6517     		se_bseti %r7,17
 2846 0742 D27F     		se_stw %r7,8(%r31)
 2847              		.loc 1 1574 0
 2848 0744 78000001 		e_bl SPCSetPeripheralClockMode
 2849              	.LVL226:
 2850 0748 79FFF8E4 		e_b .L160
GAS LISTING C:\Users\bayra\AppData\Local\Temp\cc6ZYDYB.s 			page 51


 2851              	.LVL227:
 2852              	.L202:
 2853              		.loc 1 1618 0
 2854 074c 706000C6 		e_li %r3,198
 2855              	.LVL228:
 2856 0750 4924     		se_li %r4,18
 2857              	.LVL229:
 2858              		.loc 1 1617 0
 2859 0752 70FFE3ED 		e_lis %r7,0xfbed
 2860 0756 6517     		se_bseti %r7,17
 2861 0758 D27F     		se_stw %r7,8(%r31)
 2862              		.loc 1 1618 0
 2863 075a 78000001 		e_bl SPCSetPeripheralClockMode
 2864              	.LVL230:
 2865 075e 79FFF8CE 		e_b .L160
 2866              		.cfi_endproc
 2867              	.LFE14:
 2868              		.size	can_lld_start, .-can_lld_start
 2869              		.section	.text.can_lld_stop,"axv",@progbits
 2870              		.align 1
 2871              		.p2align 4,,15
 2872              		.globl can_lld_stop
 2873              		.type	can_lld_stop, @function
 2874              	can_lld_stop:
 2875              	.LFB15:
 2876              		.loc 1 2036 0
 2877              		.cfi_startproc
 2878              	.LVL231:
 2879 0000 182106F0 		e_stwu %r1,-16(%r1)
 2880              	.LCFI19:
 2881              		.cfi_def_cfa_offset 16
 2882              		.loc 1 2046 0
 2883 0004 4806     		se_li %r6,0
 2884              		.loc 1 2036 0
 2885 0006 D3F1     		se_stw %r31,12(%r1)
 2886 0008 0080     		se_mflr %r0
 2887              		.loc 1 2043 0
 2888 000a 4814     		se_li %r4,1
 2889              		.loc 1 2036 0
 2890 000c D501     		se_stw %r0,20(%r1)
 2891              		.cfi_offset 31, -4
 2892              		.cfi_offset 65, 4
 2893              		.loc 1 2036 0
 2894 000e 013F     		se_mr %r31,%r3
 2895              		.loc 1 2043 0
 2896 0010 C173     		se_lwz %r7,4(%r3)
 2897 0012 C657     		se_lwz %r5,24(%r7)
 2898 0014 748507FE 		e_rlwimi %r5,%r4,0,31,31
 2899 0018 D657     		se_stw %r5,24(%r7)
 2900              		.loc 1 2059 0
 2901 001a 70E0E000 		e_lis %r7,.LANCHOR0@ha
 2902 001e 1CE70000 		e_la %r7,.LANCHOR0@l(%r7)
 2903 0022 0C73     		se_cmp %r3,%r7
 2904              		.loc 1 2046 0
 2905 0024 C173     		se_lwz %r7,4(%r3)
 2906 0026 54C70054 		e_stw %r6,84(%r7)
 2907              		.loc 1 2047 0
GAS LISTING C:\Users\bayra\AppData\Local\Temp\cc6ZYDYB.s 			page 52


 2908 002a C173     		se_lwz %r7,4(%r3)
 2909 002c 54C7005C 		e_stw %r6,92(%r7)
 2910              		.loc 1 2048 0
 2911 0030 C173     		se_lwz %r7,4(%r3)
 2912 0032 54C70058 		e_stw %r6,88(%r7)
 2913              		.loc 1 2059 0
 2914 0036 7A120020 		e_beq %cr0,.L225
 2915              		.loc 1 2094 0
 2916 003a 70E0E000 		e_lis %r7,.LANCHOR1@ha
 2917 003e 1CE70000 		e_la %r7,.LANCHOR1@l(%r7)
 2918 0042 0C73     		se_cmp %r3,%r7
 2919 0044 7A12003E 		e_beq %cr0,.L220
 2920              		.loc 1 2200 0
 2921 0048 C501     		se_lwz %r0,20(%r1)
 2922 004a 0090     		se_mtlr %r0
 2923              		.cfi_remember_state
 2924              		.cfi_restore 65
 2925              		.loc 1 2199 0
 2926 004c 4807     		se_li %r7,0
 2927 004e D07F     		se_stw %r7,0(%r31)
 2928              		.loc 1 2200 0
 2929 0050 C3F1     		se_lwz %r31,12(%r1)
 2930 0052 20F1     		se_addi %r1,16
 2931              	.LCFI20:
 2932              		.cfi_restore 31
 2933              		.cfi_def_cfa_offset 0
 2934 0054 0004     		se_blr
 2935              	.L225:
 2936              	.LCFI21:
 2937              		.cfi_restore_state
 2938              	.LVL232:
 2939              		.loc 1 2062 0
 2940 0056 4C53     		se_li %r3,69
 2941              	.LVL233:
 2942 0058 4804     		se_li %r4,0
 2943 005a 78000001 		e_bl SPCSetPeripheralClockMode
 2944              	.LVL234:
 2945              		.loc 1 2060 0
 2946 005e 70FEE7ED 		e_lis %r7,0xf7ed
 2947 0062 6517     		se_bseti %r7,17
 2948              	.LVL235:
 2949              	.L219:
 2950              		.loc 1 2195 0
 2951 0064 70A003E0 		e_li %r5,992
 2952 0068 4806     		se_li %r6,0
 2953 006a 00B5     		se_mtctr %r5
 2954              	.LVL236:
 2955              	.L221:
 2956              		.loc 1 2195 0 is_stmt 0 discriminator 3
 2957 006c D067     		se_stw %r6,0(%r7)
 2958 006e 2037     		se_addi %r7,4
 2959              	.LVL237:
 2960              		.loc 1 2193 0 is_stmt 1 discriminator 3
 2961 0070 7A20FFFC 		e_bdnz .L221
 2962              		.loc 1 2200 0
 2963 0074 C501     		se_lwz %r0,20(%r1)
 2964 0076 0090     		se_mtlr %r0
GAS LISTING C:\Users\bayra\AppData\Local\Temp\cc6ZYDYB.s 			page 53


 2965              		.cfi_remember_state
 2966              		.cfi_restore 65
 2967              		.loc 1 2199 0
 2968 0078 4807     		se_li %r7,0
 2969              	.LVL238:
 2970 007a D07F     		se_stw %r7,0(%r31)
 2971              		.loc 1 2200 0
 2972 007c C3F1     		se_lwz %r31,12(%r1)
 2973              	.LVL239:
 2974 007e 20F1     		se_addi %r1,16
 2975              	.LCFI22:
 2976              		.cfi_restore 31
 2977              		.cfi_def_cfa_offset 0
 2978 0080 0004     		se_blr
 2979              	.LVL240:
 2980              	.L220:
 2981              	.LCFI23:
 2982              		.cfi_restore_state
 2983              		.loc 1 2097 0
 2984 0082 706000C6 		e_li %r3,198
 2985              	.LVL241:
 2986 0086 4804     		se_li %r4,0
 2987 0088 78000001 		e_bl SPCSetPeripheralClockMode
 2988              	.LVL242:
 2989              		.loc 1 2095 0
 2990 008c 70FFE3ED 		e_lis %r7,0xfbed
 2991 0090 6517     		se_bseti %r7,17
 2992 0092 79FFFFD2 		e_b .L219
 2993              		.cfi_endproc
 2994              	.LFE15:
 2995              		.size	can_lld_stop, .-can_lld_stop
 2996              		.section	.text.can_lld_transmit,"axv",@progbits
 2997              		.align 1
 2998              		.p2align 4,,15
 2999              		.globl can_lld_transmit
 3000              		.type	can_lld_transmit, @function
 3001              	can_lld_transmit:
 3002              	.LFB16:
 3003              		.loc 1 2213 0
 3004              		.cfi_startproc
 3005              	.LVL243:
 3006 0000 182106E8 		e_stwu %r1,-24(%r1)
 3007              	.LCFI24:
 3008              		.cfi_def_cfa_offset 24
 3009 0004 0080     		se_mflr %r0
 3010 0006 1BA1090C 		e_stmw %r29,12(%r1)
 3011 000a D701     		se_stw %r0,28(%r1)
 3012              		.cfi_offset 65, 4
 3013              		.cfi_offset 29, -12
 3014              		.cfi_offset 30, -8
 3015              		.cfi_offset 31, -4
 3016              		.loc 1 2213 0
 3017 000c 013D     		se_mr %r29,%r3
 3018 000e 015E     		se_mr %r30,%r5
 3019              		.loc 1 2221 0
 3020 0010 8835     		se_lbz %r3,8(%r5)
 3021              	.LVL244:
GAS LISTING C:\Users\bayra\AppData\Local\Temp\cc6ZYDYB.s 			page 54


 3022              		.loc 1 2213 0
 3023 0012 014F     		se_mr %r31,%r4
 3024              		.loc 1 2221 0
 3025 0014 2273     		se_cmpli %r3,8
 3026 0016 7A01001E 		e_ble %cr0,.L227
 3027              		.loc 1 2221 0 is_stmt 0 discriminator 1
 3028 001a C05D     		se_lwz %r5,0(%r29)
 3029              	.LVL245:
 3030              		.loc 1 2222 0 is_stmt 1 discriminator 1
 3031 001c 4836     		se_li %r6,3
 3032              		.loc 1 2221 0 discriminator 1
 3033 001e 8855     		se_lbz %r5,8(%r5)
 3034 0020 2A05     		se_cmpi %r5,0
 3035 0022 7A020012 		e_bne %cr0,.L227
 3036              	.LVL246:
 3037              	.L228:
 3038              		.loc 1 2295 0
 3039 0026 C701     		se_lwz %r0,28(%r1)
 3040 0028 0090     		se_mtlr %r0
 3041              		.cfi_remember_state
 3042              		.cfi_restore 65
 3043 002a 1BA1080C 		e_lmw %r29,12(%r1)
 3044              	.LVL247:
 3045 002e 0163     		se_mr %r3,%r6
 3046 0030 2171     		se_addi %r1,24
 3047              	.LCFI25:
 3048              		.cfi_restore 31
 3049              		.cfi_restore 30
 3050              		.cfi_restore 29
 3051              		.cfi_def_cfa_offset 0
 3052 0032 0004     		se_blr
 3053              	.LVL248:
 3054              	.L227:
 3055              	.LCFI26:
 3056              		.cfi_restore_state
 3057              		.loc 1 2226 0
 3058 0034 78000001 		e_bl can_lld_getDLC
 3059              	.LVL249:
 3060              		.loc 1 2222 0
 3061 0038 4836     		se_li %r6,3
 3062              		.loc 1 2226 0
 3063 003a 2A03     		se_cmpi %r3,0
 3064 003c 7A12FFEA 		e_beq %cr0,.L228
 3065              		.loc 1 2231 0
 3066 0040 701FA8FB 		e_cmpl16i %r31,251
 3067 0044 7A12005A 		e_beq %cr0,.L252
 3068              		.loc 1 2245 0
 3069 0048 701FA8FC 		e_cmpl16i %r31,252
 3070 004c 7A1200B4 		e_beq %cr0,.L253
 3071              		.loc 1 2260 0
 3072 0050 C05D     		se_lwz %r5,0(%r29)
 3073              		.loc 1 2233 0
 3074 0052 4826     		se_li %r6,2
 3075              		.loc 1 2260 0
 3076 0054 30E500D5 		e_lbz %r7,213(%r5)
 3077 0058 2047     		se_addi %r7,5
 3078 005a 00C7     		se_extzb %r7
GAS LISTING C:\Users\bayra\AppData\Local\Temp\cc6ZYDYB.s 			page 55


 3079 005c 2207     		se_cmpli %r7,1
 3080 005e 7A01FFC8 		e_ble %cr0,.L228
 3081              		.loc 1 2264 0
 3082 0062 701FA8FF 		e_cmpl16i %r31,255
 3083 0066 7A120064 		e_beq %cr0,.L254
 3084              		.loc 1 2274 0
 3085 006a C17D     		se_lwz %r7,4(%r29)
 3086              		.loc 1 2282 0
 3087 006c 4816     		se_li %r6,1
 3088              		.loc 1 2274 0
 3089 006e 50E700CC 		e_lwz %r7,204(%r7)
 3090 0072 40F7     		se_srw %r7,%r31
 3091 0074 67F7     		se_btsti %r7,31
 3092 0076 7A02FFB0 		e_bne %cr0,.L228
 3093              		.loc 1 2275 0
 3094 007a 00CF     		se_extzb %r31
 3095              	.LVL250:
 3096              		.loc 1 2281 0
 3097 007c 701FA8FF 		e_cmpl16i %r31,255
 3098 0080 7A12FFA6 		e_beq %cr0,.L228
 3099              	.LVL251:
 3100              	.L236:
 3101              		.loc 1 2287 0
 3102 0084 01E5     		se_mr %r5,%r30
 3103 0086 01D3     		se_mr %r3,%r29
 3104 0088 01F4     		se_mr %r4,%r31
 3105 008a 78000001 		e_bl can_lld_writeTxBuffer
 3106              	.LVL252:
 3107              		.loc 1 2290 0
 3108 008e C15D     		se_lwz %r5,4(%r29)
 3109 0090 4817     		se_li %r7,1
 3110              		.loc 1 2294 0
 3111 0092 4806     		se_li %r6,0
 3112              		.loc 1 2290 0
 3113 0094 42F7     		se_slw %r7, %r31
 3114 0096 54E500D0 		e_stw %r7,208(%r5)
 3115              		.loc 1 2294 0
 3116 009a 79FFFF8C 		e_b .L228
 3117              	.LVL253:
 3118              	.L252:
 3119              		.loc 1 2232 0
 3120 009e C07D     		se_lwz %r7,0(%r29)
 3121              		.loc 1 2233 0
 3122 00a0 4826     		se_li %r6,2
 3123              		.loc 1 2232 0
 3124 00a2 30E700D5 		e_lbz %r7,213(%r7)
 3125 00a6 2047     		se_addi %r7,5
 3126 00a8 70E0C8FD 		e_and2i. %r7,253
 3127 00ac 7A02FF7A 		e_bne %cr0,.L228
 3128              	.L251:
 3129              		.loc 1 2253 0
 3130 00b0 C15D     		se_lwz %r5,4(%r29)
 3131              		.loc 1 2282 0
 3132 00b2 4816     		se_li %r6,1
 3133              		.loc 1 2253 0
 3134 00b4 50E500C4 		e_lwz %r7,196(%r5)
 3135 00b8 66A7     		se_btsti %r7,10
GAS LISTING C:\Users\bayra\AppData\Local\Temp\cc6ZYDYB.s 			page 56


 3136 00ba 7A02FF6C 		e_bne %cr0,.L228
 3137              		.loc 1 2254 0
 3138 00be 53E500C4 		e_lwz %r31,196(%r5)
 3139              	.LVL254:
 3140 00c2 77FF86FF 		e_rlwinm %r31,%r31,16,27,31
 3141              	.LVL255:
 3142 00c6 79FFFFBE 		e_b .L236
 3143              	.LVL256:
 3144              	.L254:
 3145              		.loc 1 2265 0 discriminator 1
 3146 00ca 30C500D6 		e_lbz %r6,214(%r5)
 3147 00ce 2A06     		se_cmpi %r6,0
 3148 00d0 7A12002A 		e_beq %cr0,.L244
 3149              		.loc 1 2266 0
 3150 00d4 C15D     		se_lwz %r5,4(%r29)
 3151 00d6 50E500CC 		e_lwz %r7,204(%r5)
 3152 00da 67F7     		se_btsti %r7,31
 3153 00dc 4807     		se_li %r7,0
 3154 00de 7A12003A 		e_beq %cr0,.L233
 3155 00e2 00B6     		se_mtctr %r6
 3156 00e4 78000010 		e_b .L234
 3157              	.LVL257:
 3158              	.L235:
 3159 00e8 50C500CC 		e_lwz %r6,204(%r5)
 3160 00ec 4076     		se_srw %r6,%r7
 3161 00ee 67F6     		se_btsti %r6,31
 3162 00f0 7A120028 		e_beq %cr0,.L233
 3163              	.LVL258:
 3164              	.L234:
 3165              		.loc 1 2265 0 discriminator 2
 3166 00f4 2007     		se_addi %r7,1
 3167              	.LVL259:
 3168 00f6 7A20FFF2 		e_bdnz .L235
 3169              	.LVL260:
 3170              	.L244:
 3171              		.loc 1 2282 0
 3172 00fa 4816     		se_li %r6,1
 3173 00fc 79FFFF2A 		e_b .L228
 3174              	.L253:
 3175              		.loc 1 2246 0
 3176 0100 C07D     		se_lwz %r7,0(%r29)
 3177              		.loc 1 2233 0
 3178 0102 4826     		se_li %r6,2
 3179              		.loc 1 2246 0
 3180 0104 30E700D5 		e_lbz %r7,213(%r7)
 3181 0108 18E7C0FD 		e_andi %r7,%r7,253
 3182 010c 700798FC 		e_cmp16i %r7,252
 3183 0110 7A02FF16 		e_bne %cr0,.L228
 3184 0114 79FFFF9C 		e_b .L251
 3185              	.L233:
 3186              		.loc 1 2267 0
 3187 0118 74FF063F 		e_rlwinm %r31,%r7,0,0xff
 3188              	.LVL261:
 3189              		.loc 1 2268 0
 3190 011c 79FFFF68 		e_b .L236
 3191              		.cfi_endproc
 3192              	.LFE16:
GAS LISTING C:\Users\bayra\AppData\Local\Temp\cc6ZYDYB.s 			page 57


 3193              		.size	can_lld_transmit, .-can_lld_transmit
 3194              		.section	.text.can_lld_receive,"axv",@progbits
 3195              		.align 1
 3196              		.p2align 4,,15
 3197              		.globl can_lld_receive
 3198              		.type	can_lld_receive, @function
 3199              	can_lld_receive:
 3200              	.LFB17:
 3201              		.loc 1 2308 0
 3202              		.cfi_startproc
 3203              	.LVL262:
 3204 0000 182106F0 		e_stwu %r1,-16(%r1)
 3205              	.LCFI27:
 3206              		.cfi_def_cfa_offset 16
 3207 0004 0080     		se_mflr %r0
 3208 0006 1BC10908 		e_stmw %r30,8(%r1)
 3209 000a D501     		se_stw %r0,20(%r1)
 3210              		.cfi_offset 65, 4
 3211              		.cfi_offset 30, -8
 3212              		.cfi_offset 31, -4
 3213              		.loc 1 2308 0
 3214 000c 0147     		se_mr %r7,%r4
 3215 000e 013E     		se_mr %r30,%r3
 3216 0010 0156     		se_mr %r6,%r5
 3217              		.loc 1 2315 0
 3218 0012 7004A8FD 		e_cmpl16i %r4,253
 3219 0016 7A120026 		e_beq %cr0,.L273
 3220              		.loc 1 2330 0
 3221 001a 7004A8FE 		e_cmpl16i %r4,254
 3222 001e 7A12005E 		e_beq %cr0,.L274
 3223              		.loc 1 2346 0
 3224 0022 C143     		se_lwz %r4,4(%r3)
 3225              	.LVL263:
 3226 0024 50640050 		e_lwz %r3,80(%r4)
 3227              	.LVL264:
 3228 0028 66C3     		se_btsti %r3,12
 3229 002a 7A020094 		e_bne %cr0,.L275
 3230              	.LVL265:
 3231              	.L260:
 3232              		.loc 1 2325 0
 3233 002e 4813     		se_li %r3,1
 3234              	.LVL266:
 3235              	.L272:
 3236              		.loc 1 2397 0
 3237 0030 C501     		se_lwz %r0,20(%r1)
 3238 0032 0090     		se_mtlr %r0
 3239              		.cfi_remember_state
 3240              		.cfi_restore 65
 3241 0034 1BC10808 		e_lmw %r30,8(%r1)
 3242              	.LVL267:
 3243 0038 20F1     		se_addi %r1,16
 3244              	.LCFI28:
 3245              		.cfi_restore 31
 3246              		.cfi_restore 30
 3247              		.cfi_def_cfa_offset 0
 3248 003a 0004     		se_blr
 3249              	.LVL268:
GAS LISTING C:\Users\bayra\AppData\Local\Temp\cc6ZYDYB.s 			page 58


 3250              	.L273:
 3251              	.LCFI29:
 3252              		.cfi_restore_state
 3253              		.loc 1 2316 0
 3254 003c C173     		se_lwz %r7,4(%r3)
 3255 003e 53E70050 		e_lwz %r31,80(%r7)
 3256 0042 2E1F     		se_andi %r31,1
 3257 0044 220F     		se_cmpli %r31,1
 3258 0046 7A02FFE8 		e_bne %cr0,.L260
 3259              		.loc 1 2317 0
 3260 004a 50A700A4 		e_lwz %r5,164(%r7)
 3261              	.LVL269:
 3262              		.loc 1 2319 0
 3263 004e 74A5C6BF 		e_rlwinm %r5,%r5,24,26,31
 3264              	.LVL270:
 3265 0052 78000001 		e_bl can_lld_readBuffer
 3266              	.LVL271:
 3267              		.loc 1 2321 0
 3268 0056 C17E     		se_lwz %r7,4(%r30)
 3269              		.loc 1 2396 0
 3270 0058 4803     		se_li %r3,0
 3271              		.loc 1 2321 0
 3272 005a 50A700A4 		e_lwz %r5,164(%r7)
 3273 005e 50C700A8 		e_lwz %r6,168(%r7)
 3274 0062 74A6C6BE 		e_rlwimi %r6,%r5,24,26,31
 3275 0066 54C700A8 		e_stw %r6,168(%r7)
 3276              		.loc 1 2323 0
 3277 006a C17E     		se_lwz %r7,4(%r30)
 3278 006c 50C70050 		e_lwz %r6,80(%r7)
 3279 0070 77E607FE 		e_rlwimi %r6,%r31,0,31,31
 3280 0074 54C70050 		e_stw %r6,80(%r7)
 3281 0078 79FFFFB8 		e_b .L272
 3282              	.LVL272:
 3283              	.L274:
 3284              		.loc 1 2331 0
 3285 007c C173     		se_lwz %r7,4(%r3)
 3286 007e 53E70050 		e_lwz %r31,80(%r7)
 3287 0082 77FFE7FF 		e_rlwinm %r31,%r31,28,31,31
 3288 0086 220F     		se_cmpli %r31,1
 3289 0088 7A02FFA6 		e_bne %cr0,.L260
 3290              		.loc 1 2332 0
 3291 008c 50A700B4 		e_lwz %r5,180(%r7)
 3292              	.LVL273:
 3293              		.loc 1 2334 0
 3294 0090 74A5C6BF 		e_rlwinm %r5,%r5,24,26,31
 3295              	.LVL274:
 3296 0094 78000001 		e_bl can_lld_readBuffer
 3297              	.LVL275:
 3298              		.loc 1 2336 0
 3299 0098 C17E     		se_lwz %r7,4(%r30)
 3300              		.loc 1 2396 0
 3301 009a 4803     		se_li %r3,0
 3302              		.loc 1 2336 0
 3303 009c 50A700B4 		e_lwz %r5,180(%r7)
 3304 00a0 50C700B8 		e_lwz %r6,184(%r7)
 3305 00a4 74A6C6BE 		e_rlwimi %r6,%r5,24,26,31
 3306 00a8 54C700B8 		e_stw %r6,184(%r7)
GAS LISTING C:\Users\bayra\AppData\Local\Temp\cc6ZYDYB.s 			page 59


 3307              		.loc 1 2338 0
 3308 00ac C17E     		se_lwz %r7,4(%r30)
 3309 00ae 50C70050 		e_lwz %r6,80(%r7)
 3310 00b2 77E626F6 		e_rlwimi %r6,%r31,4,27,27
 3311 00b6 54C70050 		e_stw %r6,80(%r7)
 3312 00ba 79FFFF76 		e_b .L272
 3313              	.LVL276:
 3314              	.L275:
 3315              		.loc 1 2347 0
 3316 00be 7007A8FF 		e_cmpl16i %r7,255
 3317 00c2 7A12009C 		e_beq %cr0,.L276
 3318              		.loc 1 2364 0
 3319 00c6 23E7     		se_cmpli %r7,31
 3320 00c8 7A11005A 		e_bgt %cr0,.L268
 3321              		.loc 1 2365 0
 3322 00cc 50A40098 		e_lwz %r5,152(%r4)
 3323              	.LVL277:
 3324 00d0 4075     		se_srw %r5,%r7
 3325 00d2 67F5     		se_btsti %r5,31
 3326 00d4 7A12005E 		e_beq %cr0,.L262
 3327              	.LVL278:
 3328              	.L269:
 3329              		.loc 1 2366 0
 3330 00d8 74FF063F 		e_rlwinm %r31,%r7,0,0xff
 3331              	.LVL279:
 3332              		.loc 1 2375 0
 3333 00dc 4815     		se_li %r5,1
 3334 00de 50E40050 		e_lwz %r7,80(%r4)
 3335              	.LVL280:
 3336              		.loc 1 2379 0
 3337 00e2 701FA8FF 		e_cmpl16i %r31,255
 3338              		.loc 1 2375 0
 3339 00e6 74A79B18 		e_rlwimi %r7,%r5,19,12,12
 3340 00ea 54E40050 		e_stw %r7,80(%r4)
 3341              		.loc 1 2379 0
 3342 00ee 7A12FF40 		e_beq %cr0,.L260
 3343              	.LVL281:
 3344              	.L265:
 3345              		.loc 1 2385 0
 3346 00f2 01E3     		se_mr %r3,%r30
 3347 00f4 708000FC 		e_li %r4,252
 3348 00f8 01F5     		se_mr %r5,%r31
 3349 00fa 78000001 		e_bl can_lld_readBuffer
 3350              	.LVL282:
 3351              		.loc 1 2388 0
 3352 00fe 23EF     		se_cmpli %r31,31
 3353 0100 7A010046 		e_ble %cr0,.L277
 3354              		.loc 1 2391 0
 3355 0104 C15E     		se_lwz %r5,4(%r30)
 3356 0106 18FF84E0 		e_addi %r7,%r31,-32
 3357 010a 4816     		se_li %r6,1
 3358 010c 7CC73830 		slw %r7,%r6,%r7
 3359 0110 54E5009C 		e_stw %r7,156(%r5)
 3360              		.loc 1 2397 0
 3361 0114 C501     		se_lwz %r0,20(%r1)
 3362 0116 0090     		se_mtlr %r0
 3363              		.cfi_remember_state
GAS LISTING C:\Users\bayra\AppData\Local\Temp\cc6ZYDYB.s 			page 60


 3364              		.cfi_restore 65
 3365 0118 1BC10808 		e_lmw %r30,8(%r1)
 3366              	.LVL283:
 3367              		.loc 1 2396 0
 3368 011c 4803     		se_li %r3,0
 3369              		.loc 1 2397 0
 3370 011e 20F1     		se_addi %r1,16
 3371              	.LCFI30:
 3372              		.cfi_restore 30
 3373              		.cfi_restore 31
 3374              		.cfi_def_cfa_offset 0
 3375 0120 0004     		se_blr
 3376              	.LVL284:
 3377              	.L268:
 3378              	.LCFI31:
 3379              		.cfi_restore_state
 3380              		.loc 1 2369 0
 3381 0122 50A4009C 		e_lwz %r5,156(%r4)
 3382              	.LVL285:
 3383 0126 186784E0 		e_addi %r3,%r7,-32
 3384 012a 4035     		se_srw %r5,%r3
 3385 012c 67F5     		se_btsti %r5,31
 3386 012e 7A02FFAA 		e_bne %cr0,.L269
 3387              	.LVL286:
 3388              	.L262:
 3389              		.loc 1 2375 0
 3390 0132 50E40050 		e_lwz %r7,80(%r4)
 3391 0136 4816     		se_li %r6,1
 3392              	.LVL287:
 3393              		.loc 1 2380 0
 3394 0138 4813     		se_li %r3,1
 3395              		.loc 1 2375 0
 3396 013a 74C79B18 		e_rlwimi %r7,%r6,19,12,12
 3397 013e 54E40050 		e_stw %r7,80(%r4)
 3398 0142 79FFFEEE 		e_b .L272
 3399              	.LVL288:
 3400              	.L277:
 3401              		.loc 1 2389 0
 3402 0146 C16E     		se_lwz %r6,4(%r30)
 3403 0148 4817     		se_li %r7,1
 3404 014a 42F7     		se_slw %r7, %r31
 3405 014c 54E60098 		e_stw %r7,152(%r6)
 3406              		.loc 1 2397 0
 3407 0150 C501     		se_lwz %r0,20(%r1)
 3408 0152 0090     		se_mtlr %r0
 3409              		.cfi_remember_state
 3410              		.cfi_restore 65
 3411 0154 1BC10808 		e_lmw %r30,8(%r1)
 3412              	.LVL289:
 3413              		.loc 1 2396 0
 3414 0158 4803     		se_li %r3,0
 3415              		.loc 1 2397 0
 3416 015a 20F1     		se_addi %r1,16
 3417              	.LCFI32:
 3418              		.cfi_restore 30
 3419              		.cfi_restore 31
 3420              		.cfi_def_cfa_offset 0
GAS LISTING C:\Users\bayra\AppData\Local\Temp\cc6ZYDYB.s 			page 61


 3421 015c 0004     		se_blr
 3422              	.LVL290:
 3423              	.L276:
 3424              	.LCFI33:
 3425              		.cfi_restore_state
 3426              		.loc 1 2348 0 discriminator 1
 3427 015e C07E     		se_lwz %r7,0(%r30)
 3428              	.LVL291:
 3429 0160 30A700D2 		e_lbz %r5,210(%r7)
 3430              	.LVL292:
 3431 0164 2A05     		se_cmpi %r5,0
 3432 0166 7A12FFCC 		e_beq %cr0,.L262
 3433              		.loc 1 2348 0 is_stmt 0
 3434 016a 4807     		se_li %r7,0
 3435 016c 00B5     		se_mtctr %r5
 3436 016e 78000016 		e_b .L267
 3437              	.LVL293:
 3438              	.L279:
 3439              		.loc 1 2350 0 is_stmt 1
 3440 0172 50640098 		e_lwz %r3,152(%r4)
 3441 0176 4073     		se_srw %r3,%r7
 3442 0178 67F3     		se_btsti %r3,31
 3443 017a 7A020024 		e_bne %cr0,.L278
 3444              	.L264:
 3445              		.loc 1 2348 0 discriminator 2
 3446 017e 2007     		se_addi %r7,1
 3447              	.LVL294:
 3448 0180 7A30FFB2 		e_bdz .L262
 3449              	.LVL295:
 3450              	.L267:
 3451              		.loc 1 2349 0
 3452 0184 23E7     		se_cmpli %r7,31
 3453 0186 7A01FFEC 		e_ble %cr0,.L279
 3454              		.loc 1 2355 0
 3455 018a 5064009C 		e_lwz %r3,156(%r4)
 3456 018e 18A784E0 		e_addi %r5,%r7,-32
 3457 0192 4053     		se_srw %r3,%r5
 3458 0194 67F3     		se_btsti %r3,31
 3459 0196 7A12FFE8 		e_beq %cr0,.L264
 3460 019a 79FFFF3E 		e_b .L269
 3461              	.L278:
 3462              		.loc 1 2375 0
 3463 019e 50A40050 		e_lwz %r5,80(%r4)
 3464              		.loc 1 2351 0
 3465 01a2 74FF063F 		e_rlwinm %r31,%r7,0,0xff
 3466              	.LVL296:
 3467              		.loc 1 2375 0
 3468 01a6 4817     		se_li %r7,1
 3469              	.LVL297:
 3470 01a8 74E59B18 		e_rlwimi %r5,%r7,19,12,12
 3471 01ac 54A40050 		e_stw %r5,80(%r4)
 3472 01b0 79FFFF42 		e_b .L265
 3473              		.cfi_endproc
 3474              	.LFE17:
 3475              		.size	can_lld_receive, .-can_lld_receive
 3476              		.globl CAND7
 3477              		.globl CAND2
GAS LISTING C:\Users\bayra\AppData\Local\Temp\cc6ZYDYB.s 			page 62


 3478              		.section	.bss.CAND2,"aw",@nobits
 3479              		.align 2
 3480              		.set	.LANCHOR0,. + 0
 3481              		.type	CAND2, @object
 3482              		.size	CAND2, 16
 3483              	CAND2:
 3484 0000 00000000 		.zero	16
 3484      00000000 
 3484      00000000 
 3484      00000000 
 3485              		.section	.bss.CAND7,"aw",@nobits
 3486              		.align 2
 3487              		.set	.LANCHOR1,. + 0
 3488              		.type	CAND7, @object
 3489              		.size	CAND7, 16
 3490              	CAND7:
 3491 0000 00000000 		.zero	16
 3491      00000000 
 3491      00000000 
 3491      00000000 
 3492              		.section	".text","axv"
 3493              	.Letext0:
 3494              		.file 2 "c:\\spc5studio-6.0\\eclipse\\plugins\\com.st.tools.spc5.tools.gnu.gcc.ppcvle.win32_4.9.4.
 3495              		.file 3 "c:\\spc5studio-6.0\\eclipse\\plugins\\com.st.tools.spc5.tools.gnu.gcc.ppcvle.win32_4.9.4.
 3496              		.file 4 "./components/spc58ecxx_platform_component_rla/lib/include/typedefs.h"
 3497              		.file 5 "./components/spc58ecxx_platform_component_rla/lib/include/spc58xcxx.h"
 3498              		.file 6 "./components/spc58ecxx_low_level_drivers_component_rla/lib/include/can_lld.h"
 3499              		.file 7 "./components/spc58ecxx_clock_component_rla/lib/include/clock.h"