GAS LISTING C:\Users\bayra\AppData\Local\Temp\ccybUSvF.s 			page 1


   1              		.file	"main.c"
   2              		.section	".text","axv"
   3              	.Ltext0:
   4              		.cfi_sections	.debug_frame
   5              		.globl __extendsfdf2
   6              		.globl __divdf3
   7              		.globl __fixunsdfsi
   8              		.globl __gtsf2
   9              		.section	.text.vTaskh303,"axv",@progbits
  10              		.align 1
  11              		.p2align 4,,15
  12              		.globl vTaskh303
  13              		.type	vTaskh303, @function
  14              	vTaskh303:
  15              	.LFB4:
  16              		.file 1 "main.c"
  17              		.loc 1 58 0
  18              		.cfi_startproc
  19              	.LVL0:
  20 0000 701F7F40 		e_li %r0,-192
  21 0004 7C21016E 		stwux %r1,%r1,%r0
  22              	.LCFI0:
  23              		.cfi_def_cfa_offset 192
  24 0008 0080     		se_mflr %r0
  25 000a 56C10098 		e_stw %r22,152(%r1)
  26 000e 56E1009C 		e_stw %r23,156(%r1)
  27 0012 570100A0 		e_stw %r24,160(%r1)
  28 0016 572100A4 		e_stw %r25,164(%r1)
  29 001a 574100A8 		e_stw %r26,168(%r1)
  30 001e 576100AC 		e_stw %r27,172(%r1)
  31 0022 578100B0 		e_stw %r28,176(%r1)
  32 0026 57A100B4 		e_stw %r29,180(%r1)
  33 002a 57C100B8 		e_stw %r30,184(%r1)
  34 002e 540100C4 		e_stw %r0,196(%r1)
  35 0032 57E100BC 		e_stw %r31,188(%r1)
  36              		.cfi_offset 65, 4
  37              		.cfi_offset 22, -40
  38              		.cfi_offset 23, -36
  39              		.cfi_offset 24, -32
  40              		.cfi_offset 25, -28
  41              		.cfi_offset 26, -24
  42              		.cfi_offset 27, -20
  43              		.cfi_offset 28, -16
  44              		.cfi_offset 29, -12
  45              		.cfi_offset 30, -8
  46              		.cfi_offset 31, -4
  47              	.LBB2:
  48              		.loc 1 70 0
  49 0036 73C0E000 		e_lis %r30,.LANCHOR0@ha
  50              	.LBE2:
  51              		.loc 1 60 0
  52 003a 78000001 		e_bl xTaskGetTickCount
  53              	.LVL1:
  54              	.LBB7:
  55              		.loc 1 91 0
  56 003e 7380E000 		e_lis %r28,.LANCHOR1@ha
  57              		.loc 1 95 0
GAS LISTING C:\Users\bayra\AppData\Local\Temp\ccybUSvF.s 			page 2


  58 0042 72E0E000 		e_lis %r23,CAND7@ha
  59              	.LBB3:
  60              		.loc 1 74 0
  61 0046 7347E792 		e_lis %r26,0x3f92
  62              	.LBE3:
  63              		.loc 1 99 0
  64 004a 73A0E000 		e_lis %r29,.LANCHOR2@ha
  65              	.LBE7:
  66              		.loc 1 60 0
  67 004e 54610094 		e_stw %r3,148(%r1)
  68              	.LBB8:
  69              		.loc 1 63 0
  70 0052 1B218054 		e_addi %r25,%r1,84
  71              		.loc 1 67 0
  72 0056 73000303 		e_li %r24,771
  73              		.loc 1 70 0
  74 005a 1FDE0000 		e_la %r30,.LANCHOR0@l(%r30)
  75              		.loc 1 91 0
  76 005e 1F9C0000 		e_la %r28,.LANCHOR1@l(%r28)
  77              		.loc 1 95 0
  78 0062 1EF70000 		e_la %r23,CAND7@l(%r23)
  79              	.LBB4:
  80              		.loc 1 74 0
  81 0066 735AC773 		e_or2i %r26,55155
  82 006a 622B     		se_bgeni %r27,2
  83              		.loc 1 78 0
  84 006c 72C00000 		e_li %r22,0
  85              	.LBE4:
  86              		.loc 1 99 0
  87 0070 1FBD0000 		e_la %r29,.LANCHOR2@l(%r29)
  88 0074 78000082 		e_b .L8
  89              	.L14:
  90              	.LBB5:
  91              		.loc 1 73 0
  92 0078 817E     		se_lbz %r7,1(%r30)
  93              		.loc 1 74 0
  94 007a 53FE0004 		e_lwz %r31,4(%r30)
  95              		.loc 1 73 0
  96 007e 34E10056 		e_stb %r7,86(%r1)
  97              		.loc 1 72 0
  98 0082 4C06     		se_li %r6,64
  99              		.loc 1 74 0
 100 0084 1BE3C77F 		e_andi %r3,%r31,2147483647
 101              		.loc 1 72 0
 102 0088 34C10055 		e_stb %r6,85(%r1)
 103              		.loc 1 74 0
 104 008c 78000001 		e_bl __extendsfdf2
 105              	.LVL2:
 106 0090 01A5     		se_mr %r5,%r26
 107 0092 01B6     		se_mr %r6,%r27
 108 0094 78000001 		e_bl __divdf3
 109              	.LVL3:
 110 0098 78000001 		e_bl __fixunsdfsi
 111              	.LVL4:
 112              		.loc 1 78 0
 113 009c 03E4     		se_mfar %r4,%r22
 114              		.loc 1 74 0
GAS LISTING C:\Users\bayra\AppData\Local\Temp\ccybUSvF.s 			page 3


 115 009e 7467043F 		e_rlwinm %r7,%r3,0,0xffff
 116              	.LVL5:
 117              		.loc 1 78 0
 118 00a2 01F3     		se_mr %r3,%r31
 119              	.LVL6:
 120              		.loc 1 75 0
 121 00a4 34E10057 		e_stb %r7,87(%r1)
 122              		.loc 1 76 0
 123 00a8 7CFF4470 		e_srwi %r31,%r7,8
 124              		.loc 1 78 0
 125 00ac 78000001 		e_bl __gtsf2
 126              	.LVL7:
 127 00b0 2A03     		se_cmpi %r3,0
 128 00b2 7A0100B8 		e_ble %cr0,.L11
 129              		.loc 1 80 0
 130 00b6 1BE7D480 		e_ori %r7,%r31,-128
 131 00ba 34E10058 		e_stb %r7,88(%r1)
 132              	.L5:
 133              		.loc 1 86 0
 134 00be 4847     		se_li %r7,4
 135              		.loc 1 87 0
 136 00c0 18818014 		e_addi %r4,%r1,20
 137              		.loc 1 86 0
 138 00c4 34E1005C 		e_stb %r7,92(%r1)
 139              		.loc 1 87 0
 140 00c8 0193     		se_mr %r3,%r25
 141 00ca 78000001 		e_bl converto4byteorder
 142              	.LVL8:
 143              		.loc 1 88 0
 144 00ce 03F3     		se_mfar %r3,%r23
 145 00d0 2C84     		se_bmaski %r4,8
 146 00d2 18A18008 		e_addi %r5,%r1,8
 147 00d6 78000001 		e_bl can_lld_transmit
 148              	.LVL9:
 149              	.LBE5:
 150              		.loc 1 91 0
 151 00da 807C     		se_lbz %r7,0(%r28)
 152 00dc 2A17     		se_cmpi %r7,1
 153 00de 807E     		se_lbz %r7,0(%r30)
 154 00e0 7A120062 		e_beq %cr0,.L13
 155              	.L7:
 156              		.loc 1 99 0
 157 00e4 C06D     		se_lwz %r6,0(%r29)
 158              		.loc 1 98 0
 159 00e6 907C     		se_stb %r7,0(%r28)
 160              		.loc 1 99 0
 161 00e8 2006     		se_addi %r6,1
 162              		.loc 1 100 0
 163 00ea 18618094 		e_addi %r3,%r1,148
 164              		.loc 1 99 0
 165 00ee D06D     		se_stw %r6,0(%r29)
 166              		.loc 1 100 0
 167 00f0 4944     		se_li %r4,20
 168 00f2 78000001 		e_bl vTaskDelayUntil
 169              	.LVL10:
 170              	.L8:
 171              		.loc 1 63 0
GAS LISTING C:\Users\bayra\AppData\Local\Temp\ccybUSvF.s 			page 4


 172 00f6 0193     		se_mr %r3,%r25
 173 00f8 4804     		se_li %r4,0
 174 00fa 4C05     		se_li %r5,64
 175 00fc 78000001 		e_bl memset
 176              	.LVL11:
 177              		.loc 1 66 0
 178 0100 4986     		se_li %r6,24
 179              		.loc 1 70 0
 180 0102 807E     		se_lbz %r7,0(%r30)
 181              		.loc 1 66 0
 182 0104 34C10010 		e_stb %r6,16(%r1)
 183              		.loc 1 67 0
 184 0108 D381     		se_stw %r24,12(%r1)
 185              		.loc 1 68 0
 186 010a 4816     		se_li %r6,1
 187              		.loc 1 70 0
 188 010c 2A07     		se_cmpi %r7,0
 189              		.loc 1 68 0
 190 010e 9861     		se_stb %r6,8(%r1)
 191              		.loc 1 69 0
 192 0110 4806     		se_li %r6,0
 193 0112 9A61     		se_stb %r6,10(%r1)
 194              		.loc 1 70 0
 195 0114 7A02FF64 		e_bne %cr0,.L14
 196              		.loc 1 91 0
 197 0118 806C     		se_lbz %r6,0(%r28)
 198 011a 2A16     		se_cmpi %r6,1
 199 011c 7A02FFC8 		e_bne %cr0,.L7
 200              		.loc 1 93 0
 201 0120 4A07     		se_li %r7,32
 202              		.loc 1 94 0
 203 0122 18818014 		e_addi %r4,%r1,20
 204              		.loc 1 93 0
 205 0126 34E10055 		e_stb %r7,85(%r1)
 206              		.loc 1 94 0
 207 012a 0193     		se_mr %r3,%r25
 208 012c 78000001 		e_bl converto4byteorder
 209              	.LVL12:
 210              		.loc 1 95 0
 211 0130 03F3     		se_mfar %r3,%r23
 212 0132 2C84     		se_bmaski %r4,8
 213 0134 18A18008 		e_addi %r5,%r1,8
 214 0138 78000001 		e_bl can_lld_transmit
 215              	.LVL13:
 216 013c 807E     		se_lbz %r7,0(%r30)
 217 013e 79FFFFA6 		e_b .L7
 218              	.L13:
 219              		.loc 1 91 0 discriminator 1
 220 0142 2A07     		se_cmpi %r7,0
 221 0144 7A02FFA0 		e_bne %cr0,.L7
 222              		.loc 1 93 0
 223 0148 4A07     		se_li %r7,32
 224              		.loc 1 94 0
 225 014a 18818014 		e_addi %r4,%r1,20
 226              		.loc 1 93 0
 227 014e 34E10055 		e_stb %r7,85(%r1)
 228              		.loc 1 94 0
GAS LISTING C:\Users\bayra\AppData\Local\Temp\ccybUSvF.s 			page 5


 229 0152 0193     		se_mr %r3,%r25
 230 0154 78000001 		e_bl converto4byteorder
 231              	.LVL14:
 232              		.loc 1 95 0
 233 0158 03F3     		se_mfar %r3,%r23
 234 015a 2C84     		se_bmaski %r4,8
 235 015c 18A18008 		e_addi %r5,%r1,8
 236 0160 78000001 		e_bl can_lld_transmit
 237              	.LVL15:
 238 0164 807E     		se_lbz %r7,0(%r30)
 239 0166 79FFFF7E 		e_b .L7
 240              	.L11:
 241              	.LBB6:
 242              		.loc 1 84 0
 243 016a 1BE7C07F 		e_andi %r7,%r31,127
 244 016e 34E10058 		e_stb %r7,88(%r1)
 245 0172 79FFFF4C 		e_b .L5
 246              	.LBE6:
 247              	.LBE8:
 248              		.cfi_endproc
 249              	.LFE4:
 250              		.size	vTaskh303, .-vTaskh303
 251              		.section	.text.can_start,"axv",@progbits
 252              		.align 1
 253              		.p2align 4,,15
 254              		.globl can_start
 255              		.type	can_start, @function
 256              	can_start:
 257              	.LFB3:
 258              		.loc 1 47 0
 259              		.cfi_startproc
 260 0000 182106F8 		e_stwu %r1,-8(%r1)
 261              	.LCFI1:
 262              		.cfi_def_cfa_offset 8
 263 0004 0080     		se_mflr %r0
 264              		.loc 1 49 0
 265 0006 7060E000 		e_lis %r3,CAND2@ha
 266              		.loc 1 47 0
 267 000a D301     		se_stw %r0,12(%r1)
 268              		.cfi_offset 65, 4
 269              		.loc 1 49 0
 270 000c 1C630000 		e_la %r3,CAND2@l(%r3)
 271 0010 7080E000 		e_lis %r4,can_config_can1@ha
 272 0014 1C840000 		e_la %r4,can_config_can1@l(%r4)
 273 0018 78000001 		e_bl can_lld_start
 274              	.LVL16:
 275              		.loc 1 51 0
 276 001c C301     		se_lwz %r0,12(%r1)
 277              		.loc 1 50 0
 278 001e 7060E000 		e_lis %r3,CAND7@ha
 279 0022 7080E000 		e_lis %r4,can_config_can4@ha
 280              		.loc 1 51 0
 281              		.loc 1 50 0
 282 0026 1C630000 		e_la %r3,CAND7@l(%r3)
 283 002a 1C840000 		e_la %r4,can_config_can4@l(%r4)
 284              		.loc 1 51 0
 285 002e 0090     		se_mtlr %r0
GAS LISTING C:\Users\bayra\AppData\Local\Temp\ccybUSvF.s 			page 6


 286              		.cfi_restore 65
 287 0030 2071     		se_addi %r1,8
 288              	.LCFI2:
 289              		.cfi_def_cfa_offset 0
 290              		.loc 1 50 0
 291 0032 78000000 		e_b can_lld_start
 292              	.LVL17:
 293              		.cfi_endproc
 294              	.LFE3:
 295              		.size	can_start, .-can_start
 296              		.globl __eabi
 297              		.section	.text.startup.main,"axv",@progbits
 298              		.align 1
 299              		.p2align 4,,15
 300              		.globl main
 301              		.type	main, @function
 302              	main:
 303              	.LFB5:
 304              		.loc 1 104 0
 305              		.cfi_startproc
 306 0000 182106F8 		e_stwu %r1,-8(%r1)
 307              	.LCFI3:
 308              		.cfi_def_cfa_offset 8
 309 0004 0080     		se_mflr %r0
 310 0006 D301     		se_stw %r0,12(%r1)
 311              		.cfi_offset 65, 4
 312              		.loc 1 104 0
 313 0008 78000001 		e_bl __eabi
 314              	.LVL18:
 315              		.loc 1 108 0
 316 000c 78000001 		e_bl componentsInit
 317              	.LVL19:
 318              		.loc 1 110 0
 319 0010 78000001 		e_bl can_lld_init
 320              	.LVL20:
 321              		.loc 1 111 0
 322 0014 78000001 		e_bl can_start
 323              	.LVL21:
 324              		.loc 1 113 0
 325              	 # 113 "main.c" 1
 326 0018 7C008146 		wrteei  1
 327              	 # 0 "" 2
 328              		.loc 1 115 0
 329 001c 4806     		se_li %r6,0
 330              		.loc 1 114 0
 331 001e 70A0E000 		e_lis %r5,.LANCHOR3@ha
 332              		.loc 1 119 0
 333 0022 7080E000 		e_lis %r4,.LC0@ha
 334              		.loc 1 114 0
 335 0026 1CE50000 		e_la %r7,.LANCHOR3@l(%r5)
 336              		.loc 1 116 0
 337 002a 34C50000 		e_stb %r6,.LANCHOR3@l(%r5)
 338              		.loc 1 115 0
 339 002e B167     		se_sth %r6,2(%r7)
 340              		.loc 1 114 0
 341 0030 4FD5     		se_li %r5,125
 342              		.loc 1 117 0
GAS LISTING C:\Users\bayra\AppData\Local\Temp\ccybUSvF.s 			page 7


 343 0032 9167     		se_stb %r6,1(%r7)
 344              		.loc 1 114 0
 345 0034 9457     		se_stb %r5,4(%r7)
 346              		.loc 1 119 0
 347 0036 1C840000 		e_la %r4,.LC0@l(%r4)
 348 003a 6375     		se_bgeni %r5,23
 349 003c 4806     		se_li %r6,0
 350 003e 4817     		se_li %r7,1
 351 0040 71000000 		e_li %r8,0
 352 0044 7060E000 		e_lis %r3,vTaskh303@ha
 353 0048 1C630000 		e_la %r3,vTaskh303@l(%r3)
 354 004c 78000001 		e_bl xTaskCreate
 355              	.LVL22:
 356              		.loc 1 127 0
 357 0050 78000001 		e_bl vTaskStartScheduler
 358              	.LVL23:
 359              	.L17:
 360              		.loc 1 142 0 discriminator 1
 361 0054 78000000 		e_b .L17
 362              		.cfi_endproc
 363              	.LFE5:
 364              		.size	main, .-main
 365              		.section	.text.can1_Can1new,"axv",@progbits
 366              		.align 1
 367              		.p2align 4,,15
 368              		.globl can1_Can1new
 369              		.type	can1_Can1new, @function
 370              	can1_Can1new:
 371              	.LFB6:
 372              		.loc 1 150 0
 373              		.cfi_startproc
 374              	.LVL24:
 375 0000 182106A0 		e_stwu %r1,-96(%r1)
 376              	.LCFI4:
 377              		.cfi_def_cfa_offset 96
 378              		.loc 1 152 0
 379 0004 70A0E000 		e_lis %r5,.LANCHOR4@ha
 380              		.loc 1 150 0
 381 0008 1BC10958 		e_stmw %r30,88(%r1)
 382              		.loc 1 152 0
 383 000c 50C50000 		e_lwz %r6,.LANCHOR4@l(%r5)
 384              		.loc 1 150 0
 385 0010 0080     		se_mflr %r0
 386              		.loc 1 152 0
 387 0012 2006     		se_addi %r6,1
 388              		.loc 1 150 0
 389 0014 54010064 		e_stw %r0,100(%r1)
 390              		.cfi_offset 30, -8
 391              		.cfi_offset 31, -4
 392              		.cfi_offset 65, 4
 393              		.loc 1 150 0
 394 0018 014F     		se_mr %r31,%r4
 395              		.loc 1 155 0
 396 001a C274     		se_lwz %r7,8(%r4)
 397              		.loc 1 152 0
 398 001c 54C50000 		e_stw %r6,.LANCHOR4@l(%r5)
 399              		.loc 1 155 0
GAS LISTING C:\Users\bayra\AppData\Local\Temp\ccybUSvF.s 			page 8


 400 0020 7007A90B 		e_cmpl16i %r7,267
 401 0024 7A120106 		e_beq %cr0,.L35
 402              		.loc 1 189 0
 403 0028 7007A94D 		e_cmpl16i %r7,333
 404 002c 7A120064 		e_beq %cr0,.L36
 405              		.loc 1 223 0
 406 0030 7007AB03 		e_cmpl16i %r7,771
 407 0034 7A020012 		e_bne %cr0,.L20
 408              		.loc 1 223 0 is_stmt 0 discriminator 1
 409 0038 70C0E000 		e_lis %r6,.LANCHOR0@ha
 410 003c 30C60000 		e_lbz %r6,.LANCHOR0@l(%r6)
 411 0040 2A06     		se_cmpi %r6,0
 412 0042 7A02003E 		e_bne %cr0,.L18
 413              	.L20:
 414              		.loc 1 226 0 is_stmt 1
 415 0046 8C4F     		se_lbz %r4,12(%r31)
 416              		.loc 1 230 0
 417 0048 846F     		se_lbz %r6,4(%r31)
 418              		.loc 1 229 0
 419 004a 825F     		se_lbz %r5,2(%r31)
 420              		.loc 1 226 0
 421 004c 34810010 		e_stb %r4,16(%r1)
 422              		.loc 1 227 0
 423 0050 D371     		se_stw %r7,12(%r1)
 424              		.loc 1 230 0
 425 0052 9A61     		se_stb %r6,10(%r1)
 426              	.LVL25:
 427              		.loc 1 229 0
 428 0054 9851     		se_stb %r5,8(%r1)
 429 0056 4906     		se_li %r6,16
 430 0058 189F800C 		e_addi %r4,%r31,12
 431 005c 18E18010 		e_addi %r7,%r1,16
 432 0060 00B6     		se_mtctr %r6
 433              	.LVL26:
 434              	.L32:
 435              	.LBB9:
 436              		.loc 1 233 0 discriminator 3
 437 0062 18C40204 		e_lwzu %r6,4(%r4)
 438 0066 18C70604 		e_stwu %r6,4(%r7)
 439              		.loc 1 231 0 discriminator 3
 440 006a 7A20FFF8 		e_bdnz .L32
 441              	.LBE9:
 442              		.loc 1 235 0
 443 006e 7060E000 		e_lis %r3,CAND7@ha
 444              	.LVL27:
 445 0072 2C84     		se_bmaski %r4,8
 446 0074 1C630000 		e_la %r3,CAND7@l(%r3)
 447 0078 18A18008 		e_addi %r5,%r1,8
 448 007c 78000001 		e_bl can_lld_transmit
 449              	.LVL28:
 450              	.L18:
 451              		.loc 1 242 0
 452 0080 50010064 		e_lwz %r0,100(%r1)
 453 0084 0090     		se_mtlr %r0
 454              		.cfi_remember_state
 455              		.cfi_restore 65
 456 0086 1BC10858 		e_lmw %r30,88(%r1)
GAS LISTING C:\Users\bayra\AppData\Local\Temp\ccybUSvF.s 			page 9


 457 008a 18218060 		e_addi %r1,%r1,96
 458              	.LCFI5:
 459              		.cfi_restore 31
 460              		.cfi_restore 30
 461              		.cfi_def_cfa_offset 0
 462 008e 0004     		se_blr
 463              	.LVL29:
 464              	.L36:
 465              	.LCFI6:
 466              		.cfi_restore_state
 467              		.loc 1 189 0 discriminator 1
 468 0090 70C0E000 		e_lis %r6,.LANCHOR6@ha
 469 0094 30A60000 		e_lbz %r5,.LANCHOR6@l(%r6)
 470 0098 1FC60000 		e_la %r30,.LANCHOR6@l(%r6)
 471 009c 2A05     		se_cmpi %r5,0
 472 009e 7A12FFA8 		e_beq %cr0,.L20
 473              	.LBB10:
 474              		.loc 1 191 0
 475 00a2 8C34     		se_lbz %r3,12(%r4)
 476              	.LVL30:
 477              		.loc 1 194 0
 478 00a4 8204     		se_lbz %r0,2(%r4)
 479              		.loc 1 191 0
 480 00a6 70A0E000 		e_lis %r5,.LANCHOR7@ha
 481              		.loc 1 195 0
 482 00aa 8444     		se_lbz %r4,4(%r4)
 483              		.loc 1 191 0
 484 00ac 1CC50000 		e_la %r6,.LANCHOR7@l(%r5)
 485              		.loc 1 194 0
 486 00b0 34050000 		e_stb %r0,.LANCHOR7@l(%r5)
 487              		.loc 1 191 0
 488 00b4 9836     		se_stb %r3,8(%r6)
 489              		.loc 1 192 0
 490 00b6 D176     		se_stw %r7,4(%r6)
 491              		.loc 1 195 0
 492 00b8 9246     		se_stb %r4,2(%r6)
 493              		.loc 1 197 0
 494 00ba 4C05     		se_li %r5,64
 495 00bc 4804     		se_li %r4,0
 496 00be 18618008 		e_addi %r3,%r1,8
 497 00c2 78000001 		e_bl memset
 498              	.LVL31:
 499              		.loc 1 198 0
 500 00c6 187F8010 		e_addi %r3,%r31,16
 501 00ca 18818008 		e_addi %r4,%r1,8
 502 00ce 78000001 		e_bl converto1byteorder
 503              	.LVL32:
 504              		.loc 1 199 0
 505 00d2 817E     		se_lbz %r7,1(%r30)
 506 00d4 2A07     		se_cmpi %r7,0
 507              		.loc 1 200 0
 508 00d6 8F71     		se_lbz %r7,15(%r1)
 509              		.loc 1 199 0
 510 00d8 7A020138 		e_bne %cr0,.L37
 511              		.loc 1 203 0
 512 00dc 18E7C4CF 		e_andi %r7,%r7,-49
 513 00e0 9F71     		se_stb %r7,15(%r1)
GAS LISTING C:\Users\bayra\AppData\Local\Temp\ccybUSvF.s 			page 10


 514              	.L27:
 515              		.loc 1 205 0
 516 00e2 70E0E000 		e_lis %r7,.LANCHOR6+2@ha
 517 00e6 30E70000 		e_lbz %r7,.LANCHOR6+2@l(%r7)
 518 00ea 2A07     		se_cmpi %r7,0
 519              		.loc 1 206 0
 520 00ec 30E10011 		e_lbz %r7,17(%r1)
 521              		.loc 1 205 0
 522 00f0 7A120136 		e_beq %cr0,.L28
 523              		.loc 1 206 0
 524 00f4 65A7     		se_bseti %r7,26
 525 00f6 00C7     		se_extzb %r7
 526              	.L29:
 527              		.loc 1 211 0
 528 00f8 70C0E000 		e_lis %r6,.LANCHOR6+3@ha
 529 00fc 30C60000 		e_lbz %r6,.LANCHOR6+3@l(%r6)
 530 0100 2A06     		se_cmpi %r6,0
 531 0102 7A120118 		e_beq %cr0,.L30
 532              		.loc 1 212 0
 533 0106 18E7D480 		e_ori %r7,%r7,-128
 534 010a 34E10011 		e_stb %r7,17(%r1)
 535              	.L31:
 536              		.loc 1 218 0 discriminator 2
 537 010e 70A0014D 		e_li %r5,333
 538 0112 18618008 		e_addi %r3,%r1,8
 539 0116 4A04     		se_li %r4,32
 540              		.loc 1 219 0 discriminator 2
 541 0118 73E0E000 		e_lis %r31,.LANCHOR7@ha
 542              		.loc 1 218 0 discriminator 2
 543 011c 78000001 		e_bl Crc_CalculateCRC8H2F
 544              	.LVL33:
 545              		.loc 1 219 0 discriminator 2
 546 0120 1FFF0000 		e_la %r31,.LANCHOR7@l(%r31)
 547              		.loc 1 218 0 discriminator 2
 548 0124 9831     		se_stb %r3,8(%r1)
 549 0126 780000B4 		e_b .L34
 550              	.LVL34:
 551              	.L35:
 552              	.LBE10:
 553              		.loc 1 155 0 discriminator 1
 554 012a 70C0E000 		e_lis %r6,.LANCHOR3@ha
 555 012e 30A60000 		e_lbz %r5,.LANCHOR3@l(%r6)
 556 0132 1FC60000 		e_la %r30,.LANCHOR3@l(%r6)
 557 0136 2A05     		se_cmpi %r5,0
 558 0138 7A12FF0E 		e_beq %cr0,.L20
 559              	.LBB11:
 560              		.loc 1 157 0
 561 013c 8C34     		se_lbz %r3,12(%r4)
 562              	.LVL35:
 563              		.loc 1 160 0
 564 013e 8204     		se_lbz %r0,2(%r4)
 565              		.loc 1 157 0
 566 0140 70A0E000 		e_lis %r5,.LANCHOR5@ha
 567              		.loc 1 161 0
 568 0144 8444     		se_lbz %r4,4(%r4)
 569              		.loc 1 157 0
 570 0146 1CC50000 		e_la %r6,.LANCHOR5@l(%r5)
GAS LISTING C:\Users\bayra\AppData\Local\Temp\ccybUSvF.s 			page 11


 571              		.loc 1 160 0
 572 014a 34050000 		e_stb %r0,.LANCHOR5@l(%r5)
 573              		.loc 1 157 0
 574 014e 9836     		se_stb %r3,8(%r6)
 575              		.loc 1 158 0
 576 0150 D176     		se_stw %r7,4(%r6)
 577              		.loc 1 161 0
 578 0152 9246     		se_stb %r4,2(%r6)
 579              		.loc 1 162 0
 580 0154 4C05     		se_li %r5,64
 581 0156 4804     		se_li %r4,0
 582 0158 18618008 		e_addi %r3,%r1,8
 583 015c 78000001 		e_bl memset
 584              	.LVL36:
 585              		.loc 1 163 0
 586 0160 187F8010 		e_addi %r3,%r31,16
 587 0164 18818008 		e_addi %r4,%r1,8
 588 0168 78000001 		e_bl converto1byteorder
 589              	.LVL37:
 590              		.loc 1 165 0
 591 016c 817E     		se_lbz %r7,1(%r30)
 592 016e 2A07     		se_cmpi %r7,0
 593 0170 7A12001C 		e_beq %cr0,.L21
 594              	.LVL38:
 595              	.LBB12:
 596              		.loc 1 169 0
 597 0174 8951     		se_lbz %r5,9(%r1)
 598              		.loc 1 174 0
 599 0176 8A61     		se_lbz %r6,10(%r1)
 600              		.loc 1 170 0
 601 0178 7CE42070 		e_slwi %r4,%r7,4
 602              		.loc 1 169 0
 603 017c 2EF5     		se_andi %r5,15
 604              		.loc 1 171 0
 605 017e 6847     		se_srwi %r7,4
 606              	.LVL39:
 607              		.loc 1 170 0
 608 0180 4445     		se_or %r5,%r4
 609              		.loc 1 174 0
 610 0182 18C6C4F0 		e_andi %r6,%r6,-16
 611              		.loc 1 173 0
 612 0186 9951     		se_stb %r5,9(%r1)
 613              	.LVL40:
 614              		.loc 1 174 0
 615 0188 4467     		se_or %r7,%r6
 616 018a 9A71     		se_stb %r7,10(%r1)
 617              	.LVL41:
 618              	.L21:
 619              	.LBE12:
 620              		.loc 1 176 0
 621 018c 70E0E000 		e_lis %r7,.LANCHOR3+2@ha
 622 0190 58E70000 		e_lhz %r7,.LANCHOR3+2@l(%r7)
 623 0194 7CE52070 		e_slwi %r5,%r7,4
 624              		.loc 1 177 0
 625 0198 74E6E63F 		e_rlwinm %r6,%r7,28,24,31
 626              		.loc 1 176 0
 627 019c 34A10011 		e_stb %r5,17(%r1)
GAS LISTING C:\Users\bayra\AppData\Local\Temp\ccybUSvF.s 			page 12


 628              		.loc 1 177 0
 629 01a0 34C10012 		e_stb %r6,18(%r1)
 630              		.loc 1 178 0
 631 01a4 2247     		se_cmpli %r7,5
 632 01a6 7A110060 		e_bgt %cr0,.L38
 633              		.loc 1 181 0
 634 01aa 4937     		se_li %r7,19
 635 01ac 34E10013 		e_stb %r7,19(%r1)
 636              	.L23:
 637              		.loc 1 183 0
 638 01b0 4987     		se_li %r7,24
 639              		.loc 1 185 0
 640 01b2 18618008 		e_addi %r3,%r1,8
 641              		.loc 1 183 0
 642 01b6 34E10015 		e_stb %r7,21(%r1)
 643              		.loc 1 185 0
 644 01ba 70A0010B 		e_li %r5,267
 645 01be 4A04     		se_li %r4,32
 646              		.loc 1 184 0
 647 01c0 70E0E000 		e_lis %r7,.LANCHOR3+4@ha
 648              		.loc 1 186 0
 649 01c4 73E0E000 		e_lis %r31,.LANCHOR5@ha
 650              		.loc 1 184 0
 651 01c8 30E70000 		e_lbz %r7,.LANCHOR3+4@l(%r7)
 652              		.loc 1 186 0
 653 01cc 1FFF0000 		e_la %r31,.LANCHOR5@l(%r31)
 654              		.loc 1 184 0
 655 01d0 34E10027 		e_stb %r7,39(%r1)
 656              		.loc 1 185 0
 657 01d4 78000001 		e_bl Crc_CalculateCRC8H2F
 658              	.LVL42:
 659 01d8 9831     		se_stb %r3,8(%r1)
 660              	.L34:
 661              	.LBE11:
 662              	.LBB13:
 663              		.loc 1 219 0 discriminator 2
 664 01da 18618008 		e_addi %r3,%r1,8
 665 01de 189F800C 		e_addi %r4,%r31,12
 666 01e2 78000001 		e_bl converto4byteorder
 667              	.LVL43:
 668              		.loc 1 220 0 discriminator 2
 669 01e6 01F5     		se_mr %r5,%r31
 670 01e8 2C84     		se_bmaski %r4,8
 671 01ea 7060E000 		e_lis %r3,CAND7@ha
 672 01ee 1C630000 		e_la %r3,CAND7@l(%r3)
 673 01f2 78000001 		e_bl can_lld_transmit
 674              	.LVL44:
 675              	.LBE13:
 676              		.loc 1 242 0 discriminator 2
 677 01f6 50010064 		e_lwz %r0,100(%r1)
 678 01fa 0090     		se_mtlr %r0
 679              		.cfi_remember_state
 680              		.cfi_restore 65
 681 01fc 1BC10858 		e_lmw %r30,88(%r1)
 682 0200 18218060 		e_addi %r1,%r1,96
 683              	.LCFI7:
 684              		.cfi_restore 30
GAS LISTING C:\Users\bayra\AppData\Local\Temp\ccybUSvF.s 			page 13


 685              		.cfi_restore 31
 686              		.cfi_def_cfa_offset 0
 687 0204 0004     		se_blr
 688              	.L38:
 689              	.LCFI8:
 690              		.cfi_restore_state
 691              	.LBB14:
 692              		.loc 1 179 0
 693 0206 4D37     		se_li %r7,83
 694 0208 34E10013 		e_stb %r7,19(%r1)
 695 020c 79FFFFA4 		e_b .L23
 696              	.L37:
 697              	.LBE14:
 698              	.LBB15:
 699              		.loc 1 200 0
 700 0210 18E7D030 		e_ori %r7,%r7,48
 701 0214 9F71     		se_stb %r7,15(%r1)
 702 0216 79FFFECC 		e_b .L27
 703              	.L30:
 704              		.loc 1 215 0
 705 021a 18E7C07F 		e_andi %r7,%r7,127
 706 021e 34E10011 		e_stb %r7,17(%r1)
 707 0222 79FFFEEC 		e_b .L31
 708              	.L28:
 709              		.loc 1 209 0
 710 0226 18E7C0DF 		e_andi %r7,%r7,223
 711 022a 79FFFECE 		e_b .L29
 712              	.LBE15:
 713              		.cfi_endproc
 714              	.LFE6:
 715              		.size	can1_Can1new, .-can1_Can1new
 716              		.section	.text.can4_Can4rx_new,"axv",@progbits
 717              		.align 1
 718              		.p2align 4,,15
 719              		.globl can4_Can4rx_new
 720              		.type	can4_Can4rx_new, @function
 721              	can4_Can4rx_new:
 722              	.LFB7:
 723              		.loc 1 243 0
 724              		.cfi_startproc
 725              	.LVL45:
 726 0000 182106A8 		e_stwu %r1,-88(%r1)
 727              	.LCFI9:
 728              		.cfi_def_cfa_offset 88
 729              		.loc 1 245 0
 730 0004 70C0E000 		e_lis %r6,.LANCHOR8@ha
 731              		.loc 1 243 0
 732 0008 0080     		se_mflr %r0
 733              		.loc 1 245 0
 734 000a 50E60000 		e_lwz %r7,.LANCHOR8@l(%r6)
 735              		.loc 1 243 0
 736 000e 5401005C 		e_stw %r0,92(%r1)
 737              		.cfi_offset 65, 4
 738              		.loc 1 245 0
 739 0012 2007     		se_addi %r7,1
 740 0014 3164000C 		e_lbz %r11,12(%r4)
 741              	.LVL46:
GAS LISTING C:\Users\bayra\AppData\Local\Temp\ccybUSvF.s 			page 14


 742              		.loc 1 248 0
 743 0018 C204     		se_lwz %r0,8(%r4)
 744              		.loc 1 250 0
 745 001a 8234     		se_lbz %r3,2(%r4)
 746              	.LVL47:
 747              		.loc 1 251 0
 748 001c 8454     		se_lbz %r5,4(%r4)
 749              		.loc 1 245 0
 750 001e 54E60000 		e_stw %r7,.LANCHOR8@l(%r6)
 751              		.loc 1 247 0
 752 0022 35610010 		e_stb %r11,16(%r1)
 753 0026 4906     		se_li %r6,16
 754              		.loc 1 248 0
 755 0028 D301     		se_stw %r0,12(%r1)
 756              		.loc 1 250 0
 757 002a 9831     		se_stb %r3,8(%r1)
 758              		.loc 1 251 0
 759 002c 9A51     		se_stb %r5,10(%r1)
 760              	.LVL48:
 761 002e 20B4     		se_addi %r4,12
 762              	.LVL49:
 763 0030 18E18010 		e_addi %r7,%r1,16
 764 0034 00B6     		se_mtctr %r6
 765              	.LVL50:
 766              	.L40:
 767              	.LBB16:
 768              		.loc 1 254 0 discriminator 3
 769 0036 18C40204 		e_lwzu %r6,4(%r4)
 770 003a 18C70604 		e_stwu %r6,4(%r7)
 771              		.loc 1 252 0 discriminator 3
 772 003e 7A20FFF8 		e_bdnz .L40
 773              	.LBE16:
 774              		.loc 1 258 0
 775 0042 18A18008 		e_addi %r5,%r1,8
 776 0046 2C84     		se_bmaski %r4,8
 777 0048 7060E000 		e_lis %r3,CAND2@ha
 778 004c 1C630000 		e_la %r3,CAND2@l(%r3)
 779 0050 78000001 		e_bl can_lld_transmit
 780              	.LVL51:
 781              		.loc 1 259 0
 782 0054 5001005C 		e_lwz %r0,92(%r1)
 783 0058 0090     		se_mtlr %r0
 784              		.cfi_restore 65
 785 005a 18218058 		e_addi %r1,%r1,88
 786              	.LCFI10:
 787              		.cfi_def_cfa_offset 0
 788 005e 0004     		se_blr
 789              		.cfi_endproc
 790              	.LFE7:
 791              		.size	can4_Can4rx_new, .-can4_Can4rx_new
 792              		.section	.text.can1_can1rx,"axv",@progbits
 793              		.align 1
 794              		.p2align 4,,15
 795              		.globl can1_can1rx
 796              		.type	can1_can1rx, @function
 797              	can1_can1rx:
 798              	.LFB8:
GAS LISTING C:\Users\bayra\AppData\Local\Temp\ccybUSvF.s 			page 15


 799              		.loc 1 263 0
 800              		.cfi_startproc
 801              	.LVL52:
 802 0000 182106F8 		e_stwu %r1,-8(%r1)
 803              	.LCFI11:
 804              		.cfi_def_cfa_offset 8
 805 0004 0080     		se_mflr %r0
 806              		.loc 1 265 0
 807 0006 70C0E000 		e_lis %r6,.LANCHOR9@ha
 808              		.loc 1 263 0
 809 000a D301     		se_stw %r0,12(%r1)
 810              		.cfi_offset 65, 4
 811              		.loc 1 265 0
 812 000c 50E60000 		e_lwz %r7,.LANCHOR9@l(%r6)
 813              		.loc 1 266 0
 814 0010 7060E000 		e_lis %r3,.LANCHOR10@ha
 815              	.LVL53:
 816              		.loc 1 265 0
 817 0014 2007     		se_addi %r7,1
 818              		.loc 1 266 0
 819 0016 1C630000 		e_la %r3,.LANCHOR10@l(%r3)
 820 001a 4D05     		se_li %r5,80
 821              		.loc 1 265 0
 822 001c 54E60000 		e_stw %r7,.LANCHOR9@l(%r6)
 823              		.loc 1 266 0
 824 0020 78000001 		e_bl memcpy
 825              	.LVL54:
 826              		.loc 1 267 0
 827 0024 C301     		se_lwz %r0,12(%r1)
 828 0026 0090     		se_mtlr %r0
 829              		.cfi_restore 65
 830 0028 2071     		se_addi %r1,8
 831              	.LCFI12:
 832              		.cfi_def_cfa_offset 0
 833 002a 0004     		se_blr
 834              		.cfi_endproc
 835              	.LFE8:
 836              		.size	can1_can1rx, .-can1_can1rx
 837              		.section	.text.can4_can4rx,"axv",@progbits
 838              		.align 1
 839              		.p2align 4,,15
 840              		.globl can4_can4rx
 841              		.type	can4_can4rx, @function
 842              	can4_can4rx:
 843              	.LFB9:
 844              		.loc 1 269 0
 845              		.cfi_startproc
 846              	.LVL55:
 847              		.loc 1 271 0
 848 0000 70C0E000 		e_lis %r6,.LANCHOR11@ha
 849 0004 50E60000 		e_lwz %r7,.LANCHOR11@l(%r6)
 850 0008 2007     		se_addi %r7,1
 851 000a 54E60000 		e_stw %r7,.LANCHOR11@l(%r6)
 852 000e 0004     		se_blr
 853              		.cfi_endproc
 854              	.LFE9:
 855              		.size	can4_can4rx, .-can4_can4rx
GAS LISTING C:\Users\bayra\AppData\Local\Temp\ccybUSvF.s 			page 16


 856              		.globl rx10B
 857              		.globl tx14D
 858              		.globl tx10B
 859              		.globl rtoscnt
 860              		.globl core0cnt
 861              		.globl rtr
 862              		.globl rx
 863              		.globl tx
 864              		.globl h303st
 865              		.globl h14Dst
 866              		.globl h10Bst
 867              		.section	.bss.tx,"aw",@nobits
 868              		.align 2
 869              		.type	tx, @object
 870              		.size	tx, 76
 871              	tx:
 872 0000 00000000 		.zero	76
 872      00000000 
 872      00000000 
 872      00000000 
 872      00000000 
 873              		.section	.bss.cnt.19521,"aw",@nobits
 874              		.align 2
 875              		.set	.LANCHOR11,. + 0
 876              		.type	cnt.19521, @object
 877              		.size	cnt.19521, 4
 878              	cnt.19521:
 879 0000 00000000 		.zero	4
 880              		.section	.bss.cnt.19506,"aw",@nobits
 881              		.align 2
 882              		.set	.LANCHOR8,. + 0
 883              		.type	cnt.19506, @object
 884              		.size	cnt.19506, 4
 885              	cnt.19506:
 886 0000 00000000 		.zero	4
 887              		.section	.bss.rx,"aw",@nobits
 888              		.align 2
 889              		.set	.LANCHOR10,. + 0
 890              		.type	rx, @object
 891              		.size	rx, 80
 892              	rx:
 893 0000 00000000 		.zero	80
 893      00000000 
 893      00000000 
 893      00000000 
 893      00000000 
 894              		.section	.bss.cnt.19516,"aw",@nobits
 895              		.align 2
 896              		.set	.LANCHOR9,. + 0
 897              		.type	cnt.19516, @object
 898              		.size	cnt.19516, 4
 899              	cnt.19516:
 900 0000 00000000 		.zero	4
 901              		.section	.bss.rx10B,"aw",@nobits
 902              		.align 2
 903              		.type	rx10B, @object
 904              		.size	rx10B, 80
GAS LISTING C:\Users\bayra\AppData\Local\Temp\ccybUSvF.s 			page 17


 905              	rx10B:
 906 0000 00000000 		.zero	80
 906      00000000 
 906      00000000 
 906      00000000 
 906      00000000 
 907              		.section	.bss.tx14D,"aw",@nobits
 908              		.align 2
 909              		.set	.LANCHOR7,. + 0
 910              		.type	tx14D, @object
 911              		.size	tx14D, 76
 912              	tx14D:
 913 0000 00000000 		.zero	76
 913      00000000 
 913      00000000 
 913      00000000 
 913      00000000 
 914              		.section	.bss.core0cnt,"aw",@nobits
 915              		.align 2
 916              		.type	core0cnt, @object
 917              		.size	core0cnt, 4
 918              	core0cnt:
 919 0000 00000000 		.zero	4
 920              		.section	.rodata.str1.4,"aMS",@progbits,1
 921              		.align 2
 922              	.LC0:
 923 0000 7461736B 		.string	"task #1"
 923      20233100 
 924              		.section	.bss.rtoscnt,"aw",@nobits
 925              		.align 2
 926              		.set	.LANCHOR2,. + 0
 927              		.type	rtoscnt, @object
 928              		.size	rtoscnt, 4
 929              	rtoscnt:
 930 0000 00000000 		.zero	4
 931              		.section	.data.h14Dst,"aw",@progbits
 932              		.set	.LANCHOR6,. + 0
 933              		.type	h14Dst, @object
 934              		.size	h14Dst, 4
 935              	h14Dst:
 936 0000 00       		.byte	0
 937 0001 01       		.byte	1
 938 0002 00       		.byte	0
 939 0003 00       		.byte	0
 940              		.section	.bss.lastEnable.19477,"aw",@nobits
 941              		.set	.LANCHOR1,. + 0
 942              		.type	lastEnable.19477, @object
 943              		.size	lastEnable.19477, 1
 944              	lastEnable.19477:
 945 0000 00       		.zero	1
 946              		.section	.bss.cnt.19493,"aw",@nobits
 947              		.align 2
 948              		.set	.LANCHOR4,. + 0
 949              		.type	cnt.19493, @object
 950              		.size	cnt.19493, 4
 951              	cnt.19493:
 952 0000 00000000 		.zero	4
GAS LISTING C:\Users\bayra\AppData\Local\Temp\ccybUSvF.s 			page 18


 953              		.section	.bss.tx10B,"aw",@nobits
 954              		.align 2
 955              		.set	.LANCHOR5,. + 0
 956              		.type	tx10B, @object
 957              		.size	tx10B, 76
 958              	tx10B:
 959 0000 00000000 		.zero	76
 959      00000000 
 959      00000000 
 959      00000000 
 959      00000000 
 960              		.section	.bss.h303st,"aw",@nobits
 961              		.align 2
 962              		.set	.LANCHOR0,. + 0
 963              		.type	h303st, @object
 964              		.size	h303st, 8
 965              	h303st:
 966 0000 00000000 		.zero	8
 966      00000000 
 967              		.section	.data.h10Bst,"aw",@progbits
 968              		.align 1
 969              		.set	.LANCHOR3,. + 0
 970              		.type	h10Bst, @object
 971              		.size	h10Bst, 6
 972              	h10Bst:
 973 0000 00       		.byte	0
 974 0001 00       		.byte	0
 975 0002 0000     		.short	0
 976 0004 7D       		.byte	125
 977 0005 00       		.zero	1
 978              		.section	.bss.rtr,"aw",@nobits
 979              		.align 2
 980              		.type	rtr, @object
 981              		.size	rtr, 4
 982              	rtr:
 983 0000 00000000 		.zero	4
 984              		.section	".text","axv"
 985              	.Letext0:
 986              		.file 2 "c:\\spc5studio-6.0\\eclipse\\plugins\\com.st.tools.spc5.tools.gnu.gcc.ppcvle.win32_4.9.4.
 987              		.file 3 "c:\\spc5studio-6.0\\eclipse\\plugins\\com.st.tools.spc5.tools.gnu.gcc.ppcvle.win32_4.9.4.
 988              		.file 4 "./components/spc58ecxx_platform_component_rla/lib/include/typedefs.h"
 989              		.file 5 "./components/spc58ecxx_platform_component_rla/lib/include/spc58xcxx.h"
 990              		.file 6 "./components/spc58ecxx_low_level_drivers_component_rla/lib/include/can_lld.h"
 991              		.file 7 "./components/spc5_freertos_component_rla/lib/include/projdefs.h"
 992              		.file 8 "./components/spc5_freertos_component_rla/lib/portable/portmacro.h"
 993              		.file 9 "./components/spc5_freertos_component_rla/lib/include/task.h"
 994              		.file 10 "./components/spc58ecxx_low_level_drivers_component_rla/cfg/can_lld_cfg.h"
 995              		.file 11 "<built-in>"
 996              		.file 12 "./source/crc.h"
 997              		.file 13 "./components/components.h"